(dp0
S'hike1598'
p1
S'Kettle Falls and Jungle Hill Trail'
p2
sS'hike1599'
p3
S'Gilbert Peak and Warm Lake Loop'
p4
sS'hike1594'
p5
S'Squire Creek Trail'
p6
sS'hike1595'
p7
S'Tahoma Creek Suspension Bridge to Emerald Ridge Loop'
p8
sS'hike1596'
p9
S'Valhalla Lake Via Pacific Crest Trail'
p10
sS'hike1597'
p11
S'Spokane Lower Falls Overlook'
p12
sS'hike1590'
p13
S'Saddle Rock to Green Shack'
p14
sS'hike1591'
p15
S'Terrell Marsh Trail'
p16
sS'hike1592'
p17
S'Sand Point Trail to North Coast Beach Travelway'
p18
sS'hike1593'
p19
S'Rocky Top to Cowiche Mountain'
p20
sS'hike637'
p21
S'Fourth of July Creek Trail to Icicle Ridge'
p22
sS'hike636'
p23
S'Moraine Trail'
p24
sS'hike635'
p25
S'Lake Washington North Trail to South Canyon Trail to Orchard Loop'
p26
sS'hike634'
p27
S'Little Annapurna'
p28
sS'hike633'
p29
S'Lanham Lake Trail'
p30
sS'hike632'
p31
S'Cable Line Trail to West Tiger #3'
p32
sS'hike631'
p33
S'Upper Dungeness Trail to Constance Pass trail Junction'
p34
sS'hike630'
p35
S'Esmeralda Basin Loop Trail'
p36
sS'hike2318'
p37
S'North Lake Trail'
p38
sS'hike639'
p39
S'PCT: WA Section H - Cascade Locks to Highway 12 (White Pass)'
p40
sS'hike638'
p41
S'Beacon Hill Loop from Shields Park Trailhead'
p42
sS'hike136'
p43
S'Greenwater Lakes Trail'
p44
sS'hike559'
p45
S'Elwha River Trail'
p46
sS'hike1938'
p47
S'Hansen Creek Trail'
p48
sS'hike1939'
p49
S'Laplash Falls Trail'
p50
sS'hike1936'
p51
S'Ranger to The Hood to E.T. Loop'
p52
sS'hike1937'
p53
S'South Whidbey Community Park Loop'
p54
sS'hike1934'
p55
S'Sunrise Backcountry Camp Loop'
p56
sS'hike1935'
p57
S'Pilchuck Tree Farm Loop from Bracken Trailhead'
p58
sS'hike1932'
p59
S'Terrace Creek Park'
p60
sS'hike1933'
p61
S'Sunrise Nature Trail'
p62
sS'hike1930'
p63
S'Dege Peak Trail'
p64
sS'hike1931'
p65
S'Pioneer Path Nature Trail'
p66
sS'hike1045'
p67
S'Cedar River'
p68
sS'hike564'
p69
S'Seattle Waterfront Pathway'
p70
sS'hike130'
p71
S'Pinnacle Peak Saddle Trail'
p72
sS'hike131'
p73
S'Mount Defiance and Mason Lake via Ira Spring Memorial Trail, Old Mason Lake Trail, and Mount Defiance Ridge Trail'
p74
sS'hike2009'
p75
S'Teneriffe, Blowdown and Si Loop'
p76
sS'hike2008'
p77
S'Bells Mountain Trail to Cedar Creek'
p78
sS'hike2007'
p79
S'Tower Mountain Forest Loop via Iller Creek Trailhead'
p80
sS'hike2006'
p81
S'Perkins Pond Nature Trail'
p82
sS'hike2005'
p83
S'Trail 101 to Rimrock Drive'
p84
sS'hike2004'
p85
S'Big Cedar to Old Timber to Bobcat Run Loop'
p86
sS'hike2003'
p87
S'Wildflower Loop Trail'
p88
sS'hike2002'
p89
S'Mineral Creek Trail'
p90
sS'hike2001'
p91
S'Baldy Pass'
p92
sS'hike2000'
p93
S'Kirkland Waterfront'
p94
sS'hike1619'
p95
S'Narbeck Sanctuary Boardwalk Loop'
p96
sS'hike1618'
p97
S'Lost Creek Ridge Trail'
p98
sS'hike1617'
p99
S'Horseshoe Ridge Trail'
p100
sS'hike1616'
p101
S'Waterworks Gardens Trail'
p102
sS'hike1615'
p103
S'Sultan Basin Trails'
p104
sS'hike1614'
p105
S'Five Mile Drive'
p106
sS'hike1613'
p107
S'Lewis River Trail'
p108
sS'hike1612'
p109
S'Little Divide Loop'
p110
sS'hike1611'
p111
S'St Edward Grotto Trail'
p112
sS'hike1610'
p113
S'King County Interurban Trail'
p114
sS'hike2133'
p115
S'Badger Valley Trail to Grand Pass Trail Loop'
p116
sS'hike2132'
p117
S'Tiger Middle Summit'
p118
sS'hike2131'
p119
S'Springboard Trail #149'
p120
sS'hike2130'
p121
S'Crow Lake Trail'
p122
sS'hike2137'
p123
S'Spencer Butte Trail'
p124
sS'hike2136'
p125
S'Radio Flyer Loop and Summitview South Loop'
p126
sS'hike2135'
p127
S'Smith Creek Trail'
p128
sS'hike2134'
p129
S'Tribulation to Revival to Exodus Loop'
p130
sS'hike2139'
p131
S'Putney Woods and Metcalf Trail'
p132
sS'hike2138'
p133
S'Little Mountain, West Loop and Huff-N-Puff'
p134
sS'hike1103'
p135
S'Camp Long Trails'
p136
sS'hike1102'
p137
S'Obstruction Point Road'
p138
sS'hike1101'
p139
S'Wynoochee Lake Shore Trail'
p140
sS'hike1100'
p141
S'North Fork Quinault Trail'
p142
sS'hike1107'
p143
S'Interurban Trail and Fragrance Lake'
p144
sS'hike1106'
p145
S'Railroad Trail'
p146
sS'hike1105'
p147
S'Gorge Creek Falls Trail'
p148
sS'hike1104'
p149
S'Cedar River Trail-East End'
p150
sS'hike1109'
p151
S'Bethel Ridge OHV Trail'
p152
sS'hike1108'
p153
S'Strawberry Mountain Trail'
p154
sS'hike958'
p155
S'Oregon Butte Grand Loop Trail'
p156
sS'hike959'
p157
S'Bumping Lake Trail'
p158
sS'hike952'
p159
S'Boulder Lake Trail  '
p160
sS'hike953'
p161
S'Thomas Lake Trail'
p162
sS'hike950'
p163
S'Picnic Point Park'
p164
sS'hike951'
p165
S'West Tiger #1'
p166
sS'hike956'
p167
S'North Fork Sauk Falls Trail'
p168
sS'hike957'
p169
S'Hikers Hut Loop'
p170
sS'hike954'
p171
S'Salmo-Priest Loop'
p172
sS'hike955'
p173
S'Harstine Island State Park Trail'
p174
sS'hike2227'
p175
S'Camp Sheppard Loop Trail'
p176
sS'hike2226'
p177
S'Trail 102: South Trail Green Loop'
p178
sS'hike2225'
p179
S'Bridge Creek Trail'
p180
sS'hike2224'
p181
S'Sasse Ridge Trail'
p182
sS'hike2223'
p183
S'Sentinel Mountain'
p184
sS'hike2222'
p185
S'Dakota Dog Park Loop'
p186
sS'hike2221'
p187
S'Chewuch River Trail to Four Point Lake'
p188
sS'hike2220'
p189
S'Lake Ann Trail'
p190
sS'hike1080'
p191
S'Wildwood Park Loop'
p192
sS'hike2229'
p193
S'Ruby Creek Trail'
p194
sS'hike2228'
p195
S'Mt Adams via Divide Camp Trail #112 and PCT'
p196
sS'hike1037'
p197
S'Interurban Trail'
p198
sS'hike1036'
p199
S"Piper's Creek and South Ridge Trail"
p200
sS'hike1035'
p201
S'Barnes Creek Trail'
p202
sS'hike1034'
p203
S'Lake Sammamish Issaquah Creek Trail'
p204
sS'hike1033'
p205
S'Monogram Lake Trail'
p206
sS'hike1032'
p207
S'Little Huckleberry Trail'
p208
sS'hike1031'
p209
S'East Lake Sammamish Trail'
p210
sS'hike1030'
p211
S'Klickitat River Trail'
p212
sS'hike1086'
p213
S'Jefferson Ridge Trail # 808'
p214
sS'hike1039'
p215
S'Olympic Discovery Trail: Port Angeles Waterfront'
p216
sS'hike1038'
p217
S'Catherine Creek Trail (020)'
p218
sS'hike1084'
p219
S'Monte Cristo Trail to Gothic Basin Trail to Del Campo Peakh'
p220
sS'hike1085'
p221
S'Tronsen Ridge Trail'
p222
sS'hike2359'
p223
S'Early Winters Spires'
p224
sS'hike2358'
p225
S'Geophysical Nordic Ski and Mtn Bike Trail'
p226
sS'hike2353'
p227
S'Richmond Mine Trail'
p228
sS'hike2352'
p229
S'Cougar Mountain via S Tommy and Tyee Ridge Trail'
p230
sS'hike2351'
p231
S'Padden Parkway Trail'
p232
sS'hike2350'
p233
S'Celebration Park Trail'
p234
sS'hike2357'
p235
S'Deer Lake and Little Divide Trail '
p236
sS'hike2356'
p237
S'North Canyon Trail to Joe Watt Trail Loop'
p238
sS'hike2355'
p239
S'Grandy Lake and Logging Road Trail'
p240
sS'hike2354'
p241
S'Pacific Way Trail'
p242
sS'hike888'
p243
S'Peshastin Pinnacles Loop Trail'
p244
sS'hike889'
p245
S'Birth of a Lake Trail'
p246
sS'hike1329'
p247
S'Dumbbell Lake Loop'
p248
sS'hike1328'
p249
S'Fossil Trail'
p250
sS'hike880'
p251
S'Hoh River Trail to Hoh Lake Trail'
p252
sS'hike1322'
p253
S'Irely Lake Trail'
p254
sS'hike1321'
p255
S'Dalles Falls Trail'
p256
sS'hike883'
p257
S'Layser Cave Trail'
p258
sS'hike884'
p259
S'Snoqualmie Valley Trail and Snoqualmie Valley Trail Extension'
p260
sS'hike1326'
p261
S'Spokane River Walk'
p262
sS'hike886'
p263
S'Coal Creek Falls '
p264
sS'hike887'
p265
S'Iceberg Point Trail'
p266
sS'hike408'
p267
S'Mount Zion Trail'
p268
sS'hike409'
p269
S'Spine Line, Ravine Run, White Horse, and Boundary Trails Loop'
p270
sS'hike404'
p271
S'Mount Pugh Trail'
p272
sS'hike405'
p273
S'Lake Isabel Trail'
p274
sS'hike406'
p275
S'PCT: WA Section J - Snoqualmie Pass to Stevens Pass'
p276
sS'hike407'
p277
S'Fort Ebey State Park Loop'
p278
sS'hike400'
p279
S'Gobblers Knob/Lake George Trail'
p280
sS'hike401'
p281
S'Sunrise Rim Trail Loop and Mount Fremont Lookout'
p282
sS'hike402'
p283
S'Olympic Coast South Trail'
p284
sS'hike403'
p285
S'Loowit Falls Trail'
p286
sS'hike310'
p287
S'Stimpson Nature Preserve'
p288
sS'hike311'
p289
S'Talus Loop Trail'
p290
sS'hike312'
p291
S'Kamiak Butte Trail'
p292
sS'hike313'
p293
S'Spectacle Lake'
p294
sS'hike314'
p295
S'Goldmyer Hot Springs Trail'
p296
sS'hike315'
p297
S'Grand Forest Park Trail'
p298
sS'hike316'
p299
S'Paradise Glacier Caves via Skyline Trail Spur'
p300
sS'hike317'
p301
S'Table Mountain Trail'
p302
sS'hike318'
p303
S'Salmon Creek Trail'
p304
sS'hike319'
p305
S'Norway Pass and Mount Margaret Via Boundary Trail'
p306
sS'hike1859'
p307
S'Juanita Beach Loop'
p308
sS'hike1858'
p309
S'Nannie Peak Trail'
p310
sS'hike1851'
p311
S'Stetattle Trail'
p312
sS'hike1850'
p313
S'Stevens Pass Scenic Byway'
p314
sS'hike1853'
p315
S'I-90 Trail to the Lake to Lake Trail'
p316
sS'hike1852'
p317
S'Rattlesnake Slope Trail'
p318
sS'hike1855'
p319
S'Downtown Park Loop'
p320
sS'hike1854'
p321
S'Banks Lake Trail'
p322
sS'hike1857'
p323
S'Damfino Lakes Trail to Excelsior Peak'
p324
sS'hike1856'
p325
S"Friend's Landing Trail"
p326
sS'hike538'
p327
S'Paradise Inn to Panorama Point-Snow Hike'
p328
sS'hike539'
p329
S'Lake Lillian Trail'
p330
sS'hike530'
p331
S'Hugo Peak Trail'
p332
sS'hike531'
p333
S'Upper Wildcat Lake Trail'
p334
sS'hike532'
p335
S"Dirty Harry's Peak via Birdhouse Trail"
p336
sS'hike533'
p337
S'Trail of the Shadows Trail'
p338
sS'hike534'
p339
S'Grassy Knoll Trail'
p340
sS'hike535'
p341
S'Bluff Mountain Trail'
p342
sS'hike536'
p343
S'Horseshoe Lake Trail'
p344
sS'hike537'
p345
S'Perry Creek Trail'
p346
sS'hike2588'
p347
S'Suiattle River OHV Trail'
p348
sS'hike2589'
p349
S'Upper Lake Josephine OHV Trail'
p350
sS'hike2582'
p351
S'Milk Creek, Manastash Creek, and Quartz Creek OHV Loop'
p352
sS'hike2583'
p353
S'Blanchard Mill Loop'
p354
sS'hike2580'
p355
S'Tahuya Staging OHV Trail '
p356
sS'hike2581'
p357
S'North Taneum Creek and Manastash Ridge OHV Trail'
p358
sS'hike2586'
p359
S'Cispus River to Blue Lake OHV Trail'
p360
sS'hike2587'
p361
S'Capital Forest OHV Trail'
p362
sS'hike2584'
p363
S'North Rim, Rock Candy, and Porter OHV Loop'
p364
sS'hike2585'
p365
S'Canyon Creek OHV Trail'
p366
sS'hike1589'
p367
S'Drive to the Top of Mount Spokane'
p368
sS'hike1588'
p369
S'Devils Gulch'
p370
sS'hike1587'
p371
S'Copper Ridge Trail To Copper Lake'
p372
sS'hike1586'
p373
S'Wright Park'
p374
sS'hike1585'
p375
S'Huntoon Trail and Douglas Fir Trail Loop'
p376
sS'hike1584'
p377
S'Mad River Trail'
p378
sS'hike1583'
p379
S'Canyon Crest Trail to Rat Creek Ridge Trail'
p380
sS'hike1582'
p381
S'Phelps Creek Trail to Lyman Lake'
p382
sS'hike1581'
p383
S'Red Mountain via Pacific Crest and Indian Race Track Loop'
p384
sS'hike1580'
p385
S'Evergreen Farm Loop'
p386
sS'hike624'
p387
S'Miller Peninsula and Thompson Spit Trail'
p388
sS'hike625'
p389
S'Grand Park Trail past Lake Eleanor'
p390
sS'hike626'
p391
S'Deer Park Road'
p392
sS'hike627'
p393
S'Lake Ann Trail'
p394
sS'hike620'
p395
S'Green Mountain via Davis and Gold Creek Trails'
p396
sS'hike621'
p397
S'Windy Ridge Trail'
p398
sS'hike622'
p399
S'Butte Camp Trail'
p400
sS'hike623'
p401
S'Bear Creek Mountain'
p402
sS'hike628'
p403
S'Dosewallips State Park Trail'
p404
sS'hike629'
p405
S'Titlow Park'
p406
sS'hike1333'
p407
S'Neiderprum Trail to Whitehorse Mountain'
p408
sS'hike2696'
p409
S'Keys View Nature Trail'
p410
sS'hike2697'
p411
S'Pauoa Flats via Kalawahine Trail'
p412
sS'hike2694'
p413
S'Crow Pass Trail from Girdwood Trailhead'
p414
sS'hike2695'
p415
S'Yellow "Poppy Allen" Trail'
p416
sS'hike2692'
p417
S'Marjorie Harris Carr East from 49th Avenue Trailhead'
p418
sS'hike2693'
p419
S'Ragle Ranch Extended Loop'
p420
sS'hike2690'
p421
S'Castle Rock Trail'
p422
sS'hike2691'
p423
S'Upper Spring Creek and Flume Trail Loop'
p424
sS'hike1334'
p425
S'Talapus, Olallie and Pratt Lake '
p426
sS'hike1921'
p427
S'Camino Ridge Forest Preserve Loop'
p428
sS'hike1920'
p429
S'Oil City Trail'
p430
sS'hike1923'
p431
S'Flett Glacier Summer Ski Tour'
p432
sS'hike1922'
p433
S'Westport Lighthouse Trail'
p434
sS'hike1925'
p435
S'Badger Mountain CSS Loop'
p436
sS'hike1924'
p437
S'Burke Gilman Trail: Lavilla to Bothell'
p438
sS'hike1927'
p439
S'Dark Divide Trail'
p440
sS'hike1926'
p441
S'Foothills Trail: Fairfax Bridge to Carbonado'
p442
sS'hike1929'
p443
S'Sehome Hill Lookout Tower Loop'
p444
sS'hike1928'
p445
S'Olympic Discovery Trail Adventure Route (OAT)'
p446
sS'hike76'
p447
S'Mount Townsend Trail'
p448
sS'hike1336'
p449
S'Hog Lake Loop'
p450
sS'hike77'
p451
S'Blue Lake Trail'
p452
sS'hike124'
p453
S'Lighthouse Point via Bowman Bay/Rosario Beach Trail'
p454
sS'hike2544'
p455
S'Huckleberry Hill and Pump House Loop'
p456
sS'hike75'
p457
S'Boulder River Trail'
p458
sS'hike2542'
p459
S"Liberty, Lion's Gulch, and Billy Goat OHV Trail"
p460
sS'hike2543'
p461
S'High Lakes Trail to Chain of Lakes Campground'
p462
sS'hike2540'
p463
S'Goss Lake Loop'
p464
sS'hike71'
p465
S'Meadowdale Beach Trails'
p466
sS'hike2032'
p467
S'Beal Hill Loop'
p468
sS'hike2033'
p469
S'Tucannon River Scenic Drive'
p470
sS'hike2030'
p471
S'Fullbright Park to Ahtanum Ridge'
p472
sS'hike2031'
p473
S'Castle Lake'
p474
sS'hike2036'
p475
S'Main Tiger Mountain Road, OTG, Fully Rigid, Joy Ride and Northwest Timber Loop'
p476
sS'hike2037'
p477
S'Robinson Canyon Loop'
p478
sS'hike2034'
p479
S'Crystal Lake Trail'
p480
sS'hike2035'
p481
S'Welcome Pass from Damfino Lakes via High Divide Trail'
p482
sS'hike2038'
p483
S'Three Way Peak'
p484
sS'hike2039'
p485
S'Lopez Hill'
p486
sS'hike1622'
p487
S'Mystic Lake via Carbon River and Wonderland Trails'
p488
sS'hike1623'
p489
S'Tamanous Trail #27'
p490
sS'hike1620'
p491
S'Red Town Trail to Wildside Trail'
p492
sS'hike1621'
p493
S'Jolly Mountain Lookout Trail #1307'
p494
sS'hike1626'
p495
S'Whitman Mission'
p496
sS'hike1627'
p497
S'Big Tree Ridge, Red Cedars, Surprise Creek, Precipice Top and Military Ridge Trail Loop'
p498
sS'hike1624'
p499
S'Section Line, Nook and Bus Trail '
p500
sS'hike1625'
p501
S'Poe Mountain Trail'
p502
sS'hike1628'
p503
S'Bowl and Pitcher Viewpoint and Trail 100'
p504
sS'hike1629'
p505
S'Mount Constitution From Cascade Lake'
p506
sS'hike2106'
p507
S'Walk - N - Roll and Horse Trail Loop'
p508
sS'hike2107'
p509
S'Alger Truck Trail'
p510
sS'hike2104'
p511
S'Rainier Trail'
p512
sS'hike2105'
p513
S'Doe Falls Trail'
p514
sS'hike2102'
p515
S'Tahoma One Drop Monasteries'
p516
sS'hike2103'
p517
S'High Divide Trail and Cat Basin Primitive Trail to Swimming Bear Lakeway Trail'
p518
sS'hike2100'
p519
S'Methow Valley Community Trail'
p520
sS'hike2101'
p521
S'Mission Peak Via Marion Lake'
p522
sS'hike2108'
p523
S'Crofton Butte Trail'
p524
sS'hike2109'
p525
S'Talapus, Olallie, and Island Lakes via Olallie Lake Trail and Island Rainbow Trail'
p526
sS'hike1136'
p527
S'Hurricane Hill'
p528
sS'hike1137'
p529
S'Beaver Lake Park Trail'
p530
sS'hike1134'
p531
S'Taneum Creek Trail'
p532
sS'hike1135'
p533
S'Centennial Snowshoe Hut via Mount Kit Carson Loop Road'
p534
sS'hike1132'
p535
S'Heather Lake Trail #1526'
p536
sS'hike1133'
p537
S'Windy Pass via the PCT'
p538
sS'hike1130'
p539
S'Buck Creek Trail'
p540
sS'hike1131'
p541
S'May Valley Short Loop'
p542
sS'hike1138'
p543
S'Mine Road Trail'
p544
sS'hike1139'
p545
S'Keechelus Lake via the John Wayne Trail'
p546
sS'hike2218'
p547
S'Olympus Trail to Heritage Trail and Waterline Trail '
p548
sS'hike2219'
p549
S'Mount Pickett via Fortman\xe2\x80\x99s Trail'
p550
sS'hike2212'
p551
S"Martin's Access Trail"
p552
sS'hike2213'
p553
S"Tuffy's Trail"
p554
sS'hike2210'
p555
S'Skagit River: Copper Creek to Rockport'
p556
sS'hike2211'
p557
S'Devils Gulch Loop'
p558
sS'hike2216'
p559
S'Rattlesnake Trail 1114'
p560
sS'hike2217'
p561
S'Kepple Peninsula Interpretive Trail'
p562
sS'hike2214'
p563
S'Table Mountain Ski Tour'
p564
sS'hike2215'
p565
S'Mildred Point via Comet Falls-Van Trump and Wonderland Trail'
p566
sS'hike1008'
p567
S'Equine Loop from Margaret KcKenny Campground via McKenny Trail'
p568
sS'hike1009'
p569
S'1000 Puddles Trail'
p570
sS'hike1002'
p571
S'Lily Basin Trail'
p572
sS'hike1003'
p573
S'Green Mountain via Gold Creek and Wildcat Trails'
p574
sS'hike1000'
p575
S"Schmitz Park Preserve: Seattle's Forest Past"
p576
sS'hike1001'
p577
S'North Fork of the Sol Duc Trail'
p578
sS'hike1006'
p579
S'Trail #25'
p580
sS'hike1007'
p581
S'Beach Trail 2'
p582
sS'hike1004'
p583
S'Shangri La Trail to West Tibbetts Creek Trail and Tibbetts Marsh'
p584
sS'hike1005'
p585
S'Spade Lake Trail'
p586
sS'hike1155'
p587
S'Juanita Bay Park'
p588
sS'hike553'
p589
S'Bean Creek Basin Trail'
p590
sS'hike541'
p591
S'Iron Horse Trail: Upper Twin Falls to Mine Creek'
p592
sS'hike2368'
p593
S'Alder Ridge, Upper Mad River and Chikman Creek OHV Loop'
p594
sS'hike2369'
p595
S'Whale Watch Site Trail'
p596
sS'hike2366'
p597
S'Bald Knob via Trail 131 '
p598
sS'hike2367'
p599
S'Salt Creek Trail'
p600
sS'hike2364'
p601
S'Goat Wall Loop'
p602
sS'hike2365'
p603
S'North Fork Skykomish Trail'
p604
sS'hike2362'
p605
S'Pierce Mountain Way Trail'
p606
sS'hike2363'
p607
S'Vashon Nature Preserve'
p608
sS'hike2360'
p609
S'Naches Peak Ski Tour'
p610
sS'hike2361'
p611
S'Walla Walla River'
p612
sS'hike542'
p613
S'Marymere Falls Trail from Lake Crescent Lodge'
p614
sS'hike1318'
p615
S'Redondo Beach Boardwalk'
p616
sS'hike1319'
p617
S'Cathedral Pass and Deception Pass Loop '
p618
sS'hike1316'
p619
S'Merrill Lake Campground'
p620
sS'hike1317'
p621
S'Wagonroad Trail to Franklin Falls'
p622
sS'hike1314'
p623
S'Ranger Hole Trail'
p624
sS'hike1315'
p625
S'Shadow Mountain Loop Trail'
p626
sS'hike1312'
p627
S'Brownie Trail'
p628
sS'hike1313'
p629
S'Olympic National Park Traverse: Hoh to Quinault'
p630
sS'hike1310'
p631
S'Mount Stuart'
p632
sS'hike1311'
p633
S'Falls Creek Trail Winter Route'
p634
sS'hike439'
p635
S'Spruce Nature Trail'
p636
sS'hike438'
p637
S'Little Mountain Park Loop'
p638
sS'hike547'
p639
S'Millersylvania Northwest Loop'
p640
sS'hike431'
p641
S'Lower South Fork Skokomish Trail'
p642
sS'hike430'
p643
S'Goat Creek Trail'
p644
sS'hike433'
p645
S'Granite Lakes Trail'
p646
sS'hike432'
p647
S'West Tiger #3'
p648
sS'hike435'
p649
S'Observation Peak Trail'
p650
sS'hike434'
p651
S'Quartz Mountain Lookout Trail'
p652
sS'hike437'
p653
S'Kaleetan Peak Trail '
p654
sS'hike436'
p655
S'Tatoosh Ridge Trail'
p656
sS'hike549'
p657
S'Red Town and Wildside Trails'
p658
sS'hike548'
p659
S'Upper and Lower Twin Falls via Twin Falls Trail'
p660
sS'hike981'
p661
S'West, Old Naches, and Land of the Giants Loop'
p662
sS'hike980'
p663
S'Hangman Park Loop'
p664
sS'hike983'
p665
S'North, Beach, South Canyon, Orchard, Juanita, Arrowhead Loop'
p666
sS'hike982'
p667
S'Rainbow Lake via Pratt Lake Trail'
p668
sS'hike329'
p669
S"Herman's Peak"
p670
sS'hike328'
p671
S'Table Mountain Trail via Pacific Crest Trail'
p672
sS'hike987'
p673
S'Cave Hole Trail to Coal Creek Falls Trail'
p674
sS'hike986'
p675
S'Big Huckleberry Mountain'
p676
sS'hike325'
p677
S'Chenuis Falls Trail'
p678
sS'hike988'
p679
S'Lacamas Heritage Trail via Camas Heritage Park'
p680
sS'hike327'
p681
S'Greider Lakes Trail'
p682
sS'hike326'
p683
S'Clara Lake and Marion Lake'
p684
sS'hike321'
p685
S'Silver Peak Trail'
p686
sS'hike320'
p687
S'Upper Lodge to Artist Point Trail'
p688
sS'hike323'
p689
S'Pinnacle Lake Trail'
p690
sS'hike322'
p691
S'Hamilton Mountain Trail'
p692
sS'hike505'
p693
S'Racehorse Falls Trail'
p694
sS'hike504'
p695
S'Noble Knob Trail'
p696
sS'hike507'
p697
S'Gibbons Creek Wildlife Art Trail'
p698
sS'hike506'
p699
S'Cougar Trails Loop'
p700
sS'hike501'
p701
S'Loowit Loop Trail'
p702
sS'hike500'
p703
S'Skyscraper Mountain via Wonderland Trail'
p704
sS'hike503'
p705
S'Paradise Glacier Trail'
p706
sS'hike502'
p707
S'Foothills Trail: Orting to Buckley'
p708
sS'hike1824'
p709
S'Point Whitehorn Trail '
p710
sS'hike1825'
p711
S'Meander Meadow Kodak Peak Trail'
p712
sS'hike1826'
p713
S'Manastash Ridge Trail'
p714
sS'hike1827'
p715
S'Clark Creek Loop Trail'
p716
sS'hike509'
p717
S'Dog Mountain Out and Back Route '
p718
sS'hike508'
p719
S'West Hylebos Wetlands Trail'
p720
sS'hike1822'
p721
S'Gee Point Trail'
p722
sS'hike1823'
p723
S'Moss Lake Loop'
p724
sS'hike2599'
p725
S'Klone Peak OHV Loop'
p726
sS'hike2598'
p727
S'Entiat River OHV Trail'
p728
sS'hike1153'
p729
S'Ridge Loop Trail '
p730
sS'hike2595'
p731
S"Devil's Backbone OHV Trail"
p732
sS'hike2594'
p733
S'Leroy Haagen Memorial Park Loop'
p734
sS'hike2597'
p735
S'Big Rock Trail [CLOSED / PRIVATE PROPERTY]'
p736
sS'hike2596'
p737
S'Sumas Mountain OHV Loop'
p738
sS'hike2591'
p739
S'Saxon OHV Trail'
p740
sS'hike2590'
p741
S'Capital Forest and Waddell OHV Loop'
p742
sS'hike2593'
p743
S'Blue Lake OHV Trail '
p744
sS'hike2592'
p745
S'Tronson Ridge and Miller Peak OHV Trail'
p746
sS'hike189'
p747
S'Tiger Mountain Trail: Preston Railroad Grade to Silent Swamp and Joyride to Northwest Timber'
p748
sS'hike188'
p749
S"Dirty Harry's Balcony via Birdhouse Trail"
p750
sS'hike181'
p751
S'Pratt Lake Trail'
p752
sS'hike180'
p753
S'Wallace Lake Via Woody Trail and Greg Ball Trail'
p754
sS'hike183'
p755
S'Dickerson Falls'
p756
sS'hike182'
p757
S'Sunrise Ridge Trail to Mount Angeles'
p758
sS'hike185'
p759
S'Olympic Hot Springs Trail'
p760
sS'hike184'
p761
S'Rialto Beach Trail'
p762
sS'hike187'
p763
S'Trail 25 and Centennial Trail'
p764
sS'hike186'
p765
S"Clark's Creek Trail "
p766
sS'hike611'
p767
S'Lake Wenatchee Trail'
p768
sS'hike610'
p769
S'Old Snowy Mountain via Snowgrass Trail'
p770
sS'hike613'
p771
S'Mount Forgotten Meadows Trail'
p772
sS'hike612'
p773
S'Trail of the Cedars Nature Walk  '
p774
sS'hike615'
p775
S'Mount Muller Trail'
p776
sS'hike614'
p777
S'Tiger Mountain: Around the Lake Trail'
p778
sS'hike617'
p779
S'Twin Sisters Rock'
p780
sS'hike616'
p781
S'Saltese Uplands Loop'
p782
sS'hike619'
p783
S'Wallace Falls and Wallace Lake Loop'
p784
sS'hike618'
p785
S'Duckabush River to Lacrosse Pass Trail'
p786
sS'hike2681'
p787
S'Walker Valley 31 and BR-38 OHV Trail'
p788
sS'hike2680'
p789
S'Kaner Flat Trail #676'
p790
sS'hike2683'
p791
S'Off The Grid Cahill  [PRIVATE PROPERTY]'
p792
sS'hike2682'
p793
S'Alder Ridge OHV Trail '
p794
sS'hike2685'
p795
S'Oxbow Trail [CLOSED]'
p796
sS'hike2684'
p797
S'Salal Loop'
p798
sS'hike2687'
p799
S'Waterside Path  [CLOSED]'
p800
sS'hike2686'
p801
S'Tower Mountain from South Corkery Road [PRIVATE PROPERTY]'
p802
sS'hike2689'
p803
S'St. Louis Trail'
p804
sS'hike2688'
p805
S'Clearcut Boulders'
p806
sS'hike923'
p807
S'Ski Hill Trail'
p808
sS'hike909'
p809
S'West Tiger Mountain Loop'
p810
sS'hike908'
p811
S'Mount Margaret to Mount Saint Helens'
p812
sS'hike1486'
p813
S'Skagit Wildlife Area'
p814
sS'hike1487'
p815
S'Pretzel Tree Trail'
p816
sS'hike1484'
p817
S'Lewis & Clark Interpertive Loop'
p818
sS'hike1485'
p819
S'White Bluffs South Slope Trail'
p820
sS'hike1482'
p821
S'Chanterelle Trail and Wickersham Truck Road Loop'
p822
sS'hike1483'
p823
S'Rainbow Loop Trail'
p824
sS'hike1480'
p825
S'Bell Point Loop Trail'
p826
sS'hike1481'
p827
S'Twin Lakes Trail'
p828
sS'hike922'
p829
S'Alaska Lake via Gold Creek Trail'
p830
sS'hike1958'
p831
S'Redmond Connector to PSE Trail to Sammamish River Trail Loop'
p832
sS'hike1959'
p833
S'Dodger Point via Long Ridge Trail'
p834
sS'hike1488'
p835
S'Iverson Spit Preserve Loop'
p836
sS'hike1489'
p837
S'Old Mount Si Trail to Teneriffe Trail to Kamikaze Trail Loop'
p838
sS'hike149'
p839
S'Lake Angeles Trail'
p840
sS'hike2270'
p841
S'Mount Challenger: Challenger Glacier Route'
p842
sS'hike2271'
p843
S'Rimrock Drive'
p844
sS'hike1260'
p845
S'Watershed Park Trail'
p846
sS'hike2273'
p847
S'Mount Baldy Ski Tour'
p848
sS'hike1266'
p849
S'Columbia Plateau Trail to Fish Lake'
p850
sS'hike2275'
p851
S'Canal Lake'
p852
sS'hike2276'
p853
S'Bird Mountain Trail'
p854
sS'hike1265'
p855
S'Cattle Point - San Juan Island'
p856
sS'hike1558'
p857
S'Wenatchee Confluence Trail'
p858
sS'hike1559'
p859
S'Miller Peak Trail '
p860
sS'hike1550'
p861
S'Little Giant Pass'
p862
sS'hike1551'
p863
S'Old Ranch Road and Little Maui Trail Loop'
p864
sS'hike1552'
p865
S'Schriebers Meadow via Park Butte Trail 603'
p866
sS'hike1553'
p867
S'Mount Spokane Trail 100 to Smith Gap'
p868
sS'hike1554'
p869
S'Chiwaukum Creek Trail'
p870
sS'hike1555'
p871
S'Golden Lakes Trail'
p872
sS'hike1556'
p873
S'Whistle Punk Trail'
p874
sS'hike1557'
p875
S'Burley Mountain Trail'
p876
sS'hike2025'
p877
S'Canyon Lake and Ridge'
p878
sS'hike2024'
p879
S'Cowiche Canyon Wine Trail'
p880
sS'hike2027'
p881
S'Pinecliff Trail Loop'
p882
sS'hike2026'
p883
S'Seaquest #8, #5, #6, #7 Loop'
p884
sS'hike2021'
p885
S'Glacier Peak: Sitkum Glacier'
p886
sS'hike2020'
p887
S'Westside Road and South Puyallup Trail '
p888
sS'hike2023'
p889
S'Pipeline, Temple Pond and Quarry Loop '
p890
sS'hike2022'
p891
S'Lake Meridian via Soos Creek Trail'
p892
sS'hike2029'
p893
S'Crown Point Vista'
p894
sS'hike2028'
p895
S'Raging Ridge, Invictus, Return Policy Loop'
p896
sS'hike1635'
p897
S'Sand Lake and Deer Lake Trail'
p898
sS'hike1634'
p899
S'Happy Lake Ridge Trail'
p900
sS'hike1637'
p901
S'Luther Burbank Park Loop'
p902
sS'hike1636'
p903
S'Kendall Skyline Road'
p904
sS'hike1631'
p905
S'Gray Wolf Pass'
p906
sS'hike1630'
p907
S'Banner Forest Mountain Bike Loop'
p908
sS'hike1633'
p909
S'Dixie Peak via Teneriffe Trail'
p910
sS'hike1632'
p911
S'Purcell Mountain Trail'
p912
sS'hike1639'
p913
S'Government Meadow to Arch Rock'
p914
sS'hike1638'
p915
S'Sunburst and Porpoise Point Loop'
p916
sS'hike2119'
p917
S'Northrop Homestead '
p918
sS'hike2118'
p919
S'Thorp Lake via Thorp Creek Trail'
p920
sS'hike2111'
p921
S"Jack's Mountain via East Bank Trail "
p922
sS'hike2110'
p923
S'Fifes Ridge Trail'
p924
sS'hike2113'
p925
S'Trail 25'
p926
sS'hike2112'
p927
S'188, Grinder, Techmo and Landtrust Loop '
p928
sS'hike2115'
p929
S'Sand Ridge Trail'
p930
sS'hike2114'
p931
S'Twin Bridges Trail '
p932
sS'hike2117'
p933
S'Squilchuck Trail'
p934
sS'hike2116'
p935
S'Waterline Trail from Lake Boren Park'
p936
sS'hike1129'
p937
S'Preston-Snoqualmie Trail'
p938
sS'hike1128'
p939
S'Shadow of the Sentinels Trail'
p940
sS'hike1121'
p941
S'East Bank and Desolation Trail '
p942
sS'hike1120'
p943
S'Bear Gap to Bullion Basin'
p944
sS'hike1123'
p945
S'James T. Slavin Conservation Area Loop'
p946
sS'hike1122'
p947
S'Waptus Lake via Waptus River Trail'
p948
sS'hike1125'
p949
S'Falls Creek via Quinault Loop Trail'
p950
sS'hike1124'
p951
S'Dosweallips Road to Constance Pass Trail'
p952
sS'hike1127'
p953
S'Cathedral Rock Trail'
p954
sS'hike1126'
p955
S'Mount Si Loop'
p956
sS'hike2209'
p957
S'Rock Shelter Trail'
p958
sS'hike2208'
p959
S'Lake Boren Loop'
p960
sS'hike2205'
p961
S'Middle Fork Snoqualmie River Trail [CLOSED]'
p962
sS'hike2204'
p963
S'Magnet Creek Trail'
p964
sS'hike2207'
p965
S'Bear Creek Trail'
p966
sS'hike2206'
p967
S'Scout Patrol Peak'
p968
sS'hike2201'
p969
S'Scott Pierson Trail'
p970
sS'hike2200'
p971
S'360 Park Ticket to Ride MTB Loop'
p972
sS'hike2203'
p973
S'Raven Trail'
p974
sS'hike2202'
p975
S'O. O. Denny Park, Big Finn Hill Park and Saint Edward State Park'
p976
sS'hike1019'
p977
S'Tin Mine Trail and Davis Trail Loop'
p978
sS'hike1018'
p979
S'Fish Lake Trail'
p980
sS'hike1015'
p981
S'Jetty Island Trail'
p982
sS'hike1014'
p983
S'Ravenna Park Loop Trail'
p984
sS'hike1017'
p985
S'Carne Mountain Trail'
p986
sS'hike1016'
p987
S'Panjab Trail'
p988
sS'hike1011'
p989
S'South Wedge Mountain Trail'
p990
sS'hike1010'
p991
S'Zig Zag Lake Trail'
p992
sS'hike1013'
p993
S'Snake Lake Loop Trail'
p994
sS'hike1012'
p995
S'Gold Creek Trail'
p996
sS'hike692'
p997
S'Red Town Trail'
p998
sS'hike2371'
p999
S'Belfair and Howell Lake OHV Loop'
p1000
sS'hike2370'
p1001
S'Newcastle Highlands Trail'
p1002
sS'hike2373'
p1003
S'7 Peaks of East and South Tiger Mountains'
p1004
sS'hike2372'
p1005
S'Basecamp Loop'
p1006
sS'hike2375'
p1007
S'Silver Star Trail'
p1008
sS'hike2374'
p1009
S'Fir Mountain Trail'
p1010
sS'hike2377'
p1011
S'Grinder Loop'
p1012
sS'hike2376'
p1013
S'Forest Service Road 38 Trail'
p1014
sS'hike2379'
p1015
S'Fauntleroy Park Trail '
p1016
sS'hike2378'
p1017
S'Summit Lake and Grace Lakes'
p1018
sS'hike1301'
p1019
S'Chambers Creek Trail'
p1020
sS'hike1300'
p1021
S'Larch Mountain Loop Trail'
p1022
sS'hike1303'
p1023
S'Heather Creek Trail'
p1024
sS'hike1302'
p1025
S'Mount Shuksan via the Fischer Chimneys Approach'
p1026
sS'hike1305'
p1027
S'Spada Lake Culmback Dam Trail'
p1028
sS'hike1304'
p1029
S'Narbeck Sanctuary Perimeter Trail'
p1030
sS'hike1307'
p1031
S'Union Creek Trail'
p1032
sS'hike1306'
p1033
S'Trapper Creek and Observation Peak Loop '
p1034
sS'hike1309'
p1035
S'Wildside Trail to Shy Bear Trail to Cave Hole Trail '
p1036
sS'hike1308'
p1037
S'Holmberg Conservation Area Loop'
p1038
sS'hike338'
p1039
S'Mount Kit Carson Trail'
p1040
sS'hike339'
p1041
S'Lodge Lake Trail'
p1042
sS'hike998'
p1043
S'Kalaloch to Browns Point Trail'
p1044
sS'hike999'
p1045
S'PCT: WA Section I - Highway 12 to Snoqualmie Pass'
p1046
sS'hike996'
p1047
S'Interlaken Park Loop'
p1048
sS'hike333'
p1049
S'Washington Park Trail'
p1050
sS'hike330'
p1051
S'Clear Creek Trail'
p1052
sS'hike995'
p1053
S'Twin Firs Loop Trail'
p1054
sS'hike336'
p1055
S'Alki Trail'
p1056
sS'hike337'
p1057
S'Bead Lake Trail'
p1058
sS'hike334'
p1059
S'Palisades Trail (#1198)'
p1060
sS'hike335'
p1061
S'McLane Creek Woods Trail'
p1062
sS'hike512'
p1063
S'Lewisville Park Trail'
p1064
sS'hike513'
p1065
S'Easy Pass Trail'
p1066
sS'hike510'
p1067
S'Lake Sylvia Trail'
p1068
sS'hike511'
p1069
S'Hansen Ridge Trail #1020 (Little Saint Helens)'
p1070
sS'hike516'
p1071
S'Grand Ridge Park Trail'
p1072
sS'hike517'
p1073
S'Hyas Lake Trail'
p1074
sS'hike514'
p1075
S'Spider Lake Trail'
p1076
sS'hike515'
p1077
S'Spider Meadow Trail'
p1078
sS'hike1837'
p1079
S'Green River Trail: Tukwila Section'
p1080
sS'hike1836'
p1081
S'South Asotin Trail'
p1082
sS'hike518'
p1083
S'Indian Heavan Trail to Lake Wapiki'
p1084
sS'hike1834'
p1085
S'Swamp Lake Trail'
p1086
sS'hike1833'
p1087
S'Jones Island'
p1088
sS'hike1832'
p1089
S'Meta Lake Trail'
p1090
sS'hike1831'
p1091
S'Juniper Dunes Wilderness Area'
p1092
sS'hike1830'
p1093
S'Glacier Basin to Burroughs Mountain to Wonderland Trail Loop'
p1094
sS'hike196'
p1095
S'Royal Basin Trail'
p1096
sS'hike197'
p1097
S'Granite Lakes Trail'
p1098
sS'hike2562'
p1099
S'Belfuk OHV Loop'
p1100
sS'hike195'
p1101
S'Hidden Falls via Tarbell Trail '
p1102
sS'hike2564'
p1103
S' Chamna Trail'
p1104
sS'hike2565'
p1105
S'Lyman Hill and Mount Josephine OHV Trail'
p1106
sS'hike190'
p1107
S'Robe Canyon Historic Trail'
p1108
sS'hike191'
p1109
S'Lake Stuart Trail'
p1110
sS'hike2568'
p1111
S'Samish Bay Mainline to Oldcamp Loop'
p1112
sS'hike2569'
p1113
S'Foggy Dew OHV Loop'
p1114
sS'hike198'
p1115
S'Sunrise Rim Trail'
p1116
sS'hike199'
p1117
S'Watershed Park Trail'
p1118
sS'hike426'
p1119
S'Copper Creek Trail'
p1120
sS'hike427'
p1121
S'Glenrose Cliff Trails '
p1122
sS'hike424'
p1123
S'Battle Ground Lake Loop Trail'
p1124
sS'hike425'
p1125
S'Nolte State Park Deep Lake'
p1126
sS'hike422'
p1127
S'Starway Trail'
p1128
sS'hike423'
p1129
S'Bare Mountain Trail'
p1130
sS'hike420'
p1131
S'Oyster Dome from Samish Overlook'
p1132
sS'hike421'
p1133
S'Palisades Lakes Trail'
p1134
sS'hike428'
p1135
S'Lower Falls Recreation Area Campground'
p1136
sS'hike429'
p1137
S'Foothills Trail: Puyallup to South Prairie'
p1138
sS'hike332'
p1139
S'South Tiger Mountain Loop'
p1140
sS'hike608'
p1141
S'Mount Constitution Loop Trail'
p1142
sS'hike997'
p1143
S'North Creek Trail'
p1144
sS'hike606'
p1145
S'Madcap Falls Trail'
p1146
sS'hike607'
p1147
S'O. O. Denny County Park Loop Trail'
p1148
sS'hike604'
p1149
S'Steamboat Rock Trail'
p1150
sS'hike605'
p1151
S'Langus River Front Trail'
p1152
sS'hike602'
p1153
S'Tonga Ridge and Mount Sawyer'
p1154
sS'hike994'
p1155
S'Tonga Ridge Trail'
p1156
sS'hike600'
p1157
S'Rock Candy Mountain Trail'
p1158
sS'hike601'
p1159
S'Gold Mine Trail'
p1160
sS'hike331'
p1161
S'Cutthroat Lake and Cutthroat Pass'
p1162
sS'hike992'
p1163
S'Stagman Ridge Trail'
p1164
sS'hike993'
p1165
S'Desolation Peak Trail via Ross Lake'
p1166
sS'hike990'
p1167
S'Bob Bammert Grove Trail'
p1168
sS'hike991'
p1169
S'Silver Lake Wetland Haven'
p1170
sS'hike1499'
p1171
S'Blue Lake Trail'
p1172
sS'hike1498'
p1173
S'Monte Carlo Trail'
p1174
sS'hike1491'
p1175
S'East Tiger Mountain'
p1176
sS'hike1490'
p1177
S'Beach Loop '
p1178
sS'hike1493'
p1179
S'Conrad Meadows Trail'
p1180
sS'hike1492'
p1181
S'360 Project MTB Loop'
p1182
sS'hike1495'
p1183
S'Garfield Ravine Trail'
p1184
sS'hike1494'
p1185
S'North Fork Asotin Creek Trail'
p1186
sS'hike1497'
p1187
S'Freund Canyon Trail'
p1188
sS'hike1496'
p1189
S'Pioneer Park'
p1190
sS'hike1947'
p1191
S"Trout Lake and Jack's Ridge Loop Trail"
p1192
sS'hike1946'
p1193
S'Jim Kaemingk Sr. Trail'
p1194
sS'hike1945'
p1195
S'South Shore Trail'
p1196
sS'hike1944'
p1197
S'Surprise Creek Trail to Shangri La Trail Loop'
p1198
sS'hike1943'
p1199
S'Goat Rocks Three Loop'
p1200
sS'hike1942'
p1201
S'Icicle Creek Trail to Chatter Creek Trail'
p1202
sS'hike1941'
p1203
S'Sunnybrook Meadows Trail'
p1204
sS'hike1940'
p1205
S'Elk Creek Conservation Trail'
p1206
sS'hike1440'
p1207
S'May Valley to Squak Mountain Road Loop '
p1208
sS'hike1949'
p1209
S'Slate Peak to Robinson Pass'
p1210
sS'hike1948'
p1211
S'Snoqualmie River: Fall City to Tolt River Mouth'
p1212
sS'hike1441'
p1213
S'Little Summit from Mountain Lake'
p1214
sS'hike1839'
p1215
S'PCT:  Smith Brook to Stevens Pass'
p1216
sS'hike1446'
p1217
S'Tiffany Mountain Trail'
p1218
sS'hike1838'
p1219
S'Rowland Loop'
p1220
sS'hike1447'
p1221
S'Elbow Peak Via Yellow Hill Trail'
p1222
sS'hike163'
p1223
S'Cal Magnusson Trail'
p1224
sS'hike1444'
p1225
S'Steam Hoist Trail'
p1226
sS'hike162'
p1227
S'Shi Shi Beach Trail'
p1228
sS'hike1445'
p1229
S'Lower Tuscohatchie Lake '
p1230
sS'hike693'
p1231
S'Trail of Two Forests Trail '
p1232
sS'hike519'
p1233
S'Hex Mountain Trail'
p1234
sS'hike695'
p1235
S'Cutthroat Lake Trail'
p1236
sS'hike694'
p1237
S'Sol Duc Falls Nature Trail to Appleton Pass Trail'
p1238
sS'hike165'
p1239
S'Packwood Lake Trail'
p1240
sS'hike164'
p1241
S'Melmont Ghost Town via Foothills Trail'
p1242
sS'hike1549'
p1243
S'Lake Samammish Kayak'
p1244
sS'hike1548'
p1245
S"Central Peak, West Peak, and Debbie's View Loop"
p1246
sS'hike1543'
p1247
S'Rainbow Canyon Trail'
p1248
sS'hike1542'
p1249
S'Copalis River Spit Trail'
p1250
sS'hike1541'
p1251
S'Green Diamond Trail'
p1252
sS'hike1540'
p1253
S'Seep Lakes Wildlife Area Trails'
p1254
sS'hike1547'
p1255
S'River to Rock Trail'
p1256
sS'hike1546'
p1257
S'Blowdown Mountain'
p1258
sS'hike1545'
p1259
S'Xanadu Trail'
p1260
sS'hike1544'
p1261
S'Deadfall Trail'
p1262
sS'hike2560'
p1263
S'Evergreen Woods And Steel OHV Loop'
p1264
sS'hike2168'
p1265
S'Honey Creek Open Space'
p1266
sS'hike2169'
p1267
S'Fort Lewis Area 23 Loop'
p1268
sS'hike2561'
p1269
S'Red Mountain OHV Trail'
p1270
sS'hike2164'
p1271
S'Quarry Trails Loop'
p1272
sS'hike2165'
p1273
S'Echo Lake Loop '
p1274
sS'hike2166'
p1275
S'Master Link and Predator Loop'
p1276
sS'hike2167'
p1277
S'Steamboat Mountain Trail'
p1278
sS'hike2160'
p1279
S'Wenatchee Yellow Hill Trail #1222'
p1280
sS'hike194'
p1281
S'Cascade Pass and Sahale Arm Trail'
p1282
sS'hike2162'
p1283
S'Ridge Loop to Old Indian Loop'
p1284
sS'hike2163'
p1285
S'Sword Fern and Highline Trail'
p1286
sS'hike2563'
p1287
S'Taneum and Manastash Ridge Trail OHV Loop'
p1288
sS'hike1158'
p1289
S'Wonderland Trail Loop'
p1290
sS'hike1159'
p1291
S'Ranger Hole Trail'
p1292
sS'hike1154'
p1293
S'Fishtrap Lake'
p1294
sS'hike192'
p1295
S'Seward Park Perimeter Loop'
p1296
sS'hike1156'
p1297
S'Six Summits Trail'
p1298
sS'hike1157'
p1299
S'Trail of the Deer and Old Growth Forest Trail Loop'
p1300
sS'hike1150'
p1301
S'Flying EagleTrail to Beaver Loop and Big Cedar Loop Trail'
p1302
sS'hike1151'
p1303
S'Nordic Pass Trail'
p1304
sS'hike1152'
p1305
S'Wolf Creek Trail'
p1306
sS'hike193'
p1307
S'Rocks of Sharon Trail'
p1308
sS'hike1798'
p1309
S'Mineral Rock Trail'
p1310
sS'hike1799'
p1311
S'Mainline, Southern Traverse and Cedar Run Loop'
p1312
sS'hike2566'
p1313
S'Manastash OHV Loop'
p1314
sS'hike1792'
p1315
S'Rocky Creek Conservation Area Trails'
p1316
sS'hike1793'
p1317
S'Colman Park to Seward Park'
p1318
sS'hike1790'
p1319
S'Mission Ridge Trail'
p1320
sS'hike2567'
p1321
S'Shoestring And Upper Kaner Westbound OHV Trail'
p1322
sS'hike1796'
p1323
S'Three Forks Snoqualmie River Trail'
p1324
sS'hike1797'
p1325
S'Mount Rainier Eastside Trail'
p1326
sS'hike1794'
p1327
S'White Chuck Bench Trail'
p1328
sS'hike1795'
p1329
S'Quartz Creek Big Trees Trail'
p1330
sS'hike1872'
p1331
S'Placid Lake Trail'
p1332
sS'hike2304'
p1333
S"Grandma's Cove"
p1334
sS'hike2305'
p1335
S'Finley Canyon Loop'
p1336
sS'hike2306'
p1337
S'Trustland Trails'
p1338
sS'hike2307'
p1339
S'Burch Mountain Trail'
p1340
sS'hike2300'
p1341
S'Jakles Lagoon '
p1342
sS'hike2301'
p1343
S'Bluff Lake Trail'
p1344
sS'hike859'
p1345
S'Evans Creek OHV Loop '
p1346
sS'hike858'
p1347
S'Goat Marsh'
p1348
sS'hike857'
p1349
S'Baker Hot Springs'
p1350
sS'hike856'
p1351
S'Dock Butte Trail'
p1352
sS'hike855'
p1353
S'Squak Mountain Road to Bullitt Gorge Trail Loop'
p1354
sS'hike854'
p1355
S'Mountain Loop Highway'
p1356
sS'hike853'
p1357
S'Beaver Lake Hike Trail'
p1358
sS'hike852'
p1359
S'Carkeek Park via Pipers Creek Trail'
p1360
sS'hike851'
p1361
S'McCormick Forest Park Loop'
p1362
sS'hike850'
p1363
S'Cross Kirkland Corridor'
p1364
sS'hike1374'
p1365
S'Geneva Pond Loop'
p1366
sS'hike1375'
p1367
S'West Lake Mills Trail'
p1368
sS'hike1376'
p1369
S'Chetwoot Lake Trail via West Fork Foss Lakes Trail'
p1370
sS'hike1377'
p1371
S'Happy Creek Forest Walk Trail'
p1372
sS'hike1370'
p1373
S'Whitaker Peak and Shy Bear Loop Trail to Doughty Falls'
p1374
sS'hike1371'
p1375
S'Dry Creek Trail'
p1376
sS'hike1372'
p1377
S'Mount Carrie: High Divide Trail Route'
p1378
sS'hike1373'
p1379
S'Kamiak Butte Primative Trail'
p1380
sS'hike1331'
p1381
S'Lake Edna via Chatter Creek Trail'
p1382
sS'hike1378'
p1383
S'North Rim Trail to Rock Candy Mountain East Trail'
p1384
sS'hike1379'
p1385
S'Sunrise Peak Trail'
p1386
sS'hike295'
p1387
S'Boulder Cave Trail'
p1388
sS'hike294'
p1389
S'Quinault River Pony Bridge Trail'
p1390
sS'hike297'
p1391
S'Pete Lake'
p1392
sS'hike296'
p1393
S'Painted Rocks Nature Trail'
p1394
sS'hike291'
p1395
S'McDonald Mountain Trail'
p1396
sS'hike290'
p1397
S'Skookum Flats Trail'
p1398
sS'hike293'
p1399
S'Keekwulee Falls via Denny Creek Trail'
p1400
sS'hike292'
p1401
S'Thunder Mountain Lakes Trail'
p1402
sS'hike299'
p1403
S'Wonderland Trail to Carter Falls and Narada Falls'
p1404
sS'hike298'
p1405
S'Sheep Lake Trail'
p1406
sS'hike2418'
p1407
S'Ikeny Lake Trail to Big Creek Trail'
p1408
sS'hike2419'
p1409
S'Tonga Ridge OHV Trail'
p1410
sS'hike1297'
p1411
S'Surprise Lake Trail'
p1412
sS'hike2410'
p1413
S'Tiger Mountain and Cable Line Trail'
p1414
sS'hike2411'
p1415
S'Elk Mountain from Deer Pass Campground'
p1416
sS'hike2412'
p1417
S'Mink Lake Trail to Bogachiel River and Slide Peak Route #2'
p1418
sS'hike2413'
p1419
S'American Ridge Trail'
p1420
sS'hike2414'
p1421
S'Naches and Greenwater OHV Trail'
p1422
sS'hike2415'
p1423
S'Stinger, Route 66 and Lower Beaver Tracks'
p1424
sS'hike2416'
p1425
S'Raven Roost OHV Trail'
p1426
sS'hike2417'
p1427
S'Balfour-Klickitat Loop'
p1428
sS'hike1208'
p1429
S'Blue Lake Trail'
p1430
sS'hike1209'
p1431
S'Smithbrook Trail'
p1432
sS'hike1200'
p1433
S'Central Whidbey Island: Coupeville and Fort Casey'
p1434
sS'hike1201'
p1435
S'Teddy Bear Cove via Interurban Trail '
p1436
sS'hike1202'
p1437
S'Waughop Lake Trail'
p1438
sS'hike1203'
p1439
S'Art Walk Trail'
p1440
sS'hike1204'
p1441
S'English Pond, Red Barn, and Easy 8 Loop Trail'
p1442
sS'hike1205'
p1443
S'Fragrance Lake via Two Dollar Trail from Cleator Road'
p1444
sS'hike1206'
p1445
S'Long View Peak Trail'
p1446
sS'hike1207'
p1447
S'Marten Lake Trail'
p1448
sS'hike1802'
p1449
S'Driveway Butte Trail'
p1450
sS'hike1803'
p1451
S'Dalles Ridge Trail Via Noble Knob Trail'
p1452
sS'hike1800'
p1453
S'Trout Loop Trail'
p1454
sS'hike1801'
p1455
S'Selah Cliffs Preserve Trail'
p1456
sS'hike1806'
p1457
S'White Pass Scenic Byway'
p1458
sS'hike1807'
p1459
S'Bluebird Hiking Trail'
p1460
sS'hike1804'
p1461
S"South Ridge, Hillside, Brick Road and Piper's Creek Trail "
p1462
sS'hike1805'
p1463
S'Cassidy Creek'
p1464
sS'hike1808'
p1465
S'Graves Creek Trail'
p1466
sS'hike1809'
p1467
S'Bulitt Access Trail to Summit'
p1468
sS'hike2573'
p1469
S'Alger Mountain Bike Trail'
p1470
sS'hike2572'
p1471
S'Walker, Spilt Rock, and Bald Mountain OHV Loop'
p1472
sS'hike2571'
p1473
S'Manastash OHV Trail'
p1474
sS'hike2570'
p1475
S'Nooksack River North Fork OHV Trail'
p1476
sS'hike2577'
p1477
S'Taneum Creek and Road 1334 OHV Loop'
p1478
sS'hike2576'
p1479
S'Route 410, RD 1712-665, and RD 1713 OHV Trail'
p1480
sS'hike2575'
p1481
S'Bald Mountain OHV Loop'
p1482
sS'hike2574'
p1483
S'Tahuya River, Mission Creek, Overland and Salmon 4wd Trail '
p1484
sS'hike2579'
p1485
S'North Fork and Nooksack OHV Trail'
p1486
sS'hike2578'
p1487
S'Mount Clifty and Quartz Mountain OHV Loop'
p1488
sS'hike565'
p1489
S'Norse Peak Trail'
p1490
sS'hike453'
p1491
S'Gazzam Lake Park Trail'
p1492
sS'hike452'
p1493
S'Penrose Point State Park Trail'
p1494
sS'hike451'
p1495
S'Kubota Garden Natural Area Trails'
p1496
sS'hike450'
p1497
S'Granite Falls (Fish Ladder) Trail'
p1498
sS'hike457'
p1499
S'Capitol Lake Trail'
p1500
sS'hike456'
p1501
S'Frenchman Coulee'
p1502
sS'hike455'
p1503
S'Echo Lake via Greenwater Trail'
p1504
sS'hike454'
p1505
S'Lookout Mountain'
p1506
sS'hike459'
p1507
S'Des Moines Creek Trail'
p1508
sS'hike458'
p1509
S'Humes Ranch Loop Trail'
p1510
sS'hike1457'
p1511
S'Bells View Overlook Trail'
p1512
sS'hike609'
p1513
S'Tahoma Creek Suspension Bridge'
p1514
sS'hike679'
p1515
S'Blue Lake and Dock Butte Trail'
p1516
sS'hike678'
p1517
S'Gladys Divide Primitive Trail'
p1518
sS'hike673'
p1519
S'Tolt-MacDonald Overlook'
p1520
sS'hike672'
p1521
S'Cora Lake Trail'
p1522
sS'hike671'
p1523
S'Third Beach to Hoh River'
p1524
sS'hike670'
p1525
S'Mazama Ridge Trail to Faraway Rock'
p1526
sS'hike677'
p1527
S'Guemes Mountain'
p1528
sS'hike676'
p1529
S'Cedar Falls Trail'
p1530
sS'hike675'
p1531
S'Round Lake and Camas Potholes Falls via Lacmas Creek'
p1532
sS'hike674'
p1533
S'Indian Painted Rock and Knothead Valley Loop'
p1534
sS'hike603'
p1535
S'Evolution, Unemployment Line, and Atomic Dog Trail'
p1536
sS'hike569'
p1537
S'Hannegan Peak Trail'
p1538
sS'hike568'
p1539
S'Mowich Lake to Mystic Lake Trail'
p1540
sS'hike1978'
p1541
S'Skagit Nature Trail Loop'
p1542
sS'hike1979'
p1543
S'Blythe Lake and Coulee Trail'
p1544
sS'hike1972'
p1545
S'Chuckanut Falls'
p1546
sS'hike1973'
p1547
S'West Cady Ridge Trail to Bench Mark Mountain'
p1548
sS'hike1970'
p1549
S'Boy Scout Trail and Umatilla Rock Trail Loop'
p1550
sS'hike1971'
p1551
S'Old Loop and Rhodie Trail'
p1552
sS'hike1976'
p1553
S"Antoine's Summit Trail"
p1554
sS'hike1977'
p1555
S'Sqebeqsed Trail'
p1556
sS'hike1974'
p1557
S'Cook Hill Loop'
p1558
sS'hike1975'
p1559
S'Bovies Meadow Trail'
p1560
sS'hike707'
p1561
S'Evergreen Lookout Trail'
p1562
sS'hike706'
p1563
S'Merritt Lake Trail'
p1564
sS'hike705'
p1565
S'Blake Island State Park Trails'
p1566
sS'hike704'
p1567
S'Ancient Groves Nature Trail'
p1568
sS'hike703'
p1569
S'Iron Bear Trail #1351'
p1570
sS'hike702'
p1571
S'Seahurst Park Loop Trail'
p1572
sS'hike701'
p1573
S'Grand Prospect Via Rattlesnake Mountain Trail'
p1574
sS'hike700'
p1575
S'Mildred Lakes Trail'
p1576
sS'hike709'
p1577
S'Harmony Trail'
p1578
sS'hike708'
p1579
S'Point No Point Lighthouse and Park Trail'
p1580
sS'hike1578'
p1581
S'Hayden Pass Trail'
p1582
sS'hike1579'
p1583
S'Lone Goat Mountain Via Skyline Trail'
p1584
sS'hike1576'
p1585
S'Little Ranger Peak Trail'
p1586
sS'hike1577'
p1587
S'Cama Beach Marine View Loop and Cranberry Lake'
p1588
sS'hike1574'
p1589
S'Buck Creek Trail'
p1590
sS'hike1575'
p1591
S'Elbow Lake Trail'
p1592
sS'hike1572'
p1593
S'Sumas Mountain, P-1000, and P-1200 OHV Trail'
p1594
sS'hike1573'
p1595
S'Rabbit Trail to Echo Point to Three Lakes Trail Loop'
p1596
sS'hike1570'
p1597
S'Queets River Road'
p1598
sS'hike1571'
p1599
S'Faraway Rock via Reflection Lakes'
p1600
sS'hike929'
p1601
S'Mount Persis West Ridge Trail'
p1602
sS'hike928'
p1603
S'Lakemont Trail'
p1604
sS'hike2179'
p1605
S'Lacmas Creek to Camino Potholes via Lake to Lake Trail'
p1606
sS'hike2178'
p1607
S'Fourth Crossing Trail'
p1608
sS'hike2177'
p1609
S'Tarbell Trail Hidden Falls '
p1610
sS'hike2176'
p1611
S'Lightning Creek Trail'
p1612
sS'hike2175'
p1613
S'Estes Butte Trail'
p1614
sS'hike2174'
p1615
S'Red Hill Trail'
p1616
sS'hike2173'
p1617
S'Rasar State Park to Skagit River Woods Loop'
p1618
sS'hike2172'
p1619
S'Old Man Pass Loop'
p1620
sS'hike2171'
p1621
S'Crescent Beach Trail'
p1622
sS'hike2170'
p1623
S'Silver Falls via Silver Falls Trail'
p1624
sS'hike1149'
p1625
S'Point of the Arches Trail'
p1626
sS'hike1148'
p1627
S'Hozomeen Lake Trail'
p1628
sS'hike1147'
p1629
S'Bald Knob - CCC Cabin Trail'
p1630
sS'hike1146'
p1631
S'Walupt Lake Trail'
p1632
sS'hike1145'
p1633
S'Grays Harbor National Wildlife Refuge'
p1634
sS'hike1144'
p1635
S'Trillium Trail Loop'
p1636
sS'hike1143'
p1637
S'Kelcema Lake Trail'
p1638
sS'hike1142'
p1639
S'John MacDonald Park Mountain Bike Trails Loop'
p1640
sS'hike1141'
p1641
S'Ruby Mountain Summit via Fourth of July and Thunder Creek Trail '
p1642
sS'hike1140'
p1643
S'Twin Sisters Trail and Tumac Mountain'
p1644
sS'hike1789'
p1645
S'Green Mountain via Sitka Spruce Trail'
p1646
sS'hike1788'
p1647
S'Esmeralda Basin Trail'
p1648
sS'hike1785'
p1649
S'Goat Mountain Trail'
p1650
sS'hike1784'
p1651
S'Bloedel Reserve Loop'
p1652
sS'hike1787'
p1653
S'Lake Margaret via Icicle Creek and Wildhorse Trail'
p1654
sS'hike1786'
p1655
S'Slide Mountain Fossil Beds'
p1656
sS'hike1781'
p1657
S"Nature Trail, Little Mountain and Lower Surfer's Way"
p1658
sS'hike1780'
p1659
S'Kopachuck Nature Loop'
p1660
sS'hike1783'
p1661
S'Bogachiel River and Ira Springs Wetland Loop'
p1662
sS'hike1782'
p1663
S'Slavin Pond Trail'
p1664
sS'hike1295'
p1665
S'Iron Peak Trail #1399'
p1666
sS'hike1323'
p1667
S'Cougar Mountain Loop Trail'
p1668
sS'hike881'
p1669
S'Goat Peak Lookout Trail'
p1670
sS'hike882'
p1671
S'Loop Trail via West Emerson Street Entrance'
p1672
sS'hike1320'
p1673
S'Farrel-McWhirter Park / Juel Park'
p1674
sS'hike1327'
p1675
S'Steptoe Butte'
p1676
sS'hike885'
p1677
S'Carbon Trail to Bearhead Trail'
p1678
sS'hike1325'
p1679
S'Vanson Peak Trail Via Goat Creek Trail Loop'
p1680
sS'hike1324'
p1681
S'Licorice Fern Trail'
p1682
sS'hike98'
p1683
S'Iller Creek Conservation Area Trail'
p1684
sS'hike99'
p1685
S'Enchanted Valley Chalet via East Fork Quinault River Trail'
p1686
sS'hike94'
p1687
S'Palouse Falls Trail'
p1688
sS'hike95'
p1689
S'Park Butte Lookout Trail '
p1690
sS'hike96'
p1691
S"Margaret's Way Trail"
p1692
sS'hike97'
p1693
S'Fragrance Lake Trail'
p1694
sS'hike90'
p1695
S'Icicle Ridge Trail (#1570)'
p1696
sS'hike91'
p1697
S'Wind Mountain Trail'
p1698
sS'hike92'
p1699
S'Diablo Lake Trail'
p1700
sS'hike93'
p1701
S'Lake to Lake Trail, Red Tape Trail, Palmer Trail to Round Lake Loop'
p1702
sS'hike2317'
p1703
S'Surprise Creek Trail'
p1704
sS'hike2316'
p1705
S'Snoqualmie, Deer Lake, Bear Lake and Dorothy Lake via Taylor River Trail'
p1706
sS'hike2315'
p1707
S'Mount Kit Carson Loop Road, Trail 140 and Trail 110 Loop'
p1708
sS'hike2314'
p1709
S'Silent Creek Trail and Deep Creek Trail'
p1710
sS'hike2313'
p1711
S'Putney Woods Loop'
p1712
sS'hike2312'
p1713
S'Rock Hill Loop'
p1714
sS'hike2311'
p1715
S'Riverview Playfield Trail'
p1716
sS'hike2310'
p1717
S'Mission Peak Loop'
p1718
sS'hike844'
p1719
S'Kelsey Creek Farm'
p1720
sS'hike845'
p1721
S'Longs Pass Trail'
p1722
sS'hike846'
p1723
S'Little Mashel Falls Trail via Bud Blancher Trail'
p1724
sS'hike847'
p1725
S'Lake George Trail'
p1726
sS'hike840'
p1727
S'Baker River Trail'
p1728
sS'hike841'
p1729
S'Pyramid Lake Trail'
p1730
sS'hike842'
p1731
S'Pine Bluff Loop'
p1732
sS'hike843'
p1733
S'Red Town Trail'
p1734
sS'hike1367'
p1735
S'Trout Lake and Copper Lake via West Fork Foss Lakes Trail'
p1736
sS'hike1366'
p1737
S'Falls Creek and Quinault Loop Trail'
p1738
sS'hike1365'
p1739
S'Crater Lakes Trail'
p1740
sS'hike1364'
p1741
S'Gazzam Lake and Veterane Open Space Preserves'
p1742
sS'hike1363'
p1743
S'Main Trail and Pipeline Trail Loop'
p1744
sS'hike1362'
p1745
S'Sequalitchew Loop'
p1746
sS'hike1361'
p1747
S"May's Creek Trail "
p1748
sS'hike1360'
p1749
S'Stubblefield Lake Loop'
p1750
sS'hike1369'
p1751
S'Paddy-Go-Easy Pass Trail'
p1752
sS'hike1368'
p1753
S'Interurban Trail'
p1754
sS'hike282'
p1755
S'Winchester Mountain Trail'
p1756
sS'hike283'
p1757
S'Red Mountain via Old Commonwealth Trail'
p1758
sS'hike280'
p1759
S'De Leo Wall Trail'
p1760
sS'hike281'
p1761
S'Kendall Peak Lakes Trail'
p1762
sS'hike286'
p1763
S'Mud Mountain Rim Trail'
p1764
sS'hike287'
p1765
S'Whipple Creek Park Loop Trail'
p1766
sS'hike284'
p1767
S'Burke-Gilman Trail: Ballard Bridge to Bothell'
p1768
sS'hike285'
p1769
S'Surprise Creek Trail to Surprise and Glacier Lakes '
p1770
sS'hike288'
p1771
S'North Siouxon Creek to Black Hole Falls'
p1772
sS'hike289'
p1773
S"Trillium Trail and Siler's Mill Trail"
p1774
sS'hike2409'
p1775
S'East Fork Satsop River Loop'
p1776
sS'hike2408'
p1777
S'Tibbetts Mountain via USFS 112 Road'
p1778
sS'hike2403'
p1779
S'Gypsy Peak via Sullivan Creek Road'
p1780
sS'hike2402'
p1781
S"Lower Pete's Creek Trail"
p1782
sS'hike2401'
p1783
S'Kangaroo Temple '
p1784
sS'hike2400'
p1785
S'Al Davis Trail, Waddell Basin West and Quarry Loop'
p1786
sS'hike2407'
p1787
S'Welcome Pass via High Divide Trail'
p1788
sS'hike2406'
p1789
S'Camelot Spur and Cook Ferry Trail'
p1790
sS'hike2405'
p1791
S'Mount Jupiter Trail [CLOSED]'
p1792
sS'hike2404'
p1793
S'Little Wenatchee Trail'
p1794
sS'hike1219'
p1795
S'Lower Falls via Lake to Lake Trail'
p1796
sS'hike1218'
p1797
S'Norway Pass Trail Out-and-Back'
p1798
sS'hike1213'
p1799
S'Little Quilcene Trail (historical)'
p1800
sS'hike1212'
p1801
S'Ohanapecosh and Stafford Falls Trail'
p1802
sS'hike1211'
p1803
S'Shark Reef Recreation Area'
p1804
sS'hike1210'
p1805
S'Main Fork Dosewallips River Trail'
p1806
sS'hike1217'
p1807
S'Goat Lake Trail'
p1808
sS'hike1216'
p1809
S'Foulweather Bluff Preserve Trail'
p1810
sS'hike1215'
p1811
S'Mountain Lake'
p1812
sS'hike1214'
p1813
S'Shipwreck Coast'
p1814
sS'hike1815'
p1815
S'Wenatchee River (Whitewater)'
p1816
sS'hike1814'
p1817
S'Clallam Bay to Neah Bay Scenic Drive'
p1818
sS'hike1817'
p1819
S'Klondike Swamp Trail'
p1820
sS'hike1816'
p1821
S'Bear Creek Mountain Trail'
p1822
sS'hike1811'
p1823
S'Lakemont Loop Trail'
p1824
sS'hike1810'
p1825
S'Shuksan Lake Trail'
p1826
sS'hike1813'
p1827
S'Badger Mountain from East 210 PR NE'
p1828
sS'hike1812'
p1829
S'South Little Mountain Lollipop '
p1830
sS'hike1819'
p1831
S'Three Peaks Trail to Lost Lake'
p1832
sS'hike1818'
p1833
S'Crab Creek'
p1834
sS'hike2546'
p1835
S'Benton City Walking Path'
p1836
sS'hike2547'
p1837
S'Saint Martins Mineral Hot Springs [PRIVATE PROPERTY]'
p1838
sS'hike74'
p1839
S'Mount Fremont Lookout Trail'
p1840
sS'hike2545'
p1841
S'Mission Creek and Tahuya River OHV Trail'
p1842
sS'hike72'
p1843
S'Teneriffe Falls via Mount Si Trailhead'
p1844
sS'hike73'
p1845
S'Ruby Beach'
p1846
sS'hike70'
p1847
S'Sequalitchew Creek Trail'
p1848
sS'hike2541'
p1849
S'Fortune Creek and Gallagher Head Lake OHV Trail'
p1850
sS'hike2548'
p1851
S'Little Bald Mountain OHV Loop'
p1852
sS'hike2549'
p1853
S'Lost Lake, Sqebeqsed Trail, Andrews Bay Trail, Woodpecker Trail'
p1854
sS'hike440'
p1855
S'Lake Stuart and Colchuck Lake Trail'
p1856
sS'hike441'
p1857
S'Illahee Preserve Loop Trail'
p1858
sS'hike442'
p1859
S'Banner Forest Heritage Park Loop'
p1860
sS'hike443'
p1861
S'Rainy Lake Trail'
p1862
sS'hike444'
p1863
S'Van Trump Park Trail to Comet Falls'
p1864
sS'hike445'
p1865
S'Manastash Ridge Trail'
p1866
sS'hike446'
p1867
S'Deer Lake Trail'
p1868
sS'hike447'
p1869
S'Dege Peak Trail'
p1870
sS'hike448'
p1871
S'Waughop Lake Loop '
p1872
sS'hike449'
p1873
S'Flaming Geyser State Park Trail'
p1874
sS'hike668'
p1875
S'Pass Lake Loop Trail to Ginnet Trail Loop'
p1876
sS'hike669'
p1877
S'Little Cranberry Lake Outer Loop'
p1878
sS'hike1443'
p1879
S'CCC Road Trail via Blowout Creek Trailhead'
p1880
sS'hike660'
p1881
S'Cispus Pass Loop Trail'
p1882
sS'hike661'
p1883
S'Southwest Park Trail'
p1884
sS'hike662'
p1885
S'Cowiche Canyon Trail'
p1886
sS'hike663'
p1887
S'Hoh River Trail to Blue Glacier Trail'
p1888
sS'hike664'
p1889
S'Takhlakh Lake and Meadows Trail'
p1890
sS'hike665'
p1891
S'Dusty Lake Trail'
p1892
sS'hike666'
p1893
S'Lowell Riverfront Trail'
p1894
sS'hike667'
p1895
S'Foster Island Trail'
p1896
sS'hike1969'
p1897
S'Rugged Ridge to Indian Pass Trail'
p1898
sS'hike1968'
p1899
S'Boundary Trail to South Coldwater Trail'
p1900
sS'hike1965'
p1901
S'Bear Ridge Trail to Coal Creek Falls and Cave Hole Loop'
p1902
sS'hike1964'
p1903
S'Dusty and Ancient Lakes via Gorge Oasis '
p1904
sS'hike1967'
p1905
S'Hidden Cove Trail #4'
p1906
sS'hike1966'
p1907
S'Point Defiance Park Inner Loop'
p1908
sS'hike1961'
p1909
S'Forbidden Peak Trail'
p1910
sS'hike1960'
p1911
S'Moses Coulee Trail'
p1912
sS'hike1963'
p1913
S'Colockum Road'
p1914
sS'hike1962'
p1915
S'Hoh River and Jackson Creek Trail'
p1916
sS'hike714'
p1917
S'Olallie Lake via Pratt Lake Trail'
p1918
sS'hike715'
p1919
S"Mount Daniel and Peggy's Pond via Cathedral Pass Trail"
p1920
sS'hike716'
p1921
S'Turtle Rock and Bedrock Ridge Loop'
p1922
sS'hike717'
p1923
S'South Beach Trail'
p1924
sS'hike710'
p1925
S'Patterson Mountain Trail'
p1926
sS'hike711'
p1927
S'Cape Disappointment Lighthouse Trail'
p1928
sS'hike712'
p1929
S'Lava Canyon Suspension Bridge'
p1930
sS'hike713'
p1931
S'North Fork Skokomish River Trail'
p1932
sS'hike718'
p1933
S'Weldon Wagon Road Trail'
p1934
sS'hike719'
p1935
S'Fort Flagler Trail'
p1936
sS'hike1561'
p1937
S'Klonaqua Lakes'
p1938
sS'hike1560'
p1939
S'Snoqualmie Point Park'
p1940
sS'hike1563'
p1941
S'Bear Ridge Trail'
p1942
sS'hike1562'
p1943
S'Rainier View Trail'
p1944
sS'hike1565'
p1945
S'Deep Lake and Lake Vicente'
p1946
sS'hike1564'
p1947
S'Mount Bonaparte Trail'
p1948
sS'hike1567'
p1949
S'Grist Mill Loop'
p1950
sS'hike1566'
p1951
S'Long Island Trails'
p1952
sS'hike1569'
p1953
S'Similkameen Trail'
p1954
sS'hike1568'
p1955
S'Bill Chipman Palouse Trail: Pullman to Moscow'
p1956
sS'hike2142'
p1957
S'The East Wing'
p1958
sS'hike2143'
p1959
S'Centennial Walk'
p1960
sS'hike2140'
p1961
S'Castle Traverse'
p1962
sS'hike2141'
p1963
S'Cameron Creek via Three Forks Trail'
p1964
sS'hike2146'
p1965
S'Bedal Creek Trail'
p1966
sS'hike2147'
p1967
S'Mount Adams Climb to Riley Creek/FR # 23'
p1968
sS'hike2144'
p1969
S'RIver Quarry Road, Quarry, River, and Pipeline Trail '
p1970
sS'hike2145'
p1971
S'Blewett Pass Scenic Drive: Peshastin to Ellensburg'
p1972
sS'hike2148'
p1973
S'Sherman Pass Scenic Byway'
p1974
sS'hike2149'
p1975
S'Madrone Trail'
p1976
sS'hike1172'
p1977
S'Seven Mile Loop'
p1978
sS'hike1173'
p1979
S'Big Creek Falls Trail'
p1980
sS'hike1170'
p1981
S'Tennant Lake Trail'
p1982
sS'hike1171'
p1983
S'360 Project Main Trail'
p1984
sS'hike1176'
p1985
S'Mima Falls Trail and McKenny Trail Loop from Margaret McKenny Campground'
p1986
sS'hike1177'
p1987
S'Little Kachess Trail'
p1988
sS'hike1174'
p1989
S'Ellen Davis Trail'
p1990
sS'hike1175'
p1991
S'Snoqualmie Valley Trail'
p1992
sS'hike1178'
p1993
S'Volunteer Park Loop'
p1994
sS'hike1179'
p1995
S'Riverside State Park Rattlesnake Trail'
p1996
sS'hike1770'
p1997
S'Edgar Rock from Lost Creek Road'
p1998
sS'hike1771'
p1999
S'Snohomish River Sloughs'
p2000
sS'hike1772'
p2001
S'Beach Trail'
p2002
sS'hike1773'
p2003
S'Shellrock Lake Trail'
p2004
sS'hike1774'
p2005
S'Mount Angeles via Switchback Trail'
p2006
sS'hike1775'
p2007
S'Forest Lake Via Huckleberry Creek and Sourdough Ridge Trails'
p2008
sS'hike1776'
p2009
S'Green Giant Buttress: Dreamer and Giant Tears Route'
p2010
sS'hike1777'
p2011
S'Squak Mountain Connector Trail to Wilderness Creek'
p2012
sS'hike1778'
p2013
S'Noble Knob Northern Approach'
p2014
sS'hike1779'
p2015
S'Lake Union Waterfront Walkway: Northwest Seaport'
p2016
sS'hike2094'
p2017
S'Green Mountain from Deer Park Campground'
p2018
sS'hike2095'
p2019
S'Northwest Timber Trail to Preston Railroad Grade and East Tiger Summit to Main Tiger Mountain Road'
p2020
sS'hike2096'
p2021
S'Wobbly Lake Trail'
p2022
sS'hike2097'
p2023
S'Leech Lake to Tacoma Pass'
p2024
sS'hike2090'
p2025
S'China Creek Trail'
p2026
sS'hike2091'
p2027
S'Copper Butte Trail'
p2028
sS'hike2092'
p2029
S'Cougar Canyon'
p2030
sS'hike2093'
p2031
S'Pear Lake via Top Lake Trail'
p2032
sS'hike2098'
p2033
S'Howard Lake via PCT'
p2034
sS'hike2099'
p2035
S'Lewis & Clark Trail State Park Nature Loop'
p2036
sS'hike1684'
p2037
S'Tree Frog Loop Trail'
p2038
sS'hike1685'
p2039
S'Victor Falls Trail'
p2040
sS'hike1686'
p2041
S'Stinger, Once Upon a Time and Rabbit Role'
p2042
sS'hike1687'
p2043
S'Marsh Interpretive Trail'
p2044
sS'hike1680'
p2045
S'Anderson Butte Trail'
p2046
sS'hike1681'
p2047
S'Umatilla Rock Hike'
p2048
sS'hike1682'
p2049
S'River Loop to Sandifur Bridge'
p2050
sS'hike1683'
p2051
S'Thunder Creek, Fourth of July, and Panther Creek Trail'
p2052
sS'hike1688'
p2053
S'Cape Disappointment North Head Trail'
p2054
sS'hike1689'
p2055
S'Chikamin Peak: South Slope'
p2056
sS'hike89'
p2057
S'Skyline Divide Trail'
p2058
sS'hike88'
p2059
S'Mount Walker'
p2060
sS'hike83'
p2061
S'Silver Star Mountain via Grouse Vista Trail'
p2062
sS'hike82'
p2063
S"Harry's Ridge Trail"
p2064
sS'hike81'
p2065
S'Point Defiance Park Outer Loop'
p2066
sS'hike80'
p2067
S'Staircase Rapids Loop'
p2068
sS'hike87'
p2069
S'Icicle Gorge Trail'
p2070
sS'hike86'
p2071
S'Green Mountain Lookout via Gold Creek Trail'
p2072
sS'hike85'
p2073
S'Lime Kiln Trail'
p2074
sS'hike84'
p2075
S'Bandera Mountain Summit'
p2076
sS'hike2328'
p2077
S'Excelsior Pass to Welcome Pass via High Divide Trail'
p2078
sS'hike2329'
p2079
S'The Rendezvous Mountain - Heifer Hut Ski Tour'
p2080
sS'hike2322'
p2081
S'Ranch Trail'
p2082
sS'hike2323'
p2083
S'Roche Harbor Lake Loop'
p2084
sS'hike2320'
p2085
S'Muddy Meadows Trail to Rd # 23'
p2086
sS'hike2321'
p2087
S'Gunn Ranch Trail'
p2088
sS'hike2326'
p2089
S'Alpine Lookout via Merritt Lake Trail to Nason Ridge Trail'
p2090
sS'hike2327'
p2091
S'Lower River Run and Jacks Loop '
p2092
sS'hike2324'
p2093
S'Crowell Ridge Trail #515'
p2094
sS'hike2325'
p2095
S'West Oval Lake Trail '
p2096
sS'hike879'
p2097
S'Bon Jon Pass OHV Route'
p2098
sS'hike878'
p2099
S'Northrup Canyon'
p2100
sS'hike1358'
p2101
S'Dwights Way Trail'
p2102
sS'hike1359'
p2103
S'Chuckanut Drive'
p2104
sS'hike971'
p2105
S'Hazel Wolf Wetlands Trail'
p2106
sS'hike1352'
p2107
S'Copper Glance Lake Trail'
p2108
sS'hike870'
p2109
S'Suntop Trail'
p2110
sS'hike1350'
p2111
S'Council Bluff Trail'
p2112
sS'hike1351'
p2113
S'Twisp Pass Trail'
p2114
sS'hike875'
p2115
S'Juniper Peak Summit Trail'
p2116
sS'hike874'
p2117
S'Snoqualmie Lake via Taylor River Trail'
p2118
sS'hike877'
p2119
S'Hannegan Pass Trail'
p2120
sS'hike1355'
p2121
S'West Fork Dosewallips River Trail'
p2122
sS'hike1198'
p2123
S'Swan Creek Canyon Rim Trail'
p2124
sS'hike1199'
p2125
S'Spokane River Centennial Trail'
p2126
sS'hike973'
p2127
S'May Creek Trail from Lake Boren Park'
p2128
sS'hike1190'
p2129
S'Boundary Trail to Log Jam Trail Loop'
p2130
sS'hike1191'
p2131
S'Upper South Fork Skokomish Trail'
p2132
sS'hike1192'
p2133
S'Sauk Lake Trail'
p2134
sS'hike1193'
p2135
S'Spokane Falls Trail'
p2136
sS'hike1194'
p2137
S'Deception Crags  Trail'
p2138
sS'hike1195'
p2139
S'The Mount Spokane Loop Summer Route'
p2140
sS'hike1196'
p2141
S'French Cabin Creek'
p2142
sS'hike1197'
p2143
S'Spokane River Centennial Trail and 25 Loop'
p2144
sS'hike976'
p2145
S'Kachess Beacon Trail'
p2146
sS'hike279'
p2147
S"Sauer's Mountain"
p2148
sS'hike278'
p2149
S'Silver Lake Way Trail'
p2150
sS'hike277'
p2151
S'Green Mountain via Wildcat Trail'
p2152
sS'hike276'
p2153
S'Woodard Bay Natural Resources Conservation Area Loop Trail'
p2154
sS'hike275'
p2155
S'Malachite Lake via West Fork Foss Lakes Trail'
p2156
sS'hike274'
p2157
S'Anderson Landing Trail'
p2158
sS'hike273'
p2159
S'Deep Creek Loop Trail'
p2160
sS'hike272'
p2161
S'Snoqualmie Mountain'
p2162
sS'hike271'
p2163
S'Goose Rock Trail'
p2164
sS'hike270'
p2165
S'Nathan Chapman Memorial Trail'
p2166
sS'hike979'
p2167
S'Happy Panther Trail'
p2168
sS'hike2438'
p2169
S'North Fork Nooksack Trail'
p2170
sS'hike2439'
p2171
S'Sunset Falls'
p2172
sS'hike2436'
p2173
S'Goat Rocks Traverse'
p2174
sS'hike2437'
p2175
S'Amabilis Mountain Loop'
p2176
sS'hike2434'
p2177
S'Marco Polo Lake Trail'
p2178
sS'hike2435'
p2179
S'Green Gulch Trail'
p2180
sS'hike2432'
p2181
S'Watson Lake toward Mount Watson'
p2182
sS'hike2433'
p2183
S'Quartz Creek, Manastash Creek, Frost Mountain, Taneum Creek, and Greek Creek OHV Loop'
p2184
sS'hike2430'
p2185
S'Fort Ebey Bluff Trail'
p2186
sS'hike2431'
p2187
S'Ahtanum State Forest OHV Route'
p2188
sS'hike1228'
p2189
S'Cascade Trail'
p2190
sS'hike1229'
p2191
S'North Head Trail'
p2192
sS'hike1226'
p2193
S'Falls View Trail'
p2194
sS'hike1227'
p2195
S'Llandover Woods '
p2196
sS'hike1224'
p2197
S'Spirit of America Trail'
p2198
sS'hike1225'
p2199
S'Augspurger Mountain Trail'
p2200
sS'hike1222'
p2201
S'Mainline Trail'
p2202
sS'hike1223'
p2203
S'Salmon Creek Trail and Greenway Loop'
p2204
sS'hike1220'
p2205
S'Mount Si via Teneriffe Connector'
p2206
sS'hike1221'
p2207
S'Heritage Park Trail'
p2208
sS'hike1293'
p2209
S'Frater Lake Trail'
p2210
sS'hike1292'
p2211
S'Burnt Mountain and Ironestone Mountain Trail'
p2212
sS'hike1291'
p2213
S'Beach House, Stump House, Big Maple, and Plateau Loop'
p2214
sS'hike2559'
p2215
S'Belfair Howell Lake and Tahuya OHV Loop'
p2216
sS'hike2558'
p2217
S'Highlands Sno-Park Area Trails'
p2218
sS'hike389'
p2219
S'Tipsoo Lake to Dewey Lake Loop'
p2220
sS'hike388'
p2221
S'Picture Lake Path'
p2222
sS'hike383'
p2223
S'Big Heart Lake via West Fork Foss Lakes Trail'
p2224
sS'hike382'
p2225
S'South Lost Lake Trail'
p2226
sS'hike381'
p2227
S'Olympic National Park Switchback Trail'
p2228
sS'hike380'
p2229
S'Duckabush River Trail to Five Mile Camp'
p2230
sS'hike387'
p2231
S'Pike Place Market'
p2232
sS'hike386'
p2233
S'Pyramid Mountain Trail'
p2234
sS'hike385'
p2235
S'Alta Vista Trail'
p2236
sS'hike384'
p2237
S'Margaret Lake Trail'
p2238
sS'hike65'
p2239
S'Snow Lake, Gem Lake, Upper Wildcat Lake'
p2240
sS'hike64'
p2241
S'Coyote Wall Loop Trail'
p2242
sS'hike67'
p2243
S'Barclay Lake Trail'
p2244
sS'hike66'
p2245
S'Lake Ingalls'
p2246
sS'hike61'
p2247
S'Summit Lake Trail'
p2248
sS'hike60'
p2249
S'Cape Flattery Trail'
p2250
sS'hike63'
p2251
S"Silver Star and Ed's Trail Loop"
p2252
sS'hike62'
p2253
S'Heybrook Lookout Trail'
p2254
sS'hike1294'
p2255
S'Lake Swano Trail'
p2256
sS'hike69'
p2257
S'Chain Lakes Loop Trail'
p2258
sS'hike68'
p2259
S'High Divide - Seven Lakes Basin Loop'
p2260
sS'hike871'
p2261
S'Ipsut Creek Campground via Carbon River Trail '
p2262
sS'hike479'
p2263
S'Three Fingers via Goat Flats Trail'
p2264
sS'hike478'
p2265
S'Necklace Valley Trail'
p2266
sS'hike1353'
p2267
S'Snohomish River and Shadow Lake Trail'
p2268
sS'hike475'
p2269
S'Overland OHV Loop Trail'
p2270
sS'hike474'
p2271
S'Crystal Peak Trail'
p2272
sS'hike477'
p2273
S'Lucia Falls Regional Park'
p2274
sS'hike476'
p2275
S'Chehalis Western Trail'
p2276
sS'hike471'
p2277
S'Bellevue Botanical Park and Wilburton Hill Park'
p2278
sS'hike873'
p2279
S'Coleman Glacier Via Heliotrope Ridge Trail'
p2280
sS'hike473'
p2281
S'Sourdough Gap (past Sheep Lake)'
p2282
sS'hike472'
p2283
S'Cascade Pass Trail'
p2284
sS'hike655'
p2285
S'Coal Creek and Primrose Trail Loop from Lakemont Blvd'
p2286
sS'hike654'
p2287
S'Bertha May and Granite Lakes Trail'
p2288
sS'hike657'
p2289
S"Devil's Dome Loop"
p2290
sS'hike872'
p2291
S'Wenatchee Crest Trail'
p2292
sS'hike651'
p2293
S'Paul Peak Trail'
p2294
sS'hike650'
p2295
S'Thorp Mountain Trail'
p2296
sS'hike653'
p2297
S'Tolt Pipeline Trail'
p2298
sS'hike652'
p2299
S'Mount Margaret Trail'
p2300
sS'hike1356'
p2301
S'Mica Peak Loop'
p2302
sS'hike659'
p2303
S'Porter Creek Falls'
p2304
sS'hike658'
p2305
S'Wilderness Creek Trail'
p2306
sS'hike129'
p2307
S'Madison Falls Trail'
p2308
sS'hike1357'
p2309
S'Chatter Creek Trail'
p2310
sS'hike497'
p2311
S'Excelsior Pass Trail'
p2312
sS'hike496'
p2313
S'Bear Lake Trail'
p2314
sS'hike495'
p2315
S'Narada Falls'
p2316
sS'hike494'
p2317
S'Colonel Bob Trail'
p2318
sS'hike493'
p2319
S'Old Sauk River Trail'
p2320
sS'hike492'
p2321
S'Dewey Lake Trail'
p2322
sS'hike491'
p2323
S'Dirtyface Peak Trail'
p2324
sS'hike490'
p2325
S'Weowna Park Loop Trail'
p2326
sS'hike876'
p2327
S'Tommy Thompson Trail'
p2328
sS'hike499'
p2329
S'High Drive Parkway Trail'
p2330
sS'hike498'
p2331
S'Dalles Mountain Trail'
p2332
sS'hike1724'
p2333
S'Dry Gulch Loop'
p2334
sS'hike1052'
p2335
S'Azalea Way'
p2336
sS'hike1990'
p2337
S'Ape Canyon, Smith Creek, Lava Canyon Loop'
p2338
sS'hike1991'
p2339
S'Marmot, Tuck, and Robin Lakes via Deception Pass'
p2340
sS'hike1992'
p2341
S'Tibbetts Marsh Loop via Bear Ridge Trail'
p2342
sS'hike1993'
p2343
S'Community Garden and Beach Walk Loop '
p2344
sS'hike1994'
p2345
S"Red Town, Marshall's Hill, Wildside and De Leo Wall Loop"
p2346
sS'hike1995'
p2347
S'Blackhorse Lake Hiking Trail'
p2348
sS'hike1996'
p2349
S'La Center Bottoms'
p2350
sS'hike1997'
p2351
S'Interurban, Hemlock, and Huckleberry Loop'
p2352
sS'hike1998'
p2353
S'Road 6310: Jumpoff Ridge Trail'
p2354
sS'hike1999'
p2355
S'Dege Peak and Frozen Lake via Sourdough Ridge Trail'
p2356
sS'hike721'
p2357
S'Dirtybox Peak'
p2358
sS'hike720'
p2359
S'Erie Mountain Via Whistle Lake Trail'
p2360
sS'hike723'
p2361
S'Maury Island Natural Area Loop'
p2362
sS'hike722'
p2363
S'Fletcher Canyon Trail'
p2364
sS'hike725'
p2365
S'Cushman Trail'
p2366
sS'hike724'
p2367
S'Round Mountain Trail'
p2368
sS'hike727'
p2369
S'Mica Peak'
p2370
sS'hike726'
p2371
S'Jim Martinson Exercise Trail'
p2372
sS'hike729'
p2373
S'Soda Peaks Lake Trail West'
p2374
sS'hike728'
p2375
S'Mount St. Helens Loop Trail from Windy Ridge'
p2376
sS'hike1514'
p2377
S'Triangle Pass OHV Road'
p2378
sS'hike1515'
p2379
S'Shinglemill Creek'
p2380
sS'hike1516'
p2381
S'Wilderness Peak and Squak Mountain Loop'
p2382
sS'hike1517'
p2383
S'Tull Canyon Trail via Tubal Cain Trail'
p2384
sS'hike1510'
p2385
S'Maddox Creek Trail'
p2386
sS'hike1511'
p2387
S'Lower Coal Creek Trail'
p2388
sS'hike1512'
p2389
S'Big Gulch Trail via Harbour Pointe'
p2390
sS'hike1513'
p2391
S'Maury Island Viewpoint Trail'
p2392
sS'hike1518'
p2393
S'Road 1 Sno-Park Trail'
p2394
sS'hike1519'
p2395
S'Harper Park Trail'
p2396
sS'hike1428'
p2397
S'East Fork Trail #139'
p2398
sS'hike1429'
p2399
S'Beaver Lake Trail'
p2400
sS'hike1420'
p2401
S'Slide Lake Trail'
p2402
sS'hike1421'
p2403
S'Old Mine Trail'
p2404
sS'hike1422'
p2405
S'Mount Baldy via Domerie Divide Trail'
p2406
sS'hike1423'
p2407
S'Mount Spokane Summit - Saddle Junction Trail'
p2408
sS'hike1424'
p2409
S'Heart Lake Loop'
p2410
sS'hike1425'
p2411
S'Selah Butte Trail'
p2412
sS'hike1426'
p2413
S'Lake Caroline and Windy Pass'
p2414
sS'hike1427'
p2415
S'Columbia Mountain  (Kettle Crest North)'
p2416
sS'hike1271'
p2417
S'Elliott Creek Trail'
p2418
sS'hike2155'
p2419
S'River View Quarry Road Loop '
p2420
sS'hike2154'
p2421
S'High Log Trail '
p2422
sS'hike2157'
p2423
S'English Boom Trail'
p2424
sS'hike2156'
p2425
S'Old Wagon Trail'
p2426
sS'hike2151'
p2427
S'Mounument Creek Trail from Lost River to Pistol Pass'
p2428
sS'hike2150'
p2429
S'Louis Lake'
p2430
sS'hike2153'
p2431
S'Victoria Track to Monument '
p2432
sS'hike2152'
p2433
S'Eagle Lake'
p2434
sS'hike2159'
p2435
S'Trail 211 to Centennial Trail'
p2436
sS'hike2158'
p2437
S'Kettles Trail '
p2438
sS'hike1270'
p2439
S'Church Creek - Satsop Lakes Trail'
p2440
sS'hike1165'
p2441
S'Snow Mountain Ranch'
p2442
sS'hike1164'
p2443
S'Sage Hills Loop'
p2444
sS'hike1167'
p2445
S'North Twin: West Ridge'
p2446
sS'hike1166'
p2447
S'Mirabeau Trail and Spokane River Centennial Trail Loop'
p2448
sS'hike1161'
p2449
S'Indian Bar Trail'
p2450
sS'hike1160'
p2451
S'Squaw Lake Via Cathedral Pass Trail'
p2452
sS'hike1163'
p2453
S'Lost Lake Trail, Woodpecker Trail, Erratic Trail, Windfall Trail Loop'
p2454
sS'hike1162'
p2455
S'Wildside Trail'
p2456
sS'hike1169'
p2457
S'Hansville Greenway Trail'
p2458
sS'hike1168'
p2459
S'Round Lake Loop via Lake to Lake Trail'
p2460
sS'hike1763'
p2461
S'Chain Lakes and Bulls Tooth Loop Trail'
p2462
sS'hike1762'
p2463
S'Hawk Creek Trail'
p2464
sS'hike1761'
p2465
S'Stampede Pass to Tacoma Pass via the PCT'
p2466
sS'hike1760'
p2467
S'Thirteenmile Hiking Trail'
p2468
sS'hike1767'
p2469
S'Mount Baker via Easton Glacier'
p2470
sS'hike1766'
p2471
S'Ewing Cove Trail'
p2472
sS'hike1765'
p2473
S'Union Bay Natural Area Loop'
p2474
sS'hike1764'
p2475
S'Bear Canyon'
p2476
sS'hike1769'
p2477
S'South Point Trail'
p2478
sS'hike1768'
p2479
S'Bald Eagle Loop Trail'
p2480
sS'hike78'
p2481
S'Falls Creek Trail Loop'
p2482
sS'hike1272'
p2483
S'Cutthroat Lake via the PCT'
p2484
sS'hike2161'
p2485
S'Rat Trap Pass'
p2486
sS'hike2087'
p2487
S'Lewis River East Fork from Daybreak Park'
p2488
sS'hike79'
p2489
S'Mailbox Peak (Old) Trail'
p2490
sS'hike2085'
p2491
S'Ship Canal to Westlake Cycle Track'
p2492
sS'hike2084'
p2493
S'Wildcat Falls via Siouxon Trail #130'
p2494
sS'hike2083'
p2495
S'Big Cedar Trail to Flying Eagle Trail Loop'
p2496
sS'hike2082'
p2497
S'Kulshan Trail'
p2498
sS'hike2081'
p2499
S'Orchard Loop to Grotto Trail'
p2500
sS'hike1094'
p2501
S'Hoypus Point Trail'
p2502
sS'hike1097'
p2503
S'Fire and Ice Trail'
p2504
sS'hike2089'
p2505
S'Arboretum Perimeter Trail'
p2506
sS'hike2088'
p2507
S'Rotary Bark Park Off-Leash Trail'
p2508
sS'hike1697'
p2509
S'Washougal Waterfront Loop'
p2510
sS'hike1696'
p2511
S'Turtleback Mountain Loop'
p2512
sS'hike1695'
p2513
S'Lake Dorothy, Bear Lake, and Deer Lake'
p2514
sS'hike1694'
p2515
S'Coyote Trail'
p2516
sS'hike1693'
p2517
S'Royal Basin - Royal Lake'
p2518
sS'hike1692'
p2519
S'Golden Horn Trail'
p2520
sS'hike1691'
p2521
S'Glacier Vista via Avalanche Lily, DeadHorse Creek and Skyline Trail '
p2522
sS'hike1690'
p2523
S'Tracy Hill Loop'
p2524
sS'hike1091'
p2525
S'Whistle Lake from Mount Erie'
p2526
sS'hike1699'
p2527
S'Whidbey Island Cliffside Trail'
p2528
sS'hike1698'
p2529
S'49 Degrees North Mountain Ski Resort'
p2530
sS'hike1093'
p2531
S'Big Lava Bed Trail via PCT'
p2532
sS'hike1092'
p2533
S'Riverside State Park: Military Cemetery/Equestrian Area Loop '
p2534
sS'hike866'
p2535
S'Beacon Hill Loop from Camp Sekani Trailhead'
p2536
sS'hike867'
p2537
S'Iron Horse Trail from Olallie State Park to Rattlesnake Lake'
p2538
sS'hike864'
p2539
S'Chinook Trail: Section One'
p2540
sS'hike865'
p2541
S'West Tiger #1 Via Preston Trail'
p2542
sS'hike862'
p2543
S'Olympic National Park Little River Trail'
p2544
sS'hike863'
p2545
S'Waughop Lake MTB Course'
p2546
sS'hike860'
p2547
S'Pipeline Loop to the 360 Viewpoint'
p2548
sS'hike861'
p2549
S'North Beach Trail'
p2550
sS'hike2335'
p2551
S'Mathison Park Loop'
p2552
sS'hike2334'
p2553
S'National Forest Development Road 3075'
p2554
sS'hike2337'
p2555
S'Slough Trail'
p2556
sS'hike2336'
p2557
S'Big Tree Ridge Trail, Surprise Creek Trail, Shangri La Trail, and Military Ridge Trail Loop'
p2558
sS'hike2331'
p2559
S'Monte Cristo Trail'
p2560
sS'hike2330'
p2561
S'Seaquest #1, #1A, #8 #2 Loop'
p2562
sS'hike868'
p2563
S'Indian Henrys Hunting Ground Trail to Mirror Lakes'
p2564
sS'hike869'
p2565
S'Blanchard Hill Loop'
p2566
sS'hike1349'
p2567
S'Beach 1 Nature Trail'
p2568
sS'hike1348'
p2569
S'Glacier Peak'
p2570
sS'hike1345'
p2571
S'Larch Lake from High Camp via North Fork Chiwaukum and McCue Ridge Trail'
p2572
sS'hike1344'
p2573
S'Grouse Vista, Indian Pits, Silver Star Mountain, Eds Trail, Sturgeon Trail, Tarbel Trail'
p2574
sS'hike1347'
p2575
S'Twin Lakes to Silesia Creek Trail'
p2576
sS'hike1346'
p2577
S'High Camp Trail'
p2578
sS'hike1341'
p2579
S'Pear Lake Trail'
p2580
sS'hike1340'
p2581
S'Langfield Falls Trail'
p2582
sS'hike1343'
p2583
S"Enchanted Valley with O'Neil Pass Loop and Anderson Glacier Trek"
p2584
sS'hike1342'
p2585
S'Lillian Ridge Way Trail'
p2586
sS'hike1189'
p2587
S'Kanaskat-Palmer Loop'
p2588
sS'hike1188'
p2589
S'De Roux Trail'
p2590
sS'hike1183'
p2591
S'Shannon Ridge Trail'
p2592
sS'hike1182'
p2593
S'Kloshe Nanitch Trail'
p2594
sS'hike1181'
p2595
S'Baker Lake East Bank to Noisy Creek Trail'
p2596
sS'hike1180'
p2597
S'Mount Aix Trail'
p2598
sS'hike1187'
p2599
S'Koenemann Lake Trail'
p2600
sS'hike1186'
p2601
S'Upper Dungeness Trail to Handy Camp'
p2602
sS'hike1185'
p2603
S'Pinnacle Peak Full Loop'
p2604
sS'hike1184'
p2605
S'Curly Creek Falls Via Lewis River Trail'
p2606
sS'hike268'
p2607
S'Umtanum Creek Falls Trail'
p2608
sS'hike269'
p2609
S'Dosewallips Steam Donkey Trail'
p2610
sS'hike264'
p2611
S'Whatcom Creek Trail Loop'
p2612
sS'hike265'
p2613
S'Myrtle Falls Viewpoint via Skyline Trail'
p2614
sS'hike266'
p2615
S'PJ Lake Trail'
p2616
sS'hike267'
p2617
S'Crystal Mountain Trail'
p2618
sS'hike260'
p2619
S'Tubal Cain Trail'
p2620
sS'hike261'
p2621
S"Cave Hole, Coal Creek Falls, Quarry, and Fred's Railroad Trail Loop"
p2622
sS'hike262'
p2623
S'Lovers Lane Trail'
p2624
sS'hike263'
p2625
S'Saddlerock Trail'
p2626
sS'hike2421'
p2627
S'Loon Lake Mountain'
p2628
sS'hike2420'
p2629
S'South Twin to Moon Mountain'
p2630
sS'hike2423'
p2631
S'Early Winters Trail'
p2632
sS'hike2422'
p2633
S'Northwest Timber to The Legend and (Lower) East Tiger '
p2634
sS'hike2425'
p2635
S'Lewis & Clark Discovery Greenway to Renaissance Trail'
p2636
sS'hike2424'
p2637
S'Skull, Pipeline, Valley, Director and Bayview Trail Loop '
p2638
sS'hike2427'
p2639
S'Lake Sylvia Loop'
p2640
sS'hike2426'
p2641
S'Cedar Creek Trail'
p2642
sS'hike2429'
p2643
S'Exit 27 and Gem State Loop'
p2644
sS'hike2428'
p2645
S'Willow Lake Trail'
p2646
sS'hike1231'
p2647
S'Rainbow Falls State Park Loop Trail'
p2648
sS'hike1230'
p2649
S'Soos Creek Trail via Boulevard Lane Park'
p2650
sS'hike1233'
p2651
S'Evergreen Beach Trail'
p2652
sS'hike1232'
p2653
S'West Tiger 3, Talus Rocks, Section Line and Bus Trail Loop'
p2654
sS'hike1235'
p2655
S'Eight Mile Trail'
p2656
sS'hike1234'
p2657
S'Observation Peak via Observation Trail #132'
p2658
sS'hike1237'
p2659
S'Sharpe Park Loop'
p2660
sS'hike1236'
p2661
S'Camas Potholes and Waterfall Loop via Lake to Lake Trail'
p2662
sS'hike1239'
p2663
S'Big Beaver Trail to Beaver Pass'
p2664
sS'hike1238'
p2665
S'Quartzite Mountain'
p2666
sS'hike1791'
p2667
S'Foggy Dew Creek, Merchants Basin, and Sunrise Lake Loop Trail '
p2668
sS'hike398'
p2669
S'Shriner Peak Lookout Trail'
p2670
sS'hike399'
p2671
S'Three Summits Loop Trail'
p2672
sS'hike2528'
p2673
S'Racehorse Ridge OHV Trail'
p2674
sS'hike2529'
p2675
S'Columbia River III - Canada to Northport'
p2676
sS'hike390'
p2677
S'Thunder Creek Trail'
p2678
sS'hike391'
p2679
S'Cowiche Canyon Uplands'
p2680
sS'hike2526'
p2681
S'Little Creek to Old Timber to Bobcat Run Loop'
p2682
sS'hike393'
p2683
S'Spoon Creek Falls Trail'
p2684
sS'hike394'
p2685
S'Heather Meadows and Artists Point Trail'
p2686
sS'hike395'
p2687
S'Red Top Lookout Trail'
p2688
sS'hike396'
p2689
S'Obstruction Point - Deer Park Trail'
p2690
sS'hike397'
p2691
S'Carkeek Park Salmon'
p2692
sS'hike50'
p2693
S'Spray Park Trail'
p2694
sS'hike51'
p2695
S'Mount Washington Trail'
p2696
sS'hike52'
p2697
S'Coal Creek Trail'
p2698
sS'hike53'
p2699
S'Hoh River Trail'
p2700
sS'hike54'
p2701
S'Talapus and Olallie Lakes via Olallie Lake Trail'
p2702
sS'hike55'
p2703
S'Kendall Katwalk Trail'
p2704
sS'hike56'
p2705
S'High Rock Lookout Trail'
p2706
sS'hike57'
p2707
S'Lewis River Falls Trail'
p2708
sS'hike58'
p2709
S'Naches Peak Loop Trail'
p2710
sS'hike59'
p2711
S'Gothic Basin Trail'
p2712
sS'hike468'
p2713
S'Green Mountain via Gold Creek Trail'
p2714
sS'hike469'
p2715
S'Lake Christine Trail to Mt Beljica'
p2716
sS'hike462'
p2717
S'Mima Falls Loop'
p2718
sS'hike463'
p2719
S'Boundary Trail to Coldwater Peak'
p2720
sS'hike460'
p2721
S'Iron Creek Falls Trail'
p2722
sS'hike461'
p2723
S'Lily and Lizard Lakes Loop Trail'
p2724
sS'hike466'
p2725
S'Cedar River Trail'
p2726
sS'hike467'
p2727
S'Zig Zag Trail'
p2728
sS'hike464'
p2729
S'Holder Ridge Trail'
p2730
sS'hike465'
p2731
S'Chuckanut Mountain'
p2732
sS'hike642'
p2733
S'Commencement Bay Trail'
p2734
sS'hike643'
p2735
S'Ladder Creek Falls Trail'
p2736
sS'hike640'
p2737
S'Sheep Lake and Sourdough Gap Trail'
p2738
sS'hike641'
p2739
S'Teneriffe Falls Loop via the Mount Teneriffe Trail'
p2740
sS'hike646'
p2741
S'Owyhigh Lakes Trail'
p2742
sS'hike647'
p2743
S'Saltwater State Park Loop'
p2744
sS'hike644'
p2745
S'North Head Discovery Trail'
p2746
sS'hike645'
p2747
S'Moments in Time Trail'
p2748
sS'hike648'
p2749
S'PCT: WA Section K - Stevens Pass to Rainy Pass'
p2750
sS'hike649'
p2751
S'Glacier Basin Via Monte Cristo Trail'
p2752
sS'hike138'
p2753
S'Panther Creek Falls Trail 137'
p2754
sS'hike139'
p2755
S'Hole-in-the-Wall Trail'
p2756
sS'hike484'
p2757
S'Mount Si via Old Si Trail'
p2758
sS'hike485'
p2759
S'Indian Heaven Trail'
p2760
sS'hike486'
p2761
S'Rattlesnake Ledges to East Peak'
p2762
sS'hike487'
p2763
S'Cape Disappointment Lighthouse Loop Trail'
p2764
sS'hike480'
p2765
S'Lakeshore Trail and Wonderland Trail to Ipsut Pass'
p2766
sS'hike481'
p2767
S'Horseshoe Bend Trail'
p2768
sS'hike482'
p2769
S'Duthie Mountain Bike Park Loop'
p2770
sS'hike483'
p2771
S'Squak Mountain Fireplace Trail'
p2772
sS'hike488'
p2773
S'Barlow Point Trail'
p2774
sS'hike489'
p2775
S'Cougar Mountain Indian Trail'
p2776
sS'hike2630'
p2777
S'Balanced Rock Trail'
p2778
sS'hike2631'
p2779
S'Wenas OHV Loop'
p2780
sS'hike2632'
p2781
S'Washington Backcountry Discover Route: Cashmere to Canada Sections'
p2782
sS'hike2633'
p2783
S'Lenice Lake'
p2784
sS'hike2634'
p2785
S'Hyak Creek to Nordic Pass Trail'
p2786
sS'hike2635'
p2787
S'Washington to Arizona Backcounty Discovery Route Ride'
p2788
sS'hike2636'
p2789
S'Chamna, Red Tail and River Trail Loop'
p2790
sS'hike2637'
p2791
S'Pit Loop Trail'
p2792
sS'hike2638'
p2793
S'Thorp Mountain via Kachess Ridge Trail'
p2794
sS'hike2639'
p2795
S'Gold Creek Extension Trail'
p2796
sS'hike1983'
p2797
S'Mount Madron'
p2798
sS'hike1982'
p2799
S'Cedar Mountain via McGarvey Trail West'
p2800
sS'hike1981'
p2801
S'Lemei Lake Trail via East Crater Trail'
p2802
sS'hike1980'
p2803
S'Pioneer Square Walking Tour'
p2804
sS'hike1987'
p2805
S'Three Summits Loop via Cable Line and Tiger Mountain Trail'
p2806
sS'hike1986'
p2807
S"O'Neil Pass via North Fork of Skokomish Trail"
p2808
sS'hike1985'
p2809
S'Trail #126, #118, #109 and #108 Loop '
p2810
sS'hike1984'
p2811
S'Umtanum Ridge Road'
p2812
sS'hike1989'
p2813
S'Nature Trail, Cairn, and Sidekick Loop'
p2814
sS'hike1988'
p2815
S'Klickitat Trail: Milepost 16-13  '
p2816
sS'hike2551'
p2817
S'Leech Lake Loop'
p2818
sS'hike738'
p2819
S'Cape Flattery Tribal Scenic Byway'
p2820
sS'hike739'
p2821
S'Big Tree Ridge Trail'
p2822
sS'hike736'
p2823
S'Twin Lakes Trail'
p2824
sS'hike737'
p2825
S'Lime Kiln Point State Park Trails'
p2826
sS'hike734'
p2827
S'Nooksack Falls Trail '
p2828
sS'hike735'
p2829
S'Berkeley Park Trail'
p2830
sS'hike732'
p2831
S'Mountain Lake and Twin Lakes Trail'
p2832
sS'hike733'
p2833
S'Bresemann Forest Trail'
p2834
sS'hike730'
p2835
S'Hood Canal and Theler Wetlands Trails'
p2836
sS'hike731'
p2837
S'Shoe Lake Via Pacific Crest Trail'
p2838
sS'hike2552'
p2839
S'Mount Margaret OHV Trail'
p2840
sS'hike2555'
p2841
S'Crow Creek and Little Bald Mountain OHV Loop'
p2842
sS'hike2554'
p2843
S'Lookout Mountain OHV Loop'
p2844
sS'hike2557'
p2845
S'Perrigo Park Loop Path'
p2846
sS'hike2556'
p2847
S'Tahuya and Rock Garden OHV Loop'
p2848
sS'hike1507'
p2849
S'Grass Lake Nature Park Trail'
p2850
sS'hike1506'
p2851
S'North Beach and Hidden Valley Loop'
p2852
sS'hike1505'
p2853
S'Sandy Beach Trail'
p2854
sS'hike1504'
p2855
S'Polallie Ridge Trail'
p2856
sS'hike1503'
p2857
S'Anti-Aircraft Ridge Trail to Cougar Mountain and Coyote Creek Trail'
p2858
sS'hike1502'
p2859
S'Fort Ebey Loop'
p2860
sS'hike1501'
p2861
S'The Outback'
p2862
sS'hike1500'
p2863
S'Teneriffe to Talus to Mount Si to Lower Teneriffe Connector Loop'
p2864
sS'hike1509'
p2865
S'Kloochman Rock Climb'
p2866
sS'hike1508'
p2867
S'Skagit River Delta Trail'
p2868
sS'hike1263'
p2869
S'Lake Dorothy, Bear Lake, Deer Lake, Snoqualmie Lake via Dorothy Lake Trail'
p2870
sS'hike822'
p2871
S'Willapa Hills Trail'
p2872
sS'hike823'
p2873
S'Notch Pass Trail'
p2874
sS'hike820'
p2875
S"Poulsbo's Fish Park Trail"
p2876
sS'hike376'
p2877
S'Squires Lake Trail'
p2878
sS'hike1439'
p2879
S'Cascade Scenic Drive'
p2880
sS'hike1438'
p2881
S'Kettles Recreation Area to Fort Ebey Loop'
p2882
sS'hike1433'
p2883
S'Cameron Pass Trail'
p2884
sS'hike826'
p2885
S'PSE Powerline Trail'
p2886
sS'hike1431'
p2887
S'Teneriffe Talus Loop'
p2888
sS'hike1430'
p2889
S'Cougar Mt Squak Mt Connector to Doughty Falls'
p2890
sS'hike1437'
p2891
S'John Wayne Pioneer Trail: Ellensburg to Lake Easton'
p2892
sS'hike1436'
p2893
S'Sultan River Canyon Trail'
p2894
sS'hike1435'
p2895
S'Buck Creek to High Pass'
p2896
sS'hike1434'
p2897
S'Ben Burr Trail'
p2898
sS'hike824'
p2899
S'Burroughs Mountain Loop Via Glacier Basin'
p2900
sS'hike825'
p2901
S'Bennington Lake Trail'
p2902
sS'hike1261'
p2903
S'Lower Green River Trail Kent to Tukwila'
p2904
sS'hike1756'
p2905
S'Oldgrowth Loop Trail'
p2906
sS'hike1757'
p2907
S'Deer Creek Falls to Owyhigh Lakes Trail'
p2908
sS'hike1754'
p2909
S'Dalles Campground Trail'
p2910
sS'hike1755'
p2911
S'Eagle Lakes Trail'
p2912
sS'hike1752'
p2913
S'Tumwater Mountain Approach'
p2914
sS'hike1753'
p2915
S'Coyote Creek to Klondike Swamp Trail'
p2916
sS'hike1750'
p2917
S'Deer Creek Road'
p2918
sS'hike1751'
p2919
S'Canyon Creek and Mink Lake Loop Trail'
p2920
sS'hike1758'
p2921
S'Wynoochee Pass Trail'
p2922
sS'hike470'
p2923
S'Third Beach Trail to Taylor Point'
p2924
sS'hike1267'
p2925
S'Fort Cascades Trail'
p2926
sS'hike127'
p2927
S'Marmot Lake and Jade Lake'
p2928
sS'hike126'
p2929
S'Eightmile Lake Trail'
p2930
sS'hike125'
p2931
S'Lena Lake Trail to Upper Lena Lake Trail'
p2932
sS'hike893'
p2933
S'Lake Washington North, Beach and Seminary Trail Loop'
p2934
sS'hike656'
p2935
S'Guye Peak Trail'
p2936
sS'hike123'
p2937
S'Grove of the Patriarchs Nature Trail'
p2938
sS'hike1264'
p2939
S'Indian Racetrack Trail to Red Mountain Lookout'
p2940
sS'hike122'
p2941
S'Talus Rocks Loop'
p2942
sS'hike121'
p2943
S'Red Town and Cave Hole Trail Loop '
p2944
sS'hike120'
p2945
S'The Wonderland Trail'
p2946
sS'hike813'
p2947
S'Four Stream Trail'
p2948
sS'hike812'
p2949
S'Chelan Lakeshore Trail'
p2950
sS'hike811'
p2951
S'Goat Lake Trail'
p2952
sS'hike810'
p2953
S'Beaver Falls'
p2954
sS'hike817'
p2955
S'Damon Point State Park Trail'
p2956
sS'hike816'
p2957
S'Monte Cristo Trail to Silver Lake Trail'
p2958
sS'hike815'
p2959
S'Milton Interurban Trail'
p2960
sS'hike814'
p2961
S'Yakima Rim Trail '
p2962
sS'hike819'
p2963
S'Heather Park via Lake Angeles Trail'
p2964
sS'hike818'
p2965
S'Dash Point State Park Loop via Beach Trail'
p2966
sS'hike2188'
p2967
S'River View Quarry Road to Quarry Trail Loop'
p2968
sS'hike2189'
p2969
S'Cowboy Mountain'
p2970
sS'hike2186'
p2971
S'Fawn Lake Trail'
p2972
sS'hike2187'
p2973
S'Cypress Island Airfield Trail'
p2974
sS'hike2184'
p2975
S'Perimeter, Holton Wetland and Ravine Drop Off Trail '
p2976
sS'hike2185'
p2977
S'Newberry Hill Lower Loop to Upper Loop'
p2978
sS'hike2182'
p2979
S'Little Beaver Trail via Hannegan Pass'
p2980
sS'hike2183'
p2981
S'134, 118, 10, 123 and 108 Trail Loop '
p2982
sS'hike2180'
p2983
S'Mount Si and Mount Teneriffe Loop'
p2984
sS'hike2181'
p2985
S'Little Ranger Peak Loop'
p2986
sS'hike259'
p2987
S'Kelly Butte Trail #1031'
p2988
sS'hike258'
p2989
S'Ptarmigan Ridge Trail'
p2990
sS'hike558'
p2991
S'Shadow Lakes Trail'
p2992
sS'hike251'
p2993
S'Antoine Peak via Emerald Necklace'
p2994
sS'hike250'
p2995
S'Minotaur Lake Trail'
p2996
sS'hike253'
p2997
S'Echo Peak Loop Trail'
p2998
sS'hike252'
p2999
S'Mirror Lake Trail'
p3000
sS'hike255'
p3001
S'Mount Constitution Loop Trail'
p3002
sS'hike254'
p3003
S'Soos Creek Trail'
p3004
sS'hike257'
p3005
S'June Lake Trail'
p3006
sS'hike256'
p3007
S'Spirit Falls Trail'
p3008
sS'hike554'
p3009
S'Wonderland Trail Ipsut Creek Loop to Ipsut Pass and Mowich Lake'
p3010
sS'hike2454'
p3011
S'Kennedy Creek Summit Lake Loop'
p3012
sS'hike2455'
p3013
S'Mount Hyak Loop'
p3014
sS'hike2456'
p3015
S'Lopez Island Loop'
p3016
sS'hike2457'
p3017
S'Pass Lake Loop'
p3018
sS'hike2450'
p3019
S'Charilia Lakes via Upper Big Quilcene Trail, Upper Dungeness Trail, and Carlia Lakes Way Trail'
p3020
sS'hike2451'
p3021
S'Bald Mountain Centennial OHV Trail'
p3022
sS'hike2452'
p3023
S'Cedar Lake Primitive Trail via Grey Wolf River'
p3024
sS'hike2453'
p3025
S'Skagit Riverwalk'
p3026
sS'hike927'
p3027
S'Antoine Peak East Loop'
p3028
sS'hike926'
p3029
S'Abercrombie Mountain'
p3030
sS'hike925'
p3031
S'Hurricane Hill Nature Trail to Little River Trail'
p3032
sS'hike924'
p3033
S'High Point Trail'
p3034
sS'hike2458'
p3035
S'Robinson Pass Middle Fork Pasayten Trail'
p3036
sS'hike2459'
p3037
S'Sloan Peak Trail'
p3038
sS'hike921'
p3039
S'Tuscohatchie Lake Trail'
p3040
sS'hike920'
p3041
S'Day Mountain and Mount Kit Carson Trail'
p3042
sS'hike1244'
p3043
S"Cave Hole, Fred's Railroad, Quarry, Indian and Red Town Loop"
p3044
sS'hike1245'
p3045
S'Silver Creek Trail #258'
p3046
sS'hike1246'
p3047
S'Coal Lake Trail to North Lake'
p3048
sS'hike1247'
p3049
S'Tradition Plateau Loop'
p3050
sS'hike1240'
p3051
S'Kennedy Falls Trail '
p3052
sS'hike1241'
p3053
S'Chehalis River Sloughs Trail'
p3054
sS'hike1242'
p3055
S'Dash Point State Park Mountain Bike Trails'
p3056
sS'hike1243'
p3057
S'Mink Lake Trail to Blackwood Lake'
p3058
sS'hike1248'
p3059
S'Lake Sundown Trail'
p3060
sS'hike1249'
p3061
S'Larch Mountain via Tarbell Trail'
p3062
sS'hike1262'
p3063
S'Mount Spokane July-Oct Hike'
p3064
sS'hike309'
p3065
S'West Tiger # 3 via Cable Line Trail Loop'
p3066
sS'hike2539'
p3067
S'Lone Fir Trail Loop'
p3068
sS'hike2538'
p3069
S'Vaughn Outer Loop Trail'
p3070
sS'hike2537'
p3071
S'Coyote, Lying Squirrel and Spider Webb '
p3072
sS'hike2536'
p3073
S'Westcrest Park South Loop'
p3074
sS'hike2535'
p3075
S"Budu Henry's Ridge Loop"
p3076
sS'hike2534'
p3077
S'The Trail of Wild Fell, Rocky Road and Moss Valley'
p3078
sS'hike2533'
p3079
S'Whiskey Dick OHV Loop'
p3080
sS'hike2532'
p3081
S'Lake Washington Road Bike Loop'
p3082
sS'hike2531'
p3083
S"South Connector, Down South and Taylor's Trail"
p3084
sS'hike2530'
p3085
S'Walker Valley 22 and BR-1604 OHV Trail'
p3086
sS'hike49'
p3087
S'Lower Lena Lake Trail'
p3088
sS'hike48'
p3089
S'Burroughs Mountain Loop Trail '
p3090
sS'hike47'
p3091
S'Cape Horn Loop Trail'
p3092
sS'hike46'
p3093
S'Mount Saint Helens Summit via Ptarmigan Trail'
p3094
sS'hike45'
p3095
S'Comet and Christine Falls'
p3096
sS'hike44'
p3097
S'Camp Muir Route Via Skyline Trail'
p3098
sS'hike43'
p3099
S'Liberty Lake Loop Trail'
p3100
sS'hike42'
p3101
S'Melakwa Lake via Denny Creek Trail'
p3102
sS'hike41'
p3103
S'Beacon Rock Trail'
p3104
sS'hike40'
p3105
S'Marymere Falls Trail'
p3106
sS'hike912'
p3107
S'Icicle Creek Trail'
p3108
sS'hike913'
p3109
S'North Head Trail'
p3110
sS'hike101'
p3111
S'Spruce Railroad Trail: Lake Crescent'
p3112
sS'hike100'
p3113
S'Squak Mountain Road Southeast to May Valley Loop Trail '
p3114
sS'hike103'
p3115
S'Iron Goat Trail'
p3116
sS'hike102'
p3117
S'Mount Dickerman Trail'
p3118
sS'hike105'
p3119
S'Teneriffe Falls and Mount Teneriffe Loop'
p3120
sS'hike104'
p3121
S'Silver Falls Trail'
p3122
sS'hike107'
p3123
S'Narada Falls Trail'
p3124
sS'hike106'
p3125
S'Lake Washinton Watertower, South Ridge, Beach and North Trail Loop'
p3126
sS'hike109'
p3127
S'Tuck and Robin Lakes'
p3128
sS'hike108'
p3129
S'Whittaker Wilderness Peak Trail'
p3130
sS'hike975'
p3131
S'Mount Zion'
p3132
sS'hike2623'
p3133
S'Muddy Creek Trail '
p3134
sS'hike2622'
p3135
S'Darrington Access Road Trail'
p3136
sS'hike2621'
p3137
S'Canyon Lake Trail [PRIVATE PROPERTY]'
p3138
sS'hike2620'
p3139
S'Griffins at Black Diamond Loop'
p3140
sS'hike2627'
p3141
S'Observation Peak and Dry Creek Loop'
p3142
sS'hike2626'
p3143
S'Lake Janus from Rainy Creek USFS 6700 '
p3144
sS'hike2625'
p3145
S'McNeeley Summit Trail '
p3146
sS'hike2624'
p3147
S'Thunder Mountain Loop'
p3148
sS'hike2629'
p3149
S'Rock Candy Mountain and Wet Cap Forest OHV Loop'
p3150
sS'hike2628'
p3151
S'Maple Leaf Resevoir Park'
p3152
sS'hike918'
p3153
S'Bogachiel River Trail'
p3154
sS'hike919'
p3155
S'Young Hill Trail'
p3156
sS'hike1354'
p3157
S'Baldy Trail'
p3158
sS'hike749'
p3159
S'Independence Lake Trail'
p3160
sS'hike748'
p3161
S'Twin Peaks'
p3162
sS'hike743'
p3163
S'Easton Ridge Trail'
p3164
sS'hike742'
p3165
S'The Labyrinth to Coyote Wall Loop'
p3166
sS'hike741'
p3167
S'Capitol Peak OHV Trail'
p3168
sS'hike740'
p3169
S'Ross Dam Trail'
p3170
sS'hike747'
p3171
S'Coulon Beach Park Trails'
p3172
sS'hike746'
p3173
S'Lower Big Quilcene Trail'
p3174
sS'hike745'
p3175
S'Old Loop Road Trail'
p3176
sS'hike744'
p3177
S'East Tiger Mountain Summit Trail'
p3178
sS'hike2302'
p3179
S'Fire Trail'
p3180
sS'hike2303'
p3181
S'May Creek, De Leo, and China Creek Loop'
p3182
sS'hike1275'
p3183
S'Trout Lake, Copper Lake, Lake Malachite'
p3184
sS'hike1274'
p3185
S'Dry Creek Trail'
p3186
sS'hike1277'
p3187
S'Cranberry Lake'
p3188
sS'hike1276'
p3189
S'Howard Amon Park'
p3190
sS'hike2308'
p3191
S'188th and Fir Hill Trail Loop'
p3192
sS'hike2309'
p3193
S'Wildhorse Creek Trail #1592'
p3194
sS'hike1538'
p3195
S'Damfino Lakes Trail'
p3196
sS'hike1539'
p3197
S'Beaver Lake Park Loop'
p3198
sS'hike1273'
p3199
S'Hyak Creek Trail'
p3200
sS'hike1532'
p3201
S'Clear Lost Trail'
p3202
sS'hike1533'
p3203
S'Spirit Lake Memorial Highway to Mount St. Helens'
p3204
sS'hike1530'
p3205
S'Hall Mountain Trail'
p3206
sS'hike1531'
p3207
S'Mill Creek Truck Trail'
p3208
sS'hike1536'
p3209
S'Hibox Mountain Via Rachel Lake Trail'
p3210
sS'hike1537'
p3211
S'Coal Mine Loop'
p3212
sS'hike1534'
p3213
S'Old Market Street Trail'
p3214
sS'hike1535'
p3215
S'Yakima Rim Loop Trail'
p3216
sS'hike1408'
p3217
S'Sky Country to Harvey Manning Loop'
p3218
sS'hike1409'
p3219
S'Ginkgo Petrified Forest Interpretive Trail'
p3220
sS'hike1406'
p3221
S'East Tiger: Silent Swamp Trail'
p3222
sS'hike1407'
p3223
S'Lookout Mountain'
p3224
sS'hike1404'
p3225
S'Shady Lane Trail'
p3226
sS'hike1405'
p3227
S'Raven and Coyote Trail Loop'
p3228
sS'hike1402'
p3229
S'Priest Point East Loop'
p3230
sS'hike1403'
p3231
S'McLellan Conservation Area'
p3232
sS'hike1400'
p3233
S'Wawawai Canyon'
p3234
sS'hike1401'
p3235
S'Yodelin Ski Tour'
p3236
sS'hike821'
p3237
S'Stegosaurus Butte Trail'
p3238
sS'hike1749'
p3239
S'Muir Snowfield Ski Tour'
p3240
sS'hike1748'
p3241
S'Coyote Creek Trail'
p3242
sS'hike1741'
p3243
S'Burton Acres Loop'
p3244
sS'hike1740'
p3245
S'Elk Lake via Thomas Lake Trail'
p3246
sS'hike1743'
p3247
S'Elk Ridge and Carey Creek'
p3248
sS'hike1742'
p3249
S'Duwamish Trail'
p3250
sS'hike1745'
p3251
S'Truman Trail'
p3252
sS'hike1744'
p3253
S'Queets River Trail'
p3254
sS'hike1747'
p3255
S'Whispering Firs, Cascara, Mainline and Lloyd Trail Detour Loop'
p3256
sS'hike1746'
p3257
S'Ross Lake East Bank Trail'
p3258
sS'hike827'
p3259
S'Mount Finlayson Trail'
p3260
sS'hike977'
p3261
S"West View Trail to Devil's Butte"
p3262
sS'hike800'
p3263
S'Woodland Plateau Trail to Lloyd Trail Loop'
p3264
sS'hike801'
p3265
S'Loowit Falls from Johnston Ridge Observatory'
p3266
sS'hike802'
p3267
S'Rock Trail to Lost Lake Loop'
p3268
sS'hike803'
p3269
S'Tamanous Trail to PCT & Gillette Lake'
p3270
sS'hike804'
p3271
S'Burnt Bridge Creek Trail'
p3272
sS'hike805'
p3273
S'Ring Hill Forest Trail System'
p3274
sS'hike806'
p3275
S'Licorice Fern to Far Country Falls'
p3276
sS'hike807'
p3277
S'South Bay Trail'
p3278
sS'hike808'
p3279
S'Wright Mountain'
p3280
sS'hike809'
p3281
S'Slab Camp Trail'
p3282
sS'hike2191'
p3283
S'Frog Lake Trail'
p3284
sS'hike2190'
p3285
S'Green River: Auburn to Kent, Middle Reach'
p3286
sS'hike2193'
p3287
S'Newcastle East Cross Town Trail'
p3288
sS'hike2192'
p3289
S'18th Street to Main Vein Loop'
p3290
sS'hike2195'
p3291
S'Battle Point Trail'
p3292
sS'hike2194'
p3293
S'White River Trail'
p3294
sS'hike2197'
p3295
S'Boundary Trails: Elk Pass to Johnston Ridge Observatory'
p3296
sS'hike2196'
p3297
S'Florence Robinson Park'
p3298
sS'hike2199'
p3299
S'Bear Lake via East Crest Trail'
p3300
sS'hike2198'
p3301
S'Blue Gate to Old Timber to Wolf Ridge to Beaver Loop'
p3302
sS'hike2447'
p3303
S'Coho Preserve Trail '
p3304
sS'hike2446'
p3305
S'Cold Creek to Rock Creek Camp via Tarbell Trail'
p3306
sS'hike2445'
p3307
S'Tiger Mountain Trail: Through Hike'
p3308
sS'hike2444'
p3309
S'Stiletto Lake via Twisp Pass Trail'
p3310
sS'hike938'
p3311
S'Blue Mountain Logging Road - South'
p3312
sS'hike939'
p3313
S'Glacier Lake Trail'
p3314
sS'hike2441'
p3315
S'Lizard Bat Loop'
p3316
sS'hike2440'
p3317
S'Trail 101: North Trail Red Loop'
p3318
sS'hike934'
p3319
S'Ohanapecosh Hot Springs Trail'
p3320
sS'hike935'
p3321
S'Olympic Resource Trails'
p3322
sS'hike936'
p3323
S'Trout Lake via West Fork Foss Lakes Trail'
p3324
sS'hike937'
p3325
S'Nannie Ridge Trail'
p3326
sS'hike930'
p3327
S'Plummer Peak via Pinnacle Peak Trail'
p3328
sS'hike931'
p3329
S'Clay Pit Trail'
p3330
sS'hike932'
p3331
S'State Capitol and Central Olympia'
p3332
sS'hike2448'
p3333
S'Goat Wall loop'
p3334
sS'hike1257'
p3335
S'Dog Mountain Inner Loop'
p3336
sS'hike1256'
p3337
S'Wonderland Trail: Mowich Lake Campground to Ipsut Creek Campground'
p3338
sS'hike1255'
p3339
S"Marshall's Hill Trail"
p3340
sS'hike1254'
p3341
S"Saint George's Trail to Little Spokane River"
p3342
sS'hike1253'
p3343
S'Sheep Canyon Trail'
p3344
sS'hike1252'
p3345
S'Beaver Lake Trail'
p3346
sS'hike1251'
p3347
S'Sacagawea Heritage Trail'
p3348
sS'hike1250'
p3349
S'Marymoor Connector Trail'
p3350
sS'hike1259'
p3351
S'Round Lake Via Lost Creek Ridge Trail'
p3352
sS'hike1258'
p3353
S'Little Cranberry Lake Inner Loop'
p3354
sS'hike2502'
p3355
S'Cedar Flats'
p3356
sS'hike2503'
p3357
S'Evergreen State College Trail'
p3358
sS'hike2500'
p3359
S'Tres Hombres'
p3360
sS'hike2501'
p3361
S"Upper and Lower Surfer's Way Loop"
p3362
sS'hike2506'
p3363
S'Waddell Basin West Loop'
p3364
sS'hike2507'
p3365
S'Little Hoquiam River Trail'
p3366
sS'hike2504'
p3367
S'Larch Mountain, Capitol Peak, and Waddell Creek Loop'
p3368
sS'hike2505'
p3369
S'Reiter Hills OHV Loop'
p3370
sS'hike2508'
p3371
S'Found Lake Trail '
p3372
sS'hike2509'
p3373
S'Belfair Staging to Tahuya River Trail OHV Loop'
p3374
sS'hike38'
p3375
S'Hoh Rain Forest Hall of Moss'
p3376
sS'hike39'
p3377
S'Bridal Veil Falls Trail'
p3378
sS'hike32'
p3379
S'Ape Cave Trail'
p3380
sS'hike33'
p3381
S'Little Mashel Falls Trail'
p3382
sS'hike30'
p3383
S'Snoqualmie Falls Trail'
p3384
sS'hike31'
p3385
S'Goat Lake Trail'
p3386
sS'hike36'
p3387
S'Big Four Ice Caves Trail'
p3388
sS'hike37'
p3389
S'Mount Storm King'
p3390
sS'hike34'
p3391
S'Mason Lake via Ira Spring Memorial Trail'
p3392
sS'hike35'
p3393
S'Sol Duc Falls Nature Trail'
p3394
sS'hike246'
p3395
S'Navaho Peak'
p3396
sS'hike247'
p3397
S'Deception Falls Interpretive Trail'
p3398
sS'hike244'
p3399
S'Bells Mountain Trail'
p3400
sS'hike245'
p3401
S'Hummocks Trail'
p3402
sS'hike242'
p3403
S'Heybrook Ridge'
p3404
sS'hike243'
p3405
S'Quinault Rain Forest Nature Trail'
p3406
sS'hike240'
p3407
S'Gillette Lake'
p3408
sS'hike241'
p3409
S'Rachel Lake Trail'
p3410
sS'hike248'
p3411
S'Tradition Lake Loop Trail'
p3412
sS'hike249'
p3413
S'Lake Dorothy Trail'
p3414
sS'hike118'
p3415
S'Nisqually Estuary Boardwalk and Twin Barns Trail'
p3416
sS'hike119'
p3417
S'Dash Point Trail'
p3418
sS'hike116'
p3419
S'Upper Big Quilcene Trail via Marmot Pass'
p3420
sS'hike117'
p3421
S'Siouxon Trail: Upper Siouxon Trailhead'
p3422
sS'hike114'
p3423
S'Lower Falls Creek Trail '
p3424
sS'hike115'
p3425
S'Ozette Triangle Trail'
p3426
sS'hike112'
p3427
S'Summer Land Trail'
p3428
sS'hike113'
p3429
S'Mima Falls Trail'
p3430
sS'hike110'
p3431
S'Beckler Peak '
p3432
sS'hike111'
p3433
S'Green Lake Loop Trail'
p3434
sS'hike984'
p3435
S'North, Beach, South Canyon, Orchard, Juanita, Arrowhead Loop'
p3436
sS'hike2616'
p3437
S'Ross Lake'
p3438
sS'hike2617'
p3439
S'Ludlow Falls [PRIVATE PROPERTY]'
p3440
sS'hike2614'
p3441
S'Lopez Hill Loop'
p3442
sS'hike2615'
p3443
S'Upper Bagley Lake Trail via Chain Lakes and Fire and Ice Trails'
p3444
sS'hike2612'
p3445
S'Hope and Mig Lakes via PCT'
p3446
sS'hike2613'
p3447
S'Lake to Lake, Oly II, Red Tape Loop'
p3448
sS'hike2610'
p3449
S'Pine Marten, National Forest Road and Sasquatch Trail'
p3450
sS'hike2611'
p3451
S'Bear Creek Main Line OHV Trail'
p3452
sS'hike2618'
p3453
S'kaniksu Road'
p3454
sS'hike2619'
p3455
S'Broken Tree, Lost Lake, Sqebeqsed, Hatchery Trail'
p3456
sS'hike1954'
p3457
S'Wallace Falls MTB Loop'
p3458
sS'hike2550'
p3459
S'Brannian Creek Trestle Loop'
p3460
sS'hike758'
p3461
S'Puyallup Riverwalk Trail'
p3462
sS'hike759'
p3463
S'Whittier Ridge Lakes Trail'
p3464
sS'hike1454'
p3465
S'East Fork Lena Creek via The Brothers Trail #821'
p3466
sS'hike750'
p3467
S'White Bluffs North Slope Trail'
p3468
sS'hike751'
p3469
S'Cascade Falls Trail'
p3470
sS'hike752'
p3471
S"Enchanted Valley LaCrosse Basin O'Neill Pass Loop Trail"
p3472
sS'hike753'
p3473
S'Tipsoo Lake to American Ridge'
p3474
sS'hike754'
p3475
S'Cooper River Trail'
p3476
sS'hike755'
p3477
S"Hood's Head Trail"
p3478
sS'hike756'
p3479
S'Lewis and Clark Discovery Greenway Trail'
p3480
sS'hike757'
p3481
S'High Divide and Seven Lakes Basin'
p3482
sS'hike1456'
p3483
S'Seattle Center'
p3484
sS'hike1451'
p3485
S'Northern State Recreation Area Loop'
p3486
sS'hike1955'
p3487
S'McTavish Trail '
p3488
sS'hike1450'
p3489
S'Tomyhoi Peak'
p3490
sS'hike1453'
p3491
S'Mount Baldy and Thomas Mountain to Silver Creek '
p3492
sS'hike1452'
p3493
S'Cougar Divide'
p3494
sS'hike2345'
p3495
S'Gifford Peak via PCT'
p3496
sS'hike1529'
p3497
S'Reade Hill Trail'
p3498
sS'hike1528'
p3499
S'Whitehorse Trail '
p3500
sS'hike1525'
p3501
S'Ahtanum Ridge Loop'
p3502
sS'hike1524'
p3503
S'Rock Trail'
p3504
sS'hike1527'
p3505
S'Juniper Ridge Trail'
p3506
sS'hike1526'
p3507
S'Fort Ward Hill Trail Loop to Blakely Harbor'
p3508
sS'hike1521'
p3509
S'Holly and Bluff Loop'
p3510
sS'hike1520'
p3511
S'Leadbetter Point Trail'
p3512
sS'hike1523'
p3513
S'Kopachuck State Park Trail'
p3514
sS'hike1522'
p3515
S'Lake Lois Habitat Reserve'
p3516
sS'hike1411'
p3517
S'Sherman Peak Loop Trail'
p3518
sS'hike1410'
p3519
S'CCC Trail'
p3520
sS'hike1413'
p3521
S'Lava Canyon Trail [CLOSED]'
p3522
sS'hike1412'
p3523
S'Sares Head'
p3524
sS'hike1415'
p3525
S'Nooksack Cirque Trail'
p3526
sS'hike1414'
p3527
S'Skagit River Trail'
p3528
sS'hike1417'
p3529
S'Mesatchee Creek Trail'
p3530
sS'hike1416'
p3531
S'Upper Wheeler Reservior'
p3532
sS'hike1419'
p3533
S'Kennedy Creek Falls from Old Olympic Highway'
p3534
sS'hike1418'
p3535
S'Talus Bridge Trail'
p3536
sS'hike970'
p3537
S'Silver Forest Trail'
p3538
sS'hike1738'
p3539
S'Wedding Rocks Trail'
p3540
sS'hike1739'
p3541
S'Marten Creek Trail'
p3542
sS'hike1734'
p3543
S'The Yurt Trail'
p3544
sS'hike1735'
p3545
S'June Lake Trail to Loowit Falls'
p3546
sS'hike1736'
p3547
S'Koppen Mountain Trail'
p3548
sS'hike1737'
p3549
S'Lookout Loop'
p3550
sS'hike1730'
p3551
S'High School Trail to Chirico Trail Loop'
p3552
sS'hike1731'
p3553
S'Guemes Channel Trail'
p3554
sS'hike1732'
p3555
S'Lake Susan Jane and Josephine Lake Trail'
p3556
sS'hike1733'
p3557
S'Peshastin Mill Trail'
p3558
sS'hike2292'
p3559
S'Floyd M. Thornton Nature Trail'
p3560
sS'hike2293'
p3561
S'Cascade Lake Lagoon'
p3562
sS'hike2290'
p3563
S'Olympic Traverse: North Fork to Hoh'
p3564
sS'hike2291'
p3565
S'Stehekin River Trail'
p3566
sS'hike2296'
p3567
S'Beach Walk and Frog Pond Trail'
p3568
sS'hike2297'
p3569
S'Butte Creek Sitka Spruce Grove Trail'
p3570
sS'hike2294'
p3571
S'Quartz Creek'
p3572
sS'hike2295'
p3573
S'Sentinel Mountain OHV Loop'
p3574
sS'hike972'
p3575
S'Little Spokane River: Waikiki Springs trail'
p3576
sS'hike2298'
p3577
S'Alpine Lakes High Route'
p3578
sS'hike2299'
p3579
S'Nine Mile Dam Overlook via Centennial Trail'
p3580
sS'hike2495'
p3581
S'Shedroof Mountain Trail'
p3582
sS'hike2050'
p3583
S'Dry Gulch Short Route'
p3584
sS'hike2051'
p3585
S'Keechelus Ridge'
p3586
sS'hike2052'
p3587
S'Putnam Loop'
p3588
sS'hike2053'
p3589
S'Kalama Marina and River Walk'
p3590
sS'hike2054'
p3591
S'False Summit, Lookout Tower, and Mountain Lake Loop'
p3592
sS'hike2055'
p3593
S'Mismash Loop'
p3594
sS'hike2056'
p3595
S'Ring Road Trail'
p3596
sS'hike2057'
p3597
S'Bayview, Suzuki and Whiskey Hill Loop '
p3598
sS'hike2058'
p3599
S'Newcastle Golf Course Trail'
p3600
sS'hike2059'
p3601
S'Domerie Peak Trail'
p3602
sS'hike1088'
p3603
S'Snoqualmie Valley Trail: Three Forks to Rattlesnake Lake'
p3604
sS'hike1089'
p3605
S'Medical Lake Trail'
p3606
sS'hike1640'
p3607
S'South Indian Island Trail'
p3608
sS'hike1641'
p3609
S'Deadhouse Creek Trail to Golden Gate Trail Loop'
p3610
sS'hike1642'
p3611
S'Rattlesnake Trail'
p3612
sS'hike1643'
p3613
S'Manchester State Park Loop'
p3614
sS'hike1644'
p3615
S'Seaquest #2, #5, #9 Loop'
p3616
sS'hike1645'
p3617
S'Redmond Central Connector Trail'
p3618
sS'hike1646'
p3619
S'Central Meadow Outer Loop'
p3620
sS'hike1647'
p3621
S'Evans Creek Preserve Short Loop'
p3622
sS'hike1648'
p3623
S'Klickitat Trail'
p3624
sS'hike1649'
p3625
S'The Columbia River Mouth and Long Beach Peninsula Scenic Drive'
p3626
sS'hike974'
p3627
S'Spanaway Lake Trail'
p3628
sS'hike1290'
p3629
S'Lemei Trail to Lemei Rock'
p3630
sS'hike839'
p3631
S'Fourth of July Pass via Panther Creek Trail'
p3632
sS'hike838'
p3633
S'Moss Lake Trail'
p3634
sS'hike835'
p3635
S'Swauk Forest Discovery Trail'
p3636
sS'hike834'
p3637
S'Deception Creek Trail'
p3638
sS'hike837'
p3639
S'Indian, Shy Bear and Quarry Loop'
p3640
sS'hike836'
p3641
S'Hester Lake Trail'
p3642
sS'hike831'
p3643
S'Mount Teneriffe via Mount Teneriffe Trailhead'
p3644
sS'hike830'
p3645
S'Glass Beach'
p3646
sS'hike833'
p3647
S'Tunnel Creek Trail'
p3648
sS'hike832'
p3649
S'Discovery Park Extended Loop Trail'
p3650
sS'hike1396'
p3651
S'Dishman Hills Pond Loop Trail'
p3652
sS'hike1397'
p3653
S'Three Corners Rock'
p3654
sS'hike1394'
p3655
S'Sulphur Mountain Trail'
p3656
sS'hike1395'
p3657
S'Cady Ridge Trail'
p3658
sS'hike1392'
p3659
S'Hidden Lake Spur Via Palisades Lake Trail'
p3660
sS'hike1393'
p3661
S'Green River Trail'
p3662
sS'hike1390'
p3663
S'Florence Peak Trail'
p3664
sS'hike1391'
p3665
S'Skagit Tulip Fields'
p3666
sS'hike1398'
p3667
S'Reflection Lake to Narada Falls via Wonderland Trail'
p3668
sS'hike1399'
p3669
S'Swakane Wildlife Area'
p3670
sS'hike2478'
p3671
S'Bucoda to Fort Borst Boat Launch'
p3672
sS'hike2479'
p3673
S'Chief Timothy State Park Island Loop Trail'
p3674
sS'hike2472'
p3675
S'Mirabeau Point Loop'
p3676
sS'hike2473'
p3677
S'East Creek Trail to Mabee Pass and Horse Heaven Camp'
p3678
sS'hike2470'
p3679
S'Spade Lake and Venus Lake via Waptus River Trail'
p3680
sS'hike2471'
p3681
S'David Douglas Park Trail'
p3682
sS'hike2476'
p3683
S'Deer Fern to Rhodie Hill to Old Loop Road to Fire Loop'
p3684
sS'hike2477'
p3685
S'Gunsight Pass'
p3686
sS'hike2474'
p3687
S'Grey Wolf Deer Loop'
p3688
sS'hike2475'
p3689
S'Adventure and High School Trail Loop'
p3690
sS'hike2278'
p3691
S'Vashon Beach Walk'
p3692
sS'hike2279'
p3693
S'Marmot Lake and Tuck Lake'
p3694
sS'hike1268'
p3695
S'Elwha Overlook Trail'
p3696
sS'hike1269'
p3697
S'Ridley Creek Trail'
p3698
sS'hike901'
p3699
S'Dead Horse Creek Trail'
p3700
sS'hike900'
p3701
S'Bothell Landing Trail'
p3702
sS'hike903'
p3703
S'Carbon River Rain Forest Nature Trail'
p3704
sS'hike902'
p3705
S'Lake Sacajawea Park Trail'
p3706
sS'hike905'
p3707
S'Myrtle Edwards Park to Elliott Bay Park'
p3708
sS'hike904'
p3709
S'Tinkham Peak (Tinkham East Boot) Trail'
p3710
sS'hike907'
p3711
S'Shelton View Forest'
p3712
sS'hike906'
p3713
S'Joseph Whidbey State Park Trails'
p3714
sS'hike1068'
p3715
S'Baldy Mountain'
p3716
sS'hike1069'
p3717
S'Badger Valley to Grand Lake and Grand Pass Loop'
p3718
sS'hike1060'
p3719
S'Teeley Creek Trail #251 to Bertha May Lake'
p3720
sS'hike1061'
p3721
S'Foothills Trail: South Prairie to Puyallup'
p3722
sS'hike1062'
p3723
S'Birds Nest and Lookout Beach'
p3724
sS'hike1063'
p3725
S'Snoquera Falls and Moss Lake Loop Trail'
p3726
sS'hike1064'
p3727
S'Baring Mountain Trail'
p3728
sS'hike1065'
p3729
S'Castle Rock'
p3730
sS'hike1066'
p3731
S'Kautz Creek Trail to Mirror Lakes'
p3732
sS'hike1067'
p3733
S'Echo Valley Outer Loop Trail'
p3734
sS'hike349'
p3735
S'Big Gulch Trail'
p3736
sS'hike348'
p3737
S'Deception Pass Bridge and Beach Trail'
p3738
sS'hike347'
p3739
S'Badger Canyon Trail'
p3740
sS'hike346'
p3741
S'Chanterelle Trail'
p3742
sS'hike345'
p3743
S'Boardman Lake Trail'
p3744
sS'hike344'
p3745
S'Sourdough Ridge Nature Trail'
p3746
sS'hike343'
p3747
S'Cutthroat Lakes Via Walt Baily Trail'
p3748
sS'hike342'
p3749
S'Sleeping Beauty Trail'
p3750
sS'hike341'
p3751
S'Mercer Slough Nature Park'
p3752
sS'hike340'
p3753
S'Baker Lake Trail'
p3754
sS'hike2515'
p3755
S"Borrow Pit, North Trail and Jack's Trail Loop"
p3756
sS'hike2514'
p3757
S'Remanns Cabin to Dodger Point Lookout'
p3758
sS'hike2517'
p3759
S'Beckler River OHV Trail'
p3760
sS'hike2516'
p3761
S'Cultus Mountain West OHV Trail'
p3762
sS'hike2511'
p3763
S'Red Mountain and Canyon Creek OHV Trail'
p3764
sS'hike2510'
p3765
S'National Forest Development Road 100'
p3766
sS'hike2513'
p3767
S'Russell Ridge and Rimrock Lake OHV Loop'
p3768
sS'hike2512'
p3769
S'Green Mountain Trail'
p3770
sS'hike2519'
p3771
S'Gilbert Mountain Trail'
p3772
sS'hike2518'
p3773
S'Oroville Grind'
p3774
sS'hike29'
p3775
S'Mailbox Peak (New) Trail'
p3776
sS'hike28'
p3777
S'Granite Mountain Trail'
p3778
sS'hike21'
p3779
S'Dog Mountain Trail'
p3780
sS'hike20'
p3781
S'Skyline Trail'
p3782
sS'hike23'
p3783
S'The Enchantments Trail'
p3784
sS'hike22'
p3785
S'Blanca Lake Trail'
p3786
sS'hike25'
p3787
S'Oyster Dome Trail'
p3788
sS'hike24'
p3789
S'Discovery Park and Lighthouse Loop Trail'
p3790
sS'hike27'
p3791
S'Hidden Lake Lookout Trail'
p3792
sS'hike26'
p3793
S'Maple Pass Trail'
p3794
sS'hike233'
p3795
S'The Quillayute Needles Second Beach Trail'
p3796
sS'hike232'
p3797
S'Far Country Lookout and Longview Peak Cougar Mountain Loop Trail'
p3798
sS'hike231'
p3799
S'Hardy Falls and Pool of the Winds Falls via Hamilton Mountain Trail'
p3800
sS'hike230'
p3801
S'Pine and Cedar Lakes Trail'
p3802
sS'hike237'
p3803
S'Siouxon Trail: Siouxon Trailhead'
p3804
sS'hike236'
p3805
S'Wonderland Trail to Panhandle Gap'
p3806
sS'hike235'
p3807
S'Glacier View Trail (#267)'
p3808
sS'hike234'
p3809
S'Tumwater Falls Trail'
p3810
sS'hike570'
p3811
S'Pratt River Trail'
p3812
sS'hike239'
p3813
S'Mount Catherine (#1348)'
p3814
sS'hike238'
p3815
S'Lighthouse Point and Lottie Point via Rosario Head Trail'
p3816
sS'hike571'
p3817
S'Deer Ridge Trail'
p3818
sS'hike699'
p3819
S'Obstruction Pass Trail'
p3820
sS'hike698'
p3821
S'Huntoon Point Via Artist Point Trail'
p3822
sS'hike169'
p3823
S'Putvin Trail to Lake of the Angels'
p3824
sS'hike168'
p3825
S'Mount Adams South Climb Trail'
p3826
sS'hike691'
p3827
S'Silver Falls Trail'
p3828
sS'hike690'
p3829
S'Mount Baker Highway to Artist Point'
p3830
sS'hike161'
p3831
S'Cascade Pass Trail to Cottonwood Camp'
p3832
sS'hike160'
p3833
S'Klahhane Ridge Trail to Lake Angeles'
p3834
sS'hike167'
p3835
S'Gem Lake via Snow Lake and High Lakes Trail'
p3836
sS'hike166'
p3837
S'Gold Creek Pond Trail'
p3838
sS'hike697'
p3839
S'Northhead Lighthouse Loop Trail'
p3840
sS'hike696'
p3841
S'Discovery Historic Loop'
p3842
sS'hike2609'
p3843
S'BR-4602 and BR-17 OHV Loop'
p3844
sS'hike2608'
p3845
S'Taneum Creek OHV Loop'
p3846
sS'hike2601'
p3847
S'Slick Ear Trail'
p3848
sS'hike2600'
p3849
S'North Twentymile Trail'
p3850
sS'hike2603'
p3851
S'Sumas Mountain and P-1000 OHV Loop'
p3852
sS'hike2602'
p3853
S'Waddell Creek OHV Trail'
p3854
sS'hike2605'
p3855
S'Gravel Pit via Prairie Road'
p3856
sS'hike2604'
p3857
S'North Fork Taneum OHV Loop'
p3858
sS'hike2607'
p3859
S'Slate Peak OHV Trail'
p3860
sS'hike2606'
p3861
S'Lawson Bluffs Trail'
p3862
sS'hike578'
p3863
S'Ridgefield National Wildlife Refuge'
p3864
sS'hike579'
p3865
S'Coal Creek Falls Trail'
p3866
sS'hike589'
p3867
S'Cascade Lake Trail'
p3868
sS'hike588'
p3869
S'Goat Peak'
p3870
sS'hike585'
p3871
S'Crawford Oaks Trailhead'
p3872
sS'hike584'
p3873
S'Johnston Ridge Observatory Walk'
p3874
sS'hike587'
p3875
S'Horsethief Butte Trail'
p3876
sS'hike586'
p3877
S'Middle Tiger Trail'
p3878
sS'hike581'
p3879
S'Lake Lenore Caves'
p3880
sS'hike580'
p3881
S'LBA Park Loop Trail'
p3882
sS'hike583'
p3883
S'Silver Peak via Cold Creek and Pacific Crest Trail'
p3884
sS'hike582'
p3885
S'Lighthouse Point and Lottie Point Loop Trail'
p3886
sS'hike765'
p3887
S'Mt. Spokane State Park'
p3888
sS'hike764'
p3889
S'Windy Ridge and Plains of Abraham Loop '
p3890
sS'hike767'
p3891
S'Grand Park Trail'
p3892
sS'hike766'
p3893
S'Davis Peak Lookout Trail'
p3894
sS'hike761'
p3895
S'Umtanum Creek Canyon Trail'
p3896
sS'hike760'
p3897
S'Walker Valley OHV Trail'
p3898
sS'hike763'
p3899
S'East Fork of the Lewis River Trail: Hantwick Road Trailhead'
p3900
sS'hike762'
p3901
S'Manastash Lake Trail'
p3902
sS'hike769'
p3903
S'High Pass Trail'
p3904
sS'hike768'
p3905
S'Iverson Railroad and Northwest Timber Trails'
p3906
sS'hike567'
p3907
S"Alta Mountain South Ridge Climber's Trail"
p3908
sS'hike566'
p3909
S'Wagonwheel Lake Trail'
p3910
sS'hike1888'
p3911
S'Fern Lake Trail'
p3912
sS'hike1889'
p3913
S'Orange Gate Park Loop'
p3914
sS'hike563'
p3915
S'Meet Cutter to River Trail Loop'
p3916
sS'hike562'
p3917
S'Twanoh Trail'
p3918
sS'hike561'
p3919
S'Grand Pass Trail'
p3920
sS'hike560'
p3921
S'Turtleback Mountain South Trail '
p3922
sS'hike1882'
p3923
S'Edmonds Boardwalk to Marina Beach Park'
p3924
sS'hike1883'
p3925
S'Lost Pass Primitive Trail'
p3926
sS'hike1880'
p3927
S'Old Road Loop to Wildlife Trail'
p3928
sS'hike1881'
p3929
S'BPA Trail'
p3930
sS'hike1886'
p3931
S'Domke Lake Trail'
p3932
sS'hike1887'
p3933
S'Cyrus Gates Overlook to Lost Lake Trail via Ridge Trail'
p3934
sS'hike1884'
p3935
S'Nestor Peak Trail'
p3936
sS'hike1885'
p3937
S'Skyline Ridge Trail'
p3938
sS'hike1455'
p3939
S'Crystal Mountain Loop Trail'
p3940
sS'hike1296'
p3941
S"Fred's Railroad and Wilderness Peak Loop"
p3942
sS'hike2443'
p3943
S'Whispering Pines Loop'
p3944
sS'hike2442'
p3945
S'Trail 212 and 25 Loop'
p3946
sS'hike1464'
p3947
S'Pilchuck Trail '
p3948
sS'hike1465'
p3949
S'Lewis Butte'
p3950
sS'hike1466'
p3951
S'Woods Creek Watchable Wildlife Trail'
p3952
sS'hike1467'
p3953
S'Echo Point Trail'
p3954
sS'hike1460'
p3955
S'Greenleaf Falls Trail Via Pacific Crest Trail'
p3956
sS'hike1461'
p3957
S'Middle Trail and Beaver Ponds Trail Loop '
p3958
sS'hike1462'
p3959
S'Scarborough Hill Trail'
p3960
sS'hike1463'
p3961
S'Scatter Lake Trail'
p3962
sS'hike1468'
p3963
S'Sunrise Mine Trail'
p3964
sS'hike1469'
p3965
S'Junction Lake via East Crater Trail'
p3966
sS'hike2449'
p3967
S"Fenceline, River, Katie's, West Pond and Sewer Line Trail "
p3968
sS'hike1729'
p3969
S'Three Forks Trail'
p3970
sS'hike1728'
p3971
S'Fort Ward Upper Loop via Ridge Trail'
p3972
sS'hike1727'
p3973
S'Klondike Swamp Loop'
p3974
sS'hike1726'
p3975
S'Hidden Lakes Trail'
p3976
sS'hike1725'
p3977
S'Sulphur Creek Trail'
p3978
sS'hike933'
p3979
S'Augspurger Mountain: Dog and Cat Trail '
p3980
sS'hike1723'
p3981
S'White Chuck Mountain Trail'
p3982
sS'hike1722'
p3983
S'Terrace Trail'
p3984
sS'hike1721'
p3985
S'Dusty Lake to Ancient Lakes'
p3986
sS'hike1720'
p3987
S'La Rush and Bear Lakes Trail'
p3988
sS'hike2285'
p3989
S'Larch and Rock Candy Peaks'
p3990
sS'hike2284'
p3991
S'Odessa Craters Trail'
p3992
sS'hike2287'
p3993
S"Dirty Harry's Trail [CLOSED]"
p3994
sS'hike2286'
p3995
S'Coyote Wall Long Loop'
p3996
sS'hike2281'
p3997
S'Pompey Peak via Forest Road #2304'
p3998
sS'hike2280'
p3999
S'Vance Creek Bridge [PRIVATE PROPERTY]'
p4000
sS'hike2283'
p4001
S'Lily Point Loop'
p4002
sS'hike2282'
p4003
S'Blazed Ridge and Bear Creek Loop'
p4004
sS'hike2289'
p4005
S'Old School to Jackleg to Mainline Loop'
p4006
sS'hike2288'
p4007
S'Grouse Ridge Trail'
p4008
sS'hike2043'
p4009
S'Paris Creek Trail'
p4010
sS'hike2042'
p4011
S'Coupeville Coast to Coast '
p4012
sS'hike2041'
p4013
S'Larch Lake via Deadhorse Pass'
p4014
sS'hike2040'
p4015
S'Copper Creek Hut via Rainier Vista Trail '
p4016
sS'hike2047'
p4017
S'Franklin Ghost Town Trail  [PRIVATE PROPERTY]'
p4018
sS'hike1090'
p4019
S'Rasar State Park Loop'
p4020
sS'hike2045'
p4021
S'South Bessemer Mountain Trail'
p4022
sS'hike2044'
p4023
S'San Juan Hill Trail'
p4024
sS'hike2049'
p4025
S'Table Mountain via Aldrich Butte [PRIVATE PROPERTY]'
p4026
sS'hike2048'
p4027
S'Bench Lake '
p4028
sS'hike1099'
p4029
S'Hoodoo Canyon Trail'
p4030
sS'hike1098'
p4031
S'Boundary West Trail'
p4032
sS'hike1653'
p4033
S'Devils Gulch Trail'
p4034
sS'hike1652'
p4035
S'Dead Horse Canyon: Wild Plant Walk'
p4036
sS'hike1651'
p4037
S'Elk Ridge, Hermit, Sherwood'
p4038
sS'hike1650'
p4039
S'Anti Aircraft Ridge Trail to Klondike Swamp Loop'
p4040
sS'hike1657'
p4041
S'Kiwa Trail'
p4042
sS'hike1656'
p4043
S'Naches Trail'
p4044
sS'hike1655'
p4045
S'Spiral Butte Trail'
p4046
sS'hike1654'
p4047
S'Bridle Crest Trail'
p4048
sS'hike1659'
p4049
S'Bagley Seam Trail'
p4050
sS'hike1658'
p4051
S'Smith Creek Butte Trail'
p4052
sS'hike2319'
p4053
S'Everett Peak, and Mount Appleton Loop Trail'
p4054
sS'hike525'
p4055
S'Shi Shi to Ozette River Beach Trail'
p4056
sS'hike1389'
p4057
S'Ebey Slough Trail'
p4058
sS'hike1388'
p4059
S'Pratt Lake Trail via Mason Lake Trail'
p4060
sS'hike828'
p4061
S'Soda Peaks Lake Trail'
p4062
sS'hike829'
p4063
S'Elk Lake Trail'
p4064
sS'hike1381'
p4065
S'Peek-A-Boo Lake Trail'
p4066
sS'hike1380'
p4067
S'Poodle Dog Pass Silver Lake Trail'
p4068
sS'hike1383'
p4069
S'Ridell Lake'
p4070
sS'hike1382'
p4071
S'Bainbridge Island Waterfront Trail'
p4072
sS'hike1385'
p4073
S'Sunrise Lake Trail'
p4074
sS'hike1384'
p4075
S'Beach, Fern Alley and Outbound Loop'
p4076
sS'hike1387'
p4077
S'Black Lake'
p4078
sS'hike1386'
p4079
S'North Beach Park to Glass Beach'
p4080
sS'hike524'
p4081
S'Easton Glacier via Railroad Grade Trail'
p4082
sS'hike967'
p4083
S'Lake Youngs'
p4084
sS'hike916'
p4085
S'Priest Point'
p4086
sS'hike917'
p4087
S'PCT: WA Section L - Rainy Pass to Manning Park, BC'
p4088
sS'hike914'
p4089
S'Oregon Butte Trail'
p4090
sS'hike915'
p4091
S'Vista Ridge Trail'
p4092
sS'hike2469'
p4093
S'Golden Spike, SST, and Back Door Loop'
p4094
sS'hike2468'
p4095
S'Jackman Creek OHV Trail'
p4096
sS'hike910'
p4097
S'Gibbs Lake Trail'
p4098
sS'hike911'
p4099
S'White Pass Pilot Ridge Loop Trail'
p4100
sS'hike2465'
p4101
S'Norada Falls to Mazama Ridge Loop'
p4102
sS'hike2464'
p4103
S'Walker Valley Upper Mainland, WV-22, and Bear Creek OHV Loop'
p4104
sS'hike2467'
p4105
S'Bygone Byways Interpretive Trail'
p4106
sS'hike2466'
p4107
S'Ericsons Bay Primitive Trail '
p4108
sS'hike2461'
p4109
S'Sewerline and West Pond Loop '
p4110
sS'hike2460'
p4111
S'Filloon Trail'
p4112
sS'hike2463'
p4113
S'CCC Trail: North Section'
p4114
sS'hike2462'
p4115
S'Dog Mountain [PRIVATE PROPERTY]'
p4116
sS'hike2269'
p4117
S'Yellow Lake Loop'
p4118
sS'hike2268'
p4119
S'Black Jack Ridge Trail'
p4120
sS'hike1279'
p4121
S'Kiket Trail'
p4122
sS'hike1278'
p4123
S'Porpoise Point Trail'
p4124
sS'hike2263'
p4125
S'Blue Lake Trail # 604'
p4126
sS'hike2262'
p4127
S'Middle Fork Snolqualmie River Trail'
p4128
sS'hike2261'
p4129
S'Coal Mine and West Access Trail'
p4130
sS'hike2260'
p4131
S'May Creek Loop'
p4132
sS'hike2267'
p4133
S'Marcus Peak Trail'
p4134
sS'hike2266'
p4135
S'Lightning and Duff Springs via South Side Trail'
p4136
sS'hike2265'
p4137
S'Goose Prairie Trail'
p4138
sS'hike2264'
p4139
S'Blue Lake Buttes Trail (to Blue Lake)'
p4140
sS'hike1079'
p4141
S'Cougar Lake and Little Cougar Lake Trail'
p4142
sS'hike1078'
p4143
S'Amabilis Mountain Trail'
p4144
sS'hike1073'
p4145
S'Tahuya Lookout OHV Loop '
p4146
sS'hike1072'
p4147
S'Maple Glade Nature Trail'
p4148
sS'hike1071'
p4149
S'Washougal River Greenway Trail'
p4150
sS'hike1070'
p4151
S'Lake Elizabeth Trail'
p4152
sS'hike1077'
p4153
S'Poo Poo Point, West Tiger and TMT Loop'
p4154
sS'hike1076'
p4155
S'Elk Mountain Trail Loop'
p4156
sS'hike1075'
p4157
S'Big Rock Trail'
p4158
sS'hike1074'
p4159
S'Box Canyon Trail'
p4160
sS'hike358'
p4161
S"Putrid Pete's Peak Trail"
p4162
sS'hike359'
p4163
S"Pete's Creek Trail to Colonel Bob Peak Trail"
p4164
sS'hike354'
p4165
S'Lost Valley Trail and McKenny Trail Loop'
p4166
sS'hike355'
p4167
S'Lila Lake Trail'
p4168
sS'hike356'
p4169
S'Weeks Falls Interpretive Trail'
p4170
sS'hike357'
p4171
S'John Wayne Pioneer Trail (Snoqualmie Tunnel)'
p4172
sS'hike350'
p4173
S'Centennial Trail'
p4174
sS'hike351'
p4175
S'Rimrock Conservation Area Palisades Park Loop Trail'
p4176
sS'hike352'
p4177
S'Cirque Rim Nature Trail'
p4178
sS'hike353'
p4179
S'Lake Fenwick'
p4180
sS'hike14'
p4181
S'Mailbox Peak Trail Loop'
p4182
sS'hike15'
p4183
S'Hurricane Hill via Hurricane Ridge'
p4184
sS'hike16'
p4185
S'Annette Lake Trail '
p4186
sS'hike17'
p4187
S'Chirico Trail to Poo-Poo Point'
p4188
sS'hike10'
p4189
S'Heather Lake Trail'
p4190
sS'hike11'
p4191
S'Colchuck Lake Trail'
p4192
sS'hike12'
p4193
S'Mount Pilchuck Trail'
p4194
sS'hike13'
p4195
S'Franklin Falls Trail 1036'
p4196
sS'hike18'
p4197
S'Mount Ellinor Trail '
p4198
sS'hike19'
p4199
S'Hamilton Mountain and Rodney Falls Trail'
p4200
sS'hike220'
p4201
S'The Washington Park Arboretum'
p4202
sS'hike221'
p4203
S'Lake Valhalla Trail'
p4204
sS'hike222'
p4205
S'Pinnacle Peak Loop Trail'
p4206
sS'hike223'
p4207
S'Catherine Creek Trail (021)'
p4208
sS'hike224'
p4209
S'Dog Mountain Long Loop Trail'
p4210
sS'hike225'
p4211
S'Snow Lakes Trail'
p4212
sS'hike226'
p4213
S'Lower Big Quilcene to Notch Pass Trail Junction'
p4214
sS'hike227'
p4215
S'Teneriffe Falls via Mount Teneriffe Trail'
p4216
sS'hike228'
p4217
S'Coyote Loop Trail'
p4218
sS'hike229'
p4219
S'Carbon Glacier Trail'
p4220
sS'hike178'
p4221
S'Dungeness Spit Trail'
p4222
sS'hike179'
p4223
S'Reflection Lake to Narada Falls'
p4224
sS'hike170'
p4225
S'Thunder Knob Trail'
p4226
sS'hike171'
p4227
S'Quinault Loop Trail'
p4228
sS'hike172'
p4229
S'Vesper Peak Trail'
p4230
sS'hike173'
p4231
S'Dishman Hills Natural Area Trail'
p4232
sS'hike174'
p4233
S'Sourdough Mountain Trail'
p4234
sS'hike175'
p4235
S'Swan Creek Trail'
p4236
sS'hike176'
p4237
S'Snoquera Falls Loop Trail'
p4238
sS'hike177'
p4239
S'Upper Big Creek Loop Trail'
p4240
sS'hike2678'
p4241
S'Mason Lake Loop'
p4242
sS'hike2679'
p4243
S'Mason Lake Trail'
p4244
sS'hike2674'
p4245
S'Canyon Ridge OHV Trail '
p4246
sS'hike2675'
p4247
S'Capital Forest and Peaks OHV Trail'
p4248
sS'hike2676'
p4249
S'Walker Valley OHV Trail Loop '
p4250
sS'hike2677'
p4251
S'Capital Forest and Divide Trail OHV Loop'
p4252
sS'hike2670'
p4253
S'Tahuya River OHV Trail'
p4254
sS'hike2671'
p4255
S'Loch Eileen Trail [CLOSED]'
p4256
sS'hike2672'
p4257
S'Beaver, Babcock and Ranger Trail Loop'
p4258
sS'hike2673'
p4259
S'Mount Molly and Capitol Forest OHV Loop'
p4260
sS'hike598'
p4261
S'Glacier Vista Loop via Skyline Trail'
p4262
sS'hike599'
p4263
S'Johnson Ridge Trail'
p4264
sS'hike592'
p4265
S'Chelan Butte Trail'
p4266
sS'hike593'
p4267
S'Burke-Gilman Trail: West Lake Washington'
p4268
sS'hike590'
p4269
S'Historic Columbia River Gorge Highway'
p4270
sS'hike591'
p4271
S'Skyline, Glacier Vista, Upper Skyline and Golden Gate Loop'
p4272
sS'hike596'
p4273
S'Mount Rainier Northern Loop Trail'
p4274
sS'hike597'
p4275
S'Wapato Lake Trail'
p4276
sS'hike594'
p4277
S'North Creek Trail'
p4278
sS'hike595'
p4279
S'Striped Peak Trail'
p4280
sS'hike772'
p4281
S'Washington Pass Overlook Trail'
p4282
sS'hike773'
p4283
S'Eldorado Peak East Ridge Trail'
p4284
sS'hike770'
p4285
S'Summit Ridge Loop'
p4286
sS'hike771'
p4287
S'West Elwha River Trail'
p4288
sS'hike776'
p4289
S'Walt Bailey Trail'
p4290
sS'hike777'
p4291
S'Lost Lake Trail'
p4292
sS'hike774'
p4293
S'McLane School Forest Trail'
p4294
sS'hike775'
p4295
S'Cape Disappointment to Breakers Trail'
p4296
sS'hike778'
p4297
S'Gold Creek Trail to Joe Lake'
p4298
sS'hike779'
p4299
S'Evergreen Trail'
p4300
sS'hike574'
p4301
S'Bagley Creek Loop Trail'
p4302
sS'hike575'
p4303
S'Mount McCausland Trail'
p4304
sS'hike576'
p4305
S'Peabody Creek Trail'
p4306
sS'hike577'
p4307
S'Back of Pinnacle Peak'
p4308
sS'hike1899'
p4309
S'Olympic National Park Foothills Trail'
p4310
sS'hike1898'
p4311
S'McAlester Lake Trail'
p4312
sS'hike572'
p4313
S'Owen Beach Trail'
p4314
sS'hike573'
p4315
S"Devil's Spur"
p4316
sS'hike1895'
p4317
S'Lighthouse Keepers Trail'
p4318
sS'hike1894'
p4319
S'Rainbow Town and Red Town Loop Trail'
p4320
sS'hike1897'
p4321
S'Maiden Peak from Deer Park Campground'
p4322
sS'hike1896'
p4323
S'Chico Trail and South Loop'
p4324
sS'hike1891'
p4325
S'Tumwater Hill Park Trail '
p4326
sS'hike1890'
p4327
S'New Panther Lake Trail'
p4328
sS'hike1893'
p4329
S'Snolqualmie Valley Trail'
p4330
sS'hike1892'
p4331
S'Myrtle Lake via Entiat River and Cow Creek Trail'
p4332
sS'hike686'
p4333
S'Mount Baker Standard Summit Route'
p4334
sS'hike687'
p4335
S'Talapus Lake via Pratt Lake Trail'
p4336
sS'hike684'
p4337
S'Snoquera Falls'
p4338
sS'hike685'
p4339
S'Fallsview Canyon Trail'
p4340
sS'hike682'
p4341
S"Debbie's View via May Valley Loop and West Peak Trail"
p4342
sS'hike683'
p4343
S'Grand Lake via Badger Valley Trail'
p4344
sS'hike680'
p4345
S'Badger Skyline Trail'
p4346
sS'hike681'
p4347
S'Shoreview and Boeing Creek Loop'
p4348
sS'hike985'
p4349
S'Dog Lake to Cramer Lake Trail'
p4350
sS'hike688'
p4351
S'Bullitt Access Loop'
p4352
sS'hike689'
p4353
S'Puget Park Trail'
p4354
sS'hike2086'
p4355
S'Lahar Viewpoint Trail'
p4356
sS'hike989'
p4357
S'Pratt Lake Trail to Melakwa Lake Trail to Loop'
p4358
sS'hike324'
p4359
S'Evans Creek Preserve Trail'
p4360
sS'hike1432'
p4361
S'Bird Meadow Trail to Bird Lake Trail'
p4362
sS'hike2080'
p4363
S'China Lake Loop'
p4364
sS'hike1828'
p4365
S'West Tiger #1 via Preston and Tiger Mountain Trail Loop'
p4366
sS'hike1829'
p4367
S'Ravenna Creek Trail'
p4368
sS'hike1477'
p4369
S'Alta Lake Trail'
p4370
sS'hike1476'
p4371
S'Ross Dam and Diablo Lake Trail'
p4372
sS'hike1475'
p4373
S'Trail 121: Waterfall Loop'
p4374
sS'hike1474'
p4375
S'Pacific Crest Trail: Chinook Pass to White Pass'
p4376
sS'hike1473'
p4377
S'Plummer and Beaver Pond Trail'
p4378
sS'hike1472'
p4379
S'Dry Gulch South Ridge and Rooster Comb Loop'
p4380
sS'hike1471'
p4381
S'Pend Oreille Pathfinder Loop'
p4382
sS'hike1470'
p4383
S'Pine Lakes Loop Trail'
p4384
sS'hike1479'
p4385
S'Ironstone Mountain Trail'
p4386
sS'hike1478'
p4387
S'Middle Point Trail to Ski Bluewood'
p4388
sS'hike1820'
p4389
S'Carne Mountain Basin'
p4390
sS'hike1821'
p4391
S'Uplands Loop: Short Draw, Summit and Turtle Gulch Trails'
p4392
sS'hike1712'
p4393
S'Green Dots Trails at Whiskey Dick OHV Trail'
p4394
sS'hike1713'
p4395
S'James T. Slavin Nature Loop'
p4396
sS'hike1710'
p4397
S'Goat Island Mountain Trail'
p4398
sS'hike1711'
p4399
S'Bayview and Mimzie Trail '
p4400
sS'hike1716'
p4401
S'Independence Pass Interpretive Trail'
p4402
sS'hike1717'
p4403
S'Military Road, Coal Creek Falls, Wildside Trail'
p4404
sS'hike1714'
p4405
S'Old Butte via Jacobson Trail'
p4406
sS'hike1715'
p4407
S'South Skookum Trail'
p4408
sS'hike1718'
p4409
S'Frog Lake Trail'
p4410
sS'hike1719'
p4411
S'Spine Line, Ravine Run, Boundary Trails Loop'
p4412
sS'hike2076'
p4413
S'Cathy\xe2\x80\x99s Trail'
p4414
sS'hike2077'
p4415
S'Chamna Natural Preserve Trail'
p4416
sS'hike2074'
p4417
S"Granny's, Sacred Ridge, Farm and Upper Loop Trail"
p4418
sS'hike2075'
p4419
S'Lewis and Clark Columbia River Shoreline Short Loop'
p4420
sS'hike2072'
p4421
S'Maynard Burn Way (historical)'
p4422
sS'hike2073'
p4423
S'Kiwa Trail'
p4424
sS'hike2070'
p4425
S"O'Neill Pass To Lake La Crosse Loop"
p4426
sS'hike2071'
p4427
S'Trail 25 to Trail 100'
p4428
sS'hike555'
p4429
S'Marymoor Park Trail'
p4430
sS'hike2078'
p4431
S'Corral Pass Campground to Hidden Lake'
p4432
sS'hike2079'
p4433
S'Cedar Downs Park'
p4434
sS'hike1666'
p4435
S'Traditinal Lake to Wetlands Trail Loop'
p4436
sS'hike1667'
p4437
S'Stafford Creek / Standup Creek Loop'
p4438
sS'hike1664'
p4439
S'Bear Ridge to Shangri La Trail to West Tibbetts Creek Loop'
p4440
sS'hike1665'
p4441
S'Spine Line and Boundary Trails Loop'
p4442
sS'hike1095'
p4443
S'Mount Molly via Waddell Basin West Trail'
p4444
sS'hike1663'
p4445
S'Dry Gulch Big Loop'
p4446
sS'hike1660'
p4447
S'North, Wetland, Big Loop and Big Tree Loop'
p4448
sS'hike1661'
p4449
S'Spencer Spit Trail'
p4450
sS'hike1668'
p4451
S'Rat Pac Trail'
p4452
sS'hike1669'
p4453
S'Summit Springs Trail #173 (Snass Creek)'
p4454
sS'hike2388'
p4455
S'Capitol Forest and Rocky Candy Mountain OHV Loop'
p4456
sS'hike2389'
p4457
S'Dry Creek Trail'
p4458
sS'hike2384'
p4459
S'Frozen Trail '
p4460
sS'hike2385'
p4461
S'Root Lake Trail'
p4462
sS'hike2386'
p4463
S'Spectacle Lake Trail'
p4464
sS'hike2387'
p4465
S'Lower Falls and Woodburn Falls via Lake to Lake Trail'
p4466
sS'hike2380'
p4467
S'Image Lake via Suiattle Trail'
p4468
sS'hike2381'
p4469
S'Flagg Mountain Loop'
p4470
sS'hike2382'
p4471
S'Halliday Trail'
p4472
sS'hike2383'
p4473
S'West Duwamish Greenbelt and Douglas Fir Spur Trail'
p4474
sS'hike1759'
p4475
S'West Access and Chybinski Loop '
p4476
sS'hike2339'
p4477
S'Blackhorse Lake Boardwalk'
p4478
sS'hike1096'
p4479
S'Lookout Mountain Trail'
p4480
sS'hike2338'
p4481
S'Tarbell and Thrillium'
p4482
sS'hike963'
p4483
S'Black Canyon Trail'
p4484
sS'hike962'
p4485
S'Emerald Ridge Trail'
p4486
sS'hike2492'
p4487
S'Peterson Lake Trail'
p4488
sS'hike960'
p4489
S'McKay Marsh Trail'
p4490
sS'hike2494'
p4491
S'Desert 100 OHV Loop'
p4492
sS'hike966'
p4493
S'Weatherwax Trail'
p4494
sS'hike965'
p4495
S'Tiger Mountain Adventure Trail'
p4496
sS'hike2497'
p4497
S'Upward Mobility, Poppin Top, Flow State Loop'
p4498
sS'hike2498'
p4499
S'Golden Tiger Pathway'
p4500
sS'hike2499'
p4501
S'Canyon Rest Trail to Boundary Butte'
p4502
sS'hike969'
p4503
S'Useless Bay Tidelands'
p4504
sS'hike968'
p4505
S'Rock Mountain Trail'
p4506
sS'hike1280'
p4507
S'Tipsoo Lake Loop'
p4508
sS'hike1281'
p4509
S'Round the Mountain Trail'
p4510
sS'hike1282'
p4511
S'Mount Higgins'
p4512
sS'hike1283'
p4513
S'Vista Loop via Entry Road'
p4514
sS'hike1284'
p4515
S'Big Tree Ridge Trail: Short Version'
p4516
sS'hike1285'
p4517
S'Centennial Trail West'
p4518
sS'hike1286'
p4519
S'Holder Ridge, Road A, Road F and Whiskey Still Loop'
p4520
sS'hike1287'
p4521
S'Waterworks Canyon Trail'
p4522
sS'hike1288'
p4523
S'Lynndale Park Woods Trail'
p4524
sS'hike1289'
p4525
S'Watmough Bay Trail'
p4526
sS'hike2254'
p4527
S'Agate Bay Preserve Loop'
p4528
sS'hike2255'
p4529
S'Big Flat '
p4530
sS'hike2252'
p4531
S'Capitol Forest Loop from Mima Falls Trailhead'
p4532
sS'hike2253'
p4533
S'Swinomish Channel Loop via Knudson Lane'
p4534
sS'hike2250'
p4535
S'Stewart Memorial Park Trail'
p4536
sS'hike2251'
p4537
S'Chewelah Mountain Trail'
p4538
sS'hike2333'
p4539
S'Mount Adams Short Loop'
p4540
sS'hike1048'
p4541
S'Anderson Lake Trail'
p4542
sS'hike1049'
p4543
S'Airport Trail'
p4544
sS'hike1046'
p4545
S'Tieton Nature Trail'
p4546
sS'hike1047'
p4547
S'Northwest Trek Wildlife Park Loop'
p4548
sS'hike1044'
p4549
S'Upper Maynard Burn Way Trail'
p4550
sS'hike2332'
p4551
S'Marine Loop Trail'
p4552
sS'hike1042'
p4553
S'Horseshoe Basin Via Boundary Trail'
p4554
sS'hike1043'
p4555
S'Iron Horse Trail: Washington Creek'
p4556
sS'hike1040'
p4557
S'Trillium Trail'
p4558
sS'hike1041'
p4559
S'Alger Alps'
p4560
sS'hike369'
p4561
S'Knothead Valley Loop'
p4562
sS'hike368'
p4563
S'Covel Creek Falls and Angel Falls Trail'
p4564
sS'hike361'
p4565
S'Lookout Mountain Forest Preserve'
p4566
sS'hike360'
p4567
S'Index Town Wall Trail'
p4568
sS'hike363'
p4569
S'Blackbird Island Trail'
p4570
sS'hike362'
p4571
S'Umtanum Ridge Crest Trail'
p4572
sS'hike365'
p4573
S'Sahale Arm Trail to Quien Sabe Glacier'
p4574
sS'hike364'
p4575
S'Humpback Mountain Trail'
p4576
sS'hike367'
p4577
S'Old Pipeline Bed Trail'
p4578
sS'hike366'
p4579
S'Ashland Lakes Trail'
p4580
sS'hike2272'
p4581
S'Purple Creek Trail'
p4582
sS'hike219'
p4583
S'Mount Rainier Standard Summit Route'
p4584
sS'hike218'
p4585
S"Stan's Overlook"
p4586
sS'hike215'
p4587
S'Ira Spring Memorial Trail'
p4588
sS'hike214'
p4589
S'Sugarloaf Mountain and Mount Erie Loop Trail'
p4590
sS'hike217'
p4591
S'Ape Canyon Trail'
p4592
sS'hike216'
p4593
S'Burroughs Mountain Trail'
p4594
sS'hike211'
p4595
S'Otter and Big Creek Falls Via Taylor River Trail'
p4596
sS'hike210'
p4597
S'Sky Country (Cougar Mountain) Trail'
p4598
sS'hike213'
p4599
S'Explorer Falls Trail'
p4600
sS'hike212'
p4601
S'Mount Ellinor via Upper Trailhead'
p4602
sS'hike2669'
p4603
S'Minnow Creek to Chikamin Ridge to Chikamin Creek Loop'
p4604
sS'hike2668'
p4605
S'Lava Canyon Loop and FR 83 Extension Trail Loop [CLOSED]'
p4606
sS'hike2667'
p4607
S'Little Bald Mountain Trail'
p4608
sS'hike2666'
p4609
S'Little Naches River and Mount Clifty OHV Trail'
p4610
sS'hike2665'
p4611
S'Taneum Frost Mountain OHV Loop'
p4612
sS'hike2664'
p4613
S'Greek Creek OHV Loop'
p4614
sS'hike2663'
p4615
S'Glacier View to Lake Helen'
p4616
sS'hike2662'
p4617
S'Gold Creek Trail, Green Mountain, and Wildcat Trail OHV Trail'
p4618
sS'hike2661'
p4619
S'Walker BR-0611 and BR-17 OHV Loop'
p4620
sS'hike2660'
p4621
S'Group Camp Hiking Loop'
p4622
sS'hike2274'
p4623
S'Nisqually State Park Trail'
p4624
sS'hike789'
p4625
S'Salsbury Point Trail'
p4626
sS'hike788'
p4627
S'Trillium Trail and Pipeline Regional Trail'
p4628
sS'hike787'
p4629
S'Olympic Hot Springs, Appleton Pass, and Sol Duc Loop Trail'
p4630
sS'hike786'
p4631
S'Victoria, Armstrong, & Pilchuck Trails'
p4632
sS'hike785'
p4633
S'Port Gamble and Poulsbo'
p4634
sS'hike784'
p4635
S'Lake Hills Lake to Lake Trail'
p4636
sS'hike783'
p4637
S'Talapus Lake Trail to Mason Lake'
p4638
sS'hike782'
p4639
S'Lacamas Lake Heritage Trail'
p4640
sS'hike781'
p4641
S'Teanaway Ridge Trail (#1364)'
p4642
sS'hike780'
p4643
S'Oyster Dome Loop'
p4644
sS'hike1860'
p4645
S'Lower Elkspur and Upper Elkspur Loop'
p4646
sS'hike1861'
p4647
S'Quartz Creek Trail #5 and #5b'
p4648
sS'hike1862'
p4649
S'Buck Mountain Loop Trail'
p4650
sS'hike1863'
p4651
S'Cowlitz River Trail'
p4652
sS'hike1864'
p4653
S'Lower Maynard Burn Way Trail'
p4654
sS'hike1865'
p4655
S'Tucannon River Trail'
p4656
sS'hike1866'
p4657
S'Lunch Lake Trail'
p4658
sS'hike1867'
p4659
S'Trout Lake, Middle and Upper Copper Falls and Malachite Falls'
p4660
sS'hike1868'
p4661
S'The Winthrop Trail'
p4662
sS'hike1869'
p4663
S'Greenbelt Walkway Trail'
p4664
sS'hike540'
p4665
S'Spider Gap - Buck Creek Pass Loop'
p4666
sS'hike145'
p4667
S'Bench and Snow Lakes Trail'
p4668
sS'hike144'
p4669
S"Ebey's Landing Trail"
p4670
sS'hike147'
p4671
S'Rattlesnake Mountain Trail to East Peak'
p4672
sS'hike146'
p4673
S'Ancient Lakes Trail'
p4674
sS'hike141'
p4675
S'Soundview and Grandview Trail Loop'
p4676
sS'hike140'
p4677
S'Green Lake Trail'
p4678
sS'hike143'
p4679
S'Mount Rose Trail'
p4680
sS'hike142'
p4681
S'Woodburn Falls and Round Lake via Lake to Lake Trail'
p4682
sS'hike543'
p4683
S'Gray Wolf Trail'
p4684
sS'hike148'
p4685
S'Nisqually Vista Trail'
p4686
sS'hike545'
p4687
S'Goat Mountain Trail'
p4688
sS'hike1918'
p4689
S'Northern North Cascades Loop Trail'
p4690
sS'hike1919'
p4691
S'WA 520 Trail'
p4692
sS'hike1448'
p4693
S'Mount Erie and Whistle Lake Loop'
p4694
sS'hike1449'
p4695
S'Mirror Lake to Pacific Crest Trail '
p4696
sS'hike544'
p4697
S'Magnuson Park Waterfront Trail'
p4698
sS'hike1910'
p4699
S'Weather Beach Trail'
p4700
sS'hike1911'
p4701
S'Boot, Knee Knocker, and Sherwood Loop'
p4702
sS'hike1912'
p4703
S'Mount Shuksan Sulphide Glacier'
p4704
sS'hike1913'
p4705
S"Mount Rainier Overlook via River and Katie's Trail"
p4706
sS'hike1914'
p4707
S'Forbes Valley Trail'
p4708
sS'hike1915'
p4709
S'Baldy Trail (historical) Via Gray Wolf Trail'
p4710
sS'hike1916'
p4711
S'Alaska Lake via Gold Creek Trail '
p4712
sS'hike1917'
p4713
S'Mount Cleman via Waterworks Canyon Trail'
p4714
sS'hike1705'
p4715
S'Sasse Mountain Trail (#1340)'
p4716
sS'hike1704'
p4717
S'Silver King Via Silver Creek Trail'
p4718
sS'hike546'
p4719
S'John Wayne Pioneer Trail: North Bend to Lake Easton'
p4720
sS'hike1706'
p4721
S'Osborne Mountain Trail'
p4722
sS'hike1701'
p4723
S'Hamlin Park Loop'
p4724
sS'hike1700'
p4725
S'Sun Mountain via Sunnyside Trail'
p4726
sS'hike1703'
p4727
S'Cultus Creek Trail'
p4728
sS'hike1702'
p4729
S'Fuzzy Top Trail'
p4730
sS'hike1058'
p4731
S'Squak Mountain East Ridge'
p4732
sS'hike1709'
p4733
S'Deep Creek Trail'
p4734
sS'hike1708'
p4735
S'Cowlitz Divide Trail'
p4736
sS'hike2069'
p4737
S'Marmot Lake Trail via Tucquala Meadows'
p4738
sS'hike2068'
p4739
S'Warren G. Magnuson Park Loop'
p4740
sS'hike2349'
p4741
S'Howson Creek Trail'
p4742
sS'hike2061'
p4743
S'Lake Louise Loop '
p4744
sS'hike2060'
p4745
S'Boulder Lake Trail'
p4746
sS'hike2063'
p4747
S'Squilchuck State Park Loop'
p4748
sS'hike2062'
p4749
S'Tanner Trail'
p4750
sS'hike2065'
p4751
S'Klemgard County Park Loop'
p4752
sS'hike2064'
p4753
S'Lake Pondilla Loop'
p4754
sS'hike2067'
p4755
S'Spokane River Centennial Trail from East Euclid Avenue'
p4756
sS'hike2066'
p4757
S'Goose Lake Campground'
p4758
sS'hike1679'
p4759
S'Tomyhoi Lake Trail'
p4760
sS'hike1678'
p4761
S'Lake Sammamish Loop'
p4762
sS'hike1671'
p4763
S'Pine Lake'
p4764
sS'hike1670'
p4765
S'Mount Spokane from Hairpin Turn Parking Trailhead'
p4766
sS'hike1673'
p4767
S'Klickitat Rail Trail'
p4768
sS'hike1672'
p4769
S'Press Expedition Traverse'
p4770
sS'hike1675'
p4771
S'Beacon Hill Extended Loop via Esmeralda Trail'
p4772
sS'hike1674'
p4773
S'Fragrance Lake Two Dollar Trail Loop'
p4774
sS'hike1677'
p4775
S'Welcome Pass, Excelsior Peak, and Damfino Lakes from Forest Service Road 3060 via High Divide Trail'
p4776
sS'hike1676'
p4777
S'Suntop Trail'
p4778
sS'hike2399'
p4779
S'Wonderland Trail to Shadow Lake'
p4780
sS'hike2398'
p4781
S'Frangrance Lake and Black Diamond DD Loop'
p4782
sS'hike2397'
p4783
S'Cowiche Mountain via William O Douglas Trail'
p4784
sS'hike2396'
p4785
S'Napol Cabin Trail'
p4786
sS'hike2395'
p4787
S'Thorp Lake and Thorp Mountain'
p4788
sS'hike2394'
p4789
S'James Pond Nature Trail'
p4790
sS'hike2393'
p4791
S'Chelan Summit Trail to Purple Point'
p4792
sS'hike2392'
p4793
S'Angels Staircase Loop Trail'
p4794
sS'hike2391'
p4795
S'Angel Pass Trail'
p4796
sS'hike2390'
p4797
S'Evans Creek Trail'
p4798
sS'hike1082'
p4799
S'Asahel Curtis Nature Trail'
p4800
sS'hike1338'
p4801
S'Larry Scott Trail'
p4802
sS'hike1083'
p4803
S'Necklace Valley and Tank Lakes'
p4804
sS'hike898'
p4805
S'Kachess Ridge Trail'
p4806
sS'hike2483'
p4807
S'Ridge Loop to Weazel Run '
p4808
sS'hike2482'
p4809
S'Franklin Falls via National Forest Development Rd 5800'
p4810
sS'hike2481'
p4811
S'McCellan Butte OHV Trail'
p4812
sS'hike2480'
p4813
S'Sweetgrass Butte via Goat Creek OHV Road'
p4814
sS'hike2487'
p4815
S'Bridge Creek Trail to North Fork, Grizzly Creek'
p4816
sS'hike2486'
p4817
S'Puffer Butte'
p4818
sS'hike2485'
p4819
S'Westcrest Park North Loop'
p4820
sS'hike2484'
p4821
S'Extended Loop from Bracken Trailhead'
p4822
sS'hike978'
p4823
S'Killen Creek Trail'
p4824
sS'hike1662'
p4825
S'Mount Spokane'
p4826
sS'hike2489'
p4827
S'Flow State, Raging Ridge, No Service, Return Policy, Upward Mobility Loop'
p4828
sS'hike2488'
p4829
S'John Wayne Pioneer Trail: Warden to Plummer'
p4830
sS'hike1332'
p4831
S'Agnes Gorge Trail'
p4832
sS'hike2241'
p4833
S'Newcastle Highlands to De Leo Wall Loop'
p4834
sS'hike2240'
p4835
S'Tiger Mountain MTB Loop: Northwest Timber, The Legend, Joyride, East Tiger, Master Link'
p4836
sS'hike2243'
p4837
S'Andrews Creek Trail to Cathedral Lakes'
p4838
sS'hike2242'
p4839
S'Trail 25 and 410 Loop'
p4840
sS'hike2245'
p4841
S'Wenatchee Ridge'
p4842
sS'hike2244'
p4843
S'360 Project Horse and Pedestrian Loop'
p4844
sS'hike2247'
p4845
S'Mount Maude via Phelps Creek Trail'
p4846
sS'hike2246'
p4847
S'Cascading Terraces Nature Trail'
p4848
sS'hike2249'
p4849
S"Kautz to Longmire via Indian Henry's Hunting Ground"
p4850
sS'hike2248'
p4851
S'Lower River Run to Upper River Run Trail'
p4852
sS'hike1299'
p4853
S'Sullivan Lake'
p4854
sS'hike1298'
p4855
S'Lower Elkspur and Beaver Creek Loop'
p4856
sS'hike1081'
p4857
S'Little Bear Trail: Bitterbrush Loop'
p4858
sS'hike1956'
p4859
S'Nimbus Knob, Goldback and Pond Loop Trail'
p4860
sS'hike1335'
p4861
S'Aurora Ridge Trail'
p4862
sS'hike1051'
p4863
S'Antoine Peak Summit Loop from East Trailhead'
p4864
sS'hike1050'
p4865
S'South Beach and Hidden Valley Loop Trail'
p4866
sS'hike1053'
p4867
S'Winslow Pool'
p4868
sS'hike1957'
p4869
S'Rattlesnake Hill'
p4870
sS'hike1055'
p4871
S'Winter Block via Birdhouse Trail'
p4872
sS'hike1054'
p4873
S'North Cascades Scenic Byway'
p4874
sS'hike1057'
p4875
S'Hiram M. Chittenden Locks'
p4876
sS'hike1056'
p4877
S'Lost Lake and Ridge Trail Loop'
p4878
sS'hike1059'
p4879
S'Primrose Trail via Coal Creek Trail'
p4880
sS'hike1950'
p4881
S'Herman Saddle Ski Tour'
p4882
sS'hike1337'
p4883
S'Fragrance Lake Extended Loop'
p4884
sS'hike1951'
p4885
S'Big Tree Loop'
p4886
sS'hike2277'
p4887
S'Home Lake via Upper Big Quilcene, Upper Dungeness, Constance Pass'
p4888
sS'hike1952'
p4889
S'Thorp Mountain via Knox Creek and Kachess Ridge Trails'
p4890
sS'hike1953'
p4891
S'Wetland to Big Loop to North Loop'
p4892
sS'hike1087'
p4893
S'Shy Bear Trail'
p4894
sS'hike208'
p4895
S'Crystal Lakes Trail to Sourdough Gap'
p4896
sS'hike209'
p4897
S'Lake Ann'
p4898
sS'hike202'
p4899
S'Japanese Gulch Loop Trail'
p4900
sS'hike203'
p4901
S'Bowl and Pitcher Loop Trail'
p4902
sS'hike200'
p4903
S'Black Diamond Coal Mine Trail'
p4904
sS'hike201'
p4905
S'Coldwater Lake Trail'
p4906
sS'hike206'
p4907
S'Anderson and Watson Lakes Trail'
p4908
sS'hike207'
p4909
S"Sawmill, Margaret's, Beach House, and Stump House Loop"
p4910
sS'hike204'
p4911
S'Ellis Cove Trail'
p4912
sS'hike205'
p4913
S'Shangrila, Anti-Aircraft Ridge Loop Trail'
p4914
sS'hike414'
p4915
S'Lake Padden Singletrack'
p4916
sS'hike2652'
p4917
S'John Wayne Pioneer Trail'
p4918
sS'hike2653'
p4919
S'Strobach Mountain and Jump Off Lookout OHV Loop'
p4920
sS'hike2650'
p4921
S'Osborne Mountain and South Park OHV Loop'
p4922
sS'hike2651'
p4923
S'Warm Beach Trail [PRIVATE PROPERTY]'
p4924
sS'hike2656'
p4925
S'Rimrock Lake OHV Loop'
p4926
sS'hike2657'
p4927
S'Tahuya River Trail, Mission Creek, and Long Marsh OHV Loop'
p4928
sS'hike2654'
p4929
S'Mount Clifty OHV Trail'
p4930
sS'hike2655'
p4931
S'Overland and Mission Creek 4wd Loop '
p4932
sS'hike2658'
p4933
S'North Leg Saratoga Loop'
p4934
sS'hike2659'
p4935
S'Three Corner Rock Trail [CLOSED]'
p4936
sS'hike1835'
p4937
S'Yakima Wine and Fruit Challenge'
p4938
sS'hike2525'
p4939
S'Finney Creek and Iron Mountain OHV Trail'
p4940
sS'hike377'
p4941
S'Soaring Eagle Park Trail'
p4942
sS'hike374'
p4943
S'Talapus Lake Trail'
p4944
sS'hike375'
p4945
S'Lake Whatcom Trail'
p4946
sS'hike372'
p4947
S'Lake Valhalla Trail'
p4948
sS'hike373'
p4949
S'Lake Wilderness'
p4950
sS'hike370'
p4951
S'Rocky Brook Falls'
p4952
sS'hike371'
p4953
S'South Coldwater Trail to Lakes Trail Loop'
p4954
sS'hike378'
p4955
S'Taylor River Trail'
p4956
sS'hike379'
p4957
S'Skyline Lake Trail'
p4958
sS'hike798'
p4959
S'Coal Mines Trail'
p4960
sS'hike799'
p4961
S'Swamp, Ruths Kees Big Tree and Bus Trail Loop'
p4962
sS'hike794'
p4963
S'Three Peaks Loop'
p4964
sS'hike795'
p4965
S'Mountain Home Ridge'
p4966
sS'hike796'
p4967
S'Sugarloaf Mountain Trail'
p4968
sS'hike797'
p4969
S'Lummi Peak Trail'
p4970
sS'hike790'
p4971
S'Rosario Head Trail'
p4972
sS'hike791'
p4973
S'Mount Adams: South Spur and Mazama Glacier'
p4974
sS'hike792'
p4975
S'Scott Paul Trail Loop'
p4976
sS'hike793'
p4977
S'Coal Creek to Primrose Trail'
p4978
sS'hike1873'
p4979
S'West Tiger #3 via Cable Line and Nook Trail Loop'
p4980
sS'hike2524'
p4981
S'Overland Trail, Tahuya River, and Mission Creek OHV Loop'
p4982
sS'hike1871'
p4983
S'Ravensdale'
p4984
sS'hike1870'
p4985
S'McNary Wildlife Nature Loop'
p4986
sS'hike1877'
p4987
S'Port Angeles Waterfront'
p4988
sS'hike1876'
p4989
S'Rugged Ridge Trail'
p4990
sS'hike1875'
p4991
S'Emmons Moraine Trail'
p4992
sS'hike1874'
p4993
S'Lake Janus Trail'
p4994
sS'hike556'
p4995
S'Bradley Lake Trail Loop'
p4996
sS'hike557'
p4997
S'Salmon-Morgan Creeks Trail'
p4998
sS'hike1879'
p4999
S'Fay Peak Trail'
p5000
sS'hike1878'
p5001
S'Three Tree Point Indian Trail'
p5002
sS'hike552'
p5003
S'Frozen Lake'
p5004
sS'hike392'
p5005
S'Snow Lake Trail to Source Lake Spur Trail'
p5006
sS'hike550'
p5007
S'Boulder Garden Loop Trail'
p5008
sS'hike551'
p5009
S'Blue Mountain Trail'
p5010
sS'hike2527'
p5011
S'Broken Tree Trail'
p5012
sS'hike2520'
p5013
S'Fortune Creek OHV Trail'
p5014
sS'hike2521'
p5015
S'Rosario Hill '
p5016
sS'hike152'
p5017
S'Moulton Falls - East Fork of the Lewis River Trail'
p5018
sS'hike153'
p5019
S'Cedar Butte Trail'
p5020
sS'hike150'
p5021
S'Snowgrass Flats and Goat Lake Loop Trail'
p5022
sS'hike151'
p5023
S'Paradise Valley Conservation Area Trail'
p5024
sS'hike156'
p5025
S'Main Trail and Temple Pond Loop Trail'
p5026
sS'hike157'
p5027
S'Nook Trail to West Tiger Three Trail'
p5028
sS'hike154'
p5029
S'Rachel and Rampart Lakes Trail'
p5030
sS'hike155'
p5031
S'Monte Cristo Trail'
p5032
sS'hike158'
p5033
S'Rampart Ridge Loop Trail'
p5034
sS'hike159'
p5035
S'Glacier Basin Trail'
p5036
sS'hike1707'
p5037
S'Taylor Mountain Loop'
p5038
sS'hike2522'
p5039
S'Burton Acres'
p5040
sS'hike1909'
p5041
S'Fisher Pond'
p5042
sS'hike1908'
p5043
S'30 Acre Lake Trail'
p5044
sS'hike1459'
p5045
S'Dingford Creek Trail '
p5046
sS'hike1458'
p5047
S'Cashmere Mountain'
p5048
sS'hike1903'
p5049
S'Alaska Mountain and Central Alpine Lakes Trail'
p5050
sS'hike1902'
p5051
S'Fallen Leaf Lake'
p5052
sS'hike1901'
p5053
S'Wapaloosie Trail'
p5054
sS'hike1900'
p5055
S'Paradise Point State Park Loop'
p5056
sS'hike1907'
p5057
S'Hoodsport Trail Loop'
p5058
sS'hike1906'
p5059
S'Huckleberry Creek Trail'
p5060
sS'hike1905'
p5061
S'Irely Lake Trail'
p5062
sS'hike1904'
p5063
S'Lake Augusta Trail'
p5064
sS'hike2'
p5065
S'Mount Si Trail'
p5066
sS'hike2523'
p5067
S'Mount Josephine High Landing OHV Trail'
p5068
sS'hike3'
p5069
S'Wallace Falls Trail'
p5070
sS'hike0'
p5071
S'Rattlesnake Ledge Trail '
p5072
sS'hike1'
p5073
S'Lake 22 Trail'
p5074
sS'hike6'
p5075
S'Lake Serene Trail and Bridal Veil Falls'
p5076
sS'hike7'
p5077
S'Poo Poo Point Trail'
p5078
sS'hike4'
p5079
S'Twin Falls Trail'
p5080
sS'hike5'
p5081
S'Snow Lake Trail'
p5082
sS'hike8'
p5083
S'Little Si Trail'
p5084
sS'hike9'
p5085
S'Tolmie Peak Trail'
p5086
sS'hike134'
p5087
S'McClellan Butte Trail'
p5088
sS'hike2018'
p5089
S'Bunker Hill Trail  '
p5090
sS'hike2019'
p5091
S'Lynnwood Golf Course Walk'
p5092
sS'hike135'
p5093
S'Murhut Falls Trail'
p5094
sS'hike2014'
p5095
S'Piper\xe2\x80\x99s Creek and North Traverse Trail Loop '
p5096
sS'hike2015'
p5097
S'Bear Creek Trail'
p5098
sS'hike2016'
p5099
S"Heli's Pond Loop"
p5100
sS'hike2017'
p5101
S'Kennedy Creek Basin and Falls '
p5102
sS'hike2010'
p5103
S'Salmon la Sac Creek'
p5104
sS'hike2011'
p5105
S'Pacific Crest Trail from Panther Creek'
p5106
sS'hike2012'
p5107
S'Tokul Walking Trail'
p5108
sS'hike2013'
p5109
S'Tokul East Loop'
p5110
sS'hike137'
p5111
S'Heliotrope Ridge Trail'
p5112
sS'hike1608'
p5113
S'Tunnel Creek Trail to Hope Lake'
p5114
sS'hike1609'
p5115
S'Boundary West End Trail to Johnson Ridge Observatory'
p5116
sS'hike1604'
p5117
S'Wallula Gap Overlook '
p5118
sS'hike1605'
p5119
S'Shorthorn Trail'
p5120
sS'hike1606'
p5121
S'Thompson Lake Trail '
p5122
sS'hike1607'
p5123
S'Mimzie Loop'
p5124
sS'hike1600'
p5125
S'Issaquah Highlands Loop'
p5126
sS'hike1601'
p5127
S'Snoqualmie Falls Viewpoint via Preston-Snoqualmie Trail '
p5128
sS'hike1602'
p5129
S"Sam's River Trail"
p5130
sS'hike1603'
p5131
S'Cave B Waterfall Trail'
p5132
sS'hike132'
p5133
S'Sauk Mountain Trail'
p5134
sS'hike133'
p5135
S'Yellow Aster Butte Trail'
p5136
sS'hike2120'
p5137
S'Lundin Peak View and Red Mountain via Old Commonwealth Trail'
p5138
sS'hike2121'
p5139
S'Cold Creek to Forest Road 9070'
p5140
sS'hike2122'
p5141
S'Shinglemill Creek Loop'
p5142
sS'hike2123'
p5143
S'West Fork Methow Trail'
p5144
sS'hike2124'
p5145
S'Frink Park Loop'
p5146
sS'hike2125'
p5147
S'Winchester Wasteway'
p5148
sS'hike2126'
p5149
S'Huckleberry Saddle via Blue Lake Trailhead'
p5150
sS'hike2127'
p5151
S'Middle Fork Snoqualmie Loop'
p5152
sS'hike2128'
p5153
S'Sunrise Rock Trail'
p5154
sS'hike2129'
p5155
S'Burping Brook Loop Trail'
p5156
sS'hike1110'
p5157
S'Trap Lake Trail'
p5158
sS'hike1111'
p5159
S'Evans Creek Preserve from Sahalee Way'
p5160
sS'hike1112'
p5161
S'Stevens Creek Trail'
p5162
sS'hike1113'
p5163
S'Lower Dungeness Trail'
p5164
sS'hike1114'
p5165
S'Purcell Falls Trail'
p5166
sS'hike1115'
p5167
S'Mill Butte Trail'
p5168
sS'hike1116'
p5169
S'Griff Creek Trail'
p5170
sS'hike1117'
p5171
S'Everett: Spencer Island'
p5172
sS'hike1118'
p5173
S'Indian Heaven Lakes Trail'
p5174
sS'hike1119'
p5175
S'Scenic Beach State Park'
p5176
sS'hike529'
p5177
S'Mima Mounds Trail'
p5178
sS'hike528'
p5179
S'Green Mountain Trail'
p5180
sS'hike949'
p5181
S'Deschutes Falls'
p5182
sS'hike948'
p5183
S'Cherry Creek Falls Trail [PRIVATE PROPERTY]'
p5184
sS'hike522'
p5185
S'Padilla Bay Trail'
p5186
sS'hike945'
p5187
S'Candy Mountain'
p5188
sS'hike944'
p5189
S'Rock Creek Escure Ranch Trail'
p5190
sS'hike947'
p5191
S'Vancouver Lake'
p5192
sS'hike946'
p5193
S'Clayton Beach Trail'
p5194
sS'hike941'
p5195
S'Wilderness Cliffs Trail via Squak Mountain Connector Trail'
p5196
sS'hike940'
p5197
S'Arboretum Waterfront Trail'
p5198
sS'hike943'
p5199
S'Wildside Trail'
p5200
sS'hike942'
p5201
S'Olympic Discovery Trail'
p5202
sS'hike2234'
p5203
S'William Cannon Trail'
p5204
sS'hike2235'
p5205
S'Goat Mountain and Green River Loop Trail'
p5206
sS'hike2236'
p5207
S'Hurricane Ridge Loop From Port Angeles'
p5208
sS'hike2237'
p5209
S'Harvey Creek'
p5210
sS'hike2230'
p5211
S'Ray Trail'
p5212
sS'hike2231'
p5213
S'Squak Mountain Connector Trail'
p5214
sS'hike2232'
p5215
S'Six Ridge Trail'
p5216
sS'hike2233'
p5217
S'Emmons Glacier Summit via Glacier Basin Trail'
p5218
sS'hike2238'
p5219
S'Muddy Meadows Trail'
p5220
sS'hike2239'
p5221
S'Fern Cove'
p5222
sS'hike1024'
p5223
S'Rattlesnake Lake Trail'
p5224
sS'hike1025'
p5225
S'Yelm Tenino Trail'
p5226
sS'hike1026'
p5227
S'Phillip Arnold Park (The Tapeworm and Parasite Trails)'
p5228
sS'hike1027'
p5229
S'Deceiver Trail'
p5230
sS'hike1020'
p5231
S'North Fork Sauk Trail'
p5232
sS'hike1021'
p5233
S'Tradition Lake, Around the Lake and Bus Trail Loop'
p5234
sS'hike1022'
p5235
S'Tacoma Narrows Bridge'
p5236
sS'hike1023'
p5237
S'Golden Gardens Trail'
p5238
sS'hike1849'
p5239
S'Grade Creek to Cooper Ridge'
p5240
sS'hike1028'
p5241
S'Turtleback Mountain to Orcas Knob'
p5242
sS'hike1029'
p5243
S'Toutle River Trail'
p5244
sS'hike1442'
p5245
S'Lake Ethel Trail'
p5246
sS'hike2348'
p5247
S'Basin Lake via Norse Peak Trail, Goat Lake Trail, and PCT'
p5248
sS'hike2490'
p5249
S'Upper Dungeness Trail to Heather Creek Trail'
p5250
sS'hike2491'
p5251
S'Tinkham OHV Trail'
p5252
sS'hike2340'
p5253
S'Forest Park, Saddle Back and Summit West Trail'
p5254
sS'hike2341'
p5255
S'Mount Erie Rock Climbing Sunshine Wall'
p5256
sS'hike2342'
p5257
S'Ape Canyon to Plains of Abraham'
p5258
sS'hike2343'
p5259
S'Grassy Top Trail'
p5260
sS'hike2344'
p5261
S'Beauty Creek Falls Trail'
p5262
sS'hike961'
p5263
S'Denny Creek Road to Franklin Falls Trail 1036'
p5264
sS'hike2346'
p5265
S'Sand Creek and Devils Gulch OHV Trail '
p5266
sS'hike2347'
p5267
S'Methow River: Carlton to McFarland Creek'
p5268
sS'hike128'
p5269
S'Mount Saint Helens via Worm Flows Trail'
p5270
sS'hike1339'
p5271
S'Cypress Island: Pelican Trail'
p5272
sS'hike899'
p5273
S'Lake to Lake Trail Loop via Lacamas Creek'
p5274
sS'hike2493'
p5275
S'Ephemeral to Big Leaf Trail Loop'
p5276
sS'hike1330'
p5277
S'Kalaloch Nature Trail'
p5278
sS'hike892'
p5279
S'Saratoga Woods Trail'
p5280
sS'hike891'
p5281
S'Rocky Brook Falls Trail'
p5282
sS'hike890'
p5283
S'Saltese Uplands Trail'
p5284
sS'hike897'
p5285
S'Point Wilson Trail'
p5286
sS'hike896'
p5287
S'Larch Mountain MTB Trail'
p5288
sS'hike895'
p5289
S'Spruce Nature Trail and Hall of Mosses Loop'
p5290
sS'hike894'
p5291
S'Aldrich Butte Trail Via Pacific Crest Trail'
p5292
sS'hike2496'
p5293
S'Trail 29: Placid Lake to PCT'
p5294
sS'hike419'
p5295
S'Golden Gate Trail'
p5296
sS'hike418'
p5297
S'Lincoln Park Trail'
p5298
sS'hike417'
p5299
S'Josephine Lake View Trail'
p5300
sS'hike416'
p5301
S'Ingalls Creek Trail to Lake Ingalls'
p5302
sS'hike415'
p5303
S'Second Beach at Low Tide Loop'
p5304
sS'hike964'
p5305
S'Camano Island State Park Trail'
p5306
sS'hike413'
p5307
S'Eagle Peak Trail'
p5308
sS'hike412'
p5309
S'Four Cedars Outer Loop'
p5310
sS'hike411'
p5311
S'Hidden Lake Trail'
p5312
sS'hike410'
p5313
S'Church Mountain Trail'
p5314
sS'hike2645'
p5315
S'Pioneer Trails [PRIVATE PROPERTY]'
p5316
sS'hike2644'
p5317
S'Davis and Wildcat OHV Trail '
p5318
sS'hike2647'
p5319
S'Mission Creek to Horse Camp OHV Trail'
p5320
sS'hike2646'
p5321
S'Osborne Mountain and South Park OHV Trail'
p5322
sS'hike2641'
p5323
S'Langley via Cascade Ave and Edgecliff Dr'
p5324
sS'hike2640'
p5325
S'Shedroof Divide Trail #512 from Pass Creek to Helmer Mountain'
p5326
sS'hike2643'
p5327
S'Boulder Cave and Edgar Rock OHV Loop'
p5328
sS'hike2642'
p5329
S'Smuggler Poker Run'
p5330
sS'hike2649'
p5331
S'Anderson Lake'
p5332
sS'hike2648'
p5333
S'Red Mountain OHV Loop'
p5334
sS'hike303'
p5335
S'Sammamish River Trail'
p5336
sS'hike302'
p5337
S'Starvation Ridge and Warren Lake Trail '
p5338
sS'hike301'
p5339
S'Whistle Lake Trail'
p5340
sS'hike300'
p5341
S"Heart O' the Forest Trail"
p5342
sS'hike307'
p5343
S'Thornton Lakes Trail'
p5344
sS'hike306'
p5345
S'High Lakes Loop Trail'
p5346
sS'hike305'
p5347
S'Normandy Beach Trail'
p5348
sS'hike304'
p5349
S'Flapjack Lakes Trail'
p5350
sS'hike2046'
p5351
S'Downey Creek Trail'
p5352
sS'hike308'
p5353
S'Lake Constance Trail'
p5354
sS'hike1846'
p5355
S'Happy Creek Falls'
p5356
sS'hike1847'
p5357
S'Sand Lake Trail'
p5358
sS'hike1844'
p5359
S'Sherman Pass Trail'
p5360
sS'hike1845'
p5361
S'Anti-Aircraft Ridge Trail and Tibbetts Marsh Trail'
p5362
sS'hike1842'
p5363
S'Golden Lakes Loop'
p5364
sS'hike1843'
p5365
S'Possession Point State Park Loop'
p5366
sS'hike1840'
p5367
S'Military Road Trail'
p5368
sS'hike1841'
p5369
S'Red Bluff Trail (#533)'
p5370
sS'hike523'
p5371
S'Beacon Hill Trail'
p5372
sS'hike848'
p5373
S'Island Lake Trail'
p5374
sS'hike521'
p5375
S'Juan De Fuca Marine Trail to Mystic Beach Outlook'
p5376
sS'hike520'
p5377
S'Black and White Lakes Primitive Trail'
p5378
sS'hike527'
p5379
S'Mount Washington'
p5380
sS'hike526'
p5381
S'Olympic Peninsula Loop Drive'
p5382
sS'hike1848'
p5383
S'John Wayne Pioneer Trail: Ewan to Tekoa'
p5384
sS'hike849'
p5385
S'Grasshopper Pass via the PCT'
p5386
sS'hike2258'
p5387
S'Equestrian Loop'
p5388
sS'hike2259'
p5389
S'Otto Preserve Loop'
p5390
sS'hike2256'
p5391
S'Langille Ridge Trail'
p5392
sS'hike2257'
p5393
S'Green River Trail'
p5394
sS'hike2553'
p5395
S'Green Mountain Trail [PRIVATE PROPERTY]'
p5396
s.