(dp0
S'hike1598'
p1
S'Mount Constitution From Cascade Lake'
p2
sS'hike1599'
p3
S'Mystic Lake via Carbon River and Wonderland Trails'
p4
sS'hike1594'
p5
S'Kettle Falls and Jungle Hill Trail'
p6
sS'hike1595'
p7
S'Big Tree Ridge, Red Cedars, Surprise Creek, Precipice Top and Military Ridge Trail Loop'
p8
sS'hike1596'
p9
S'Whitman Mission'
p10
sS'hike1597'
p11
S'Poe Mountain Trail'
p12
sS'hike1590'
p13
S'Boundary West End Trail to Johnson Ridge Observatory'
p14
sS'hike1591'
p15
S'Summit Springs Trail #173 (Snass Creek)'
p16
sS'hike1592'
p17
S'Beaver Lake Park Loop'
p18
sS'hike1593'
p19
S'Lewis River Trail'
p20
sS'hike637'
p21
S'Lanham Lake Trail'
p22
sS'hike636'
p23
S'Coal Creek and Primrose Trail Loop from Lakemont Blvd'
p24
sS'hike635'
p25
S'Porter Creek Falls'
p26
sS'hike634'
p27
S'Teneriffe Falls Loop via the Mount Teneriffe Trail'
p28
sS'hike633'
p29
S'North Head Discovery Trail'
p30
sS'hike632'
p31
S'Cowiche Canyon Trail'
p32
sS'hike631'
p33
S'Commencement Bay Trail'
p34
sS'hike630'
p35
S'Deer Park Road'
p36
sS'hike2318'
p37
S'Padden Parkway Trail'
p38
sS'hike639'
p39
S'Moments in Time Trail'
p40
sS'hike638'
p41
S'Wallace Falls and Wallace Lake Loop'
p42
sS'hike136'
p43
S'Bench and Snow Lakes Trail'
p44
sS'hike559'
p45
S'Seattle Waterfront Pathway'
p46
sS'hike1938'
p47
S'Interurban, Hemlock, and Huckleberry Loop'
p48
sS'hike1939'
p49
S'Sunnybrook Meadows Trail'
p50
sS'hike1936'
p51
S'Camino Ridge Forest Preserve Loop'
p52
sS'hike1937'
p53
S'Thorp Mountain via Knox Creek and Kachess Ridge Trails'
p54
sS'hike1934'
p55
S'Wallace Falls MTB Loop'
p56
sS'hike1935'
p57
S'South Shore Trail'
p58
sS'hike1932'
p59
S'Herman Saddle Ski Tour'
p60
sS'hike1933'
p61
S'Spokane River Centennial Trail from East Euclid Avenue'
p62
sS'hike1930'
p63
S"Trout Lake and Jack's Ridge Loop Trail"
p64
sS'hike1931'
p65
S'Redmond Connector to PSE Trail to Sammamish River Trail Loop'
p66
sS'hike1045'
p67
S'Hiram M. Chittenden Locks'
p68
sS'hike564'
p69
S'Lighthouse Point and Lottie Point Loop Trail'
p70
sS'hike130'
p71
S'Mount Defiance and Mason Lake via Ira Spring Memorial Trail, Old Mason Lake Trail, and Mount Defiance Ridge Trail'
p72
sS'hike131'
p73
S'Greenwater Lakes Trail'
p74
sS'hike2009'
p75
S'Bunker Hill Trail  '
p76
sS'hike2008'
p77
S'Salmon la Sac Creek'
p78
sS'hike2007'
p79
S'Robinson Canyon Loop'
p80
sS'hike2006'
p81
S'Piper\xe2\x80\x99s Creek and North Traverse Trail Loop '
p82
sS'hike2005'
p83
S'Perkins Pond Nature Trail'
p84
sS'hike2004'
p85
S'Crown Point Vista'
p86
sS'hike2003'
p87
S'Kirkland Waterfront'
p88
sS'hike2002'
p89
S'Coupeville Coast to Coast '
p90
sS'hike2001'
p91
S'Lynnwood Golf Course Walk'
p92
sS'hike2000'
p93
S"Heli's Pond Loop"
p94
sS'hike1619'
p95
S'Dixie Peak via Teneriffe Trail'
p96
sS'hike1618'
p97
S'South Indian Island Trail'
p98
sS'hike1617'
p99
S'Happy Lake Ridge Trail'
p100
sS'hike1616'
p101
S'Gray Wolf Pass'
p102
sS'hike1615'
p103
S'Section Line, Nook and Bus Trail '
p104
sS'hike1614'
p105
S'Kendall Skyline Road'
p106
sS'hike1613'
p107
S'Redmond Central Connector Trail'
p108
sS'hike1612'
p109
S'Central Meadow Outer Loop'
p110
sS'hike1611'
p111
S'Seaquest #2, #5, #9 Loop'
p112
sS'hike1610'
p113
S'Luther Burbank Park Loop'
p114
sS'hike2133'
p115
S'Crescent Beach Trail'
p116
sS'hike2132'
p117
S'River View Quarry Road Loop '
p118
sS'hike2131'
p119
S'Centennial Walk'
p120
sS'hike2130'
p121
S'The East Wing'
p122
sS'hike2137'
p123
S'Louis Lake'
p124
sS'hike2136'
p125
S'Perimeter, Holton Wetland and Ravine Drop Off Trail '
p126
sS'hike2135'
p127
S'Mounument Creek Trail from Lost River to Pistol Pass'
p128
sS'hike2134'
p129
S'Coyote Wall Long Loop'
p130
sS'hike2139'
p131
S'Ridge Loop to Old Indian Loop'
p132
sS'hike2138'
p133
S'134, 118, 10, 123 and 108 Trail Loop '
p134
sS'hike1103'
p135
S'May Valley Short Loop'
p136
sS'hike1102'
p137
S'Mount Molly via Waddell Basin West Trail'
p138
sS'hike1101'
p139
S'Strawberry Mountain Trail'
p140
sS'hike1100'
p141
S'Little Bear Trail: Bitterbrush Loop'
p142
sS'hike1107'
p143
S'Purcell Falls Trail'
p144
sS'hike1106'
p145
S'Lower Dungeness Trail'
p146
sS'hike1105'
p147
S'Griff Creek Trail'
p148
sS'hike1104'
p149
S'Trap Lake Trail'
p150
sS'hike1109'
p151
S'Heather Lake Trail #1526'
p152
sS'hike1108'
p153
S'Centennial Snowshoe Hut via Mount Kit Carson Loop Road'
p154
sS'hike958'
p155
S'South Wedge Mountain Trail'
p156
sS'hike959'
p157
S'Black Canyon Trail'
p158
sS'hike952'
p159
S'West, Old Naches, and Land of the Giants Loop'
p160
sS'hike953'
p161
S'Lake Youngs'
p162
sS'hike950'
p163
S'Oregon Butte Grand Loop Trail'
p164
sS'hike951'
p165
S'Wildside Trail'
p166
sS'hike956'
p167
S'May Creek Trail from Lake Boren Park'
p168
sS'hike957'
p169
S'Boulder Lake Trail  '
p170
sS'hike954'
p171
S'Tonga Ridge Trail'
p172
sS'hike955'
p173
S'West Tiger #1'
p174
sS'hike2227'
p175
S'Equestrian Loop'
p176
sS'hike2226'
p177
S'Lower River Run to Upper River Run Trail'
p178
sS'hike2225'
p179
S'360 Project Horse and Pedestrian Loop'
p180
sS'hike2224'
p181
S'Otto Preserve Loop'
p182
sS'hike2223'
p183
S"Kautz to Longmire via Indian Henry's Hunting Ground"
p184
sS'hike2222'
p185
S'Wenatchee Ridge'
p186
sS'hike2221'
p187
S'Nisqually State Park Trail'
p188
sS'hike2220'
p189
S'Swinomish Channel Loop via Knudson Lane'
p190
sS'hike1080'
p191
S'Medical Lake Trail'
p192
sS'hike2229'
p193
S'Rimrock Drive'
p194
sS'hike2228'
p195
S'May Creek Loop'
p196
sS'hike1037'
p197
S'Tradition Lake, Around the Lake and Bus Trail Loop'
p198
sS'hike1036'
p199
S'Olympic Discovery Trail: Port Angeles Waterfront'
p200
sS'hike1035'
p201
S'Anderson Lake Trail'
p202
sS'hike1034'
p203
S'Airport Trail'
p204
sS'hike1033'
p205
S'Little Huckleberry Trail'
p206
sS'hike1032'
p207
S'Equine Loop from Margaret KcKenny Campground via McKenny Trail'
p208
sS'hike1031'
p209
S'Echo Valley Outer Loop Trail'
p210
sS'hike1030'
p211
S'Lake Sammamish Issaquah Creek Trail'
p212
sS'hike1086'
p213
S'Snoqualmie Valley Trail: Three Forks to Rattlesnake Lake'
p214
sS'hike1039'
p215
S"Piper's Creek and South Ridge Trail"
p216
sS'hike1038'
p217
S'Cedar River'
p218
sS'hike1084'
p219
S'Wynoochee Lake Shore Trail'
p220
sS'hike1085'
p221
S'Cougar Lake and Little Cougar Lake Trail'
p222
sS'hike2359'
p223
S'Capitol Forest and Rocky Candy Mountain OHV Loop'
p224
sS'hike2358'
p225
S'Welcome Pass via High Divide Trail'
p226
sS'hike2353'
p227
S'Evans Creek Trail'
p228
sS'hike2352'
p229
S'Fir Mountain Trail'
p230
sS'hike2351'
p231
S'Spade Lake and Venus Lake via Waptus River Trail'
p232
sS'hike2350'
p233
S'Alder Ridge, Upper Mad River and Chikman Creek OHV Loop'
p234
sS'hike2357'
p235
S"Lower Pete's Creek Trail"
p236
sS'hike2356'
p237
S'Halliday Trail'
p238
sS'hike2355'
p239
S'Frangrance Lake and Black Diamond DD Loop'
p240
sS'hike2354'
p241
S'James Pond Nature Trail'
p242
sS'hike888'
p243
S'Joseph Whidbey State Park Trails'
p244
sS'hike889'
p245
S'Priest Point'
p246
sS'hike1329'
p247
S'Lake Edna via Chatter Creek Trail'
p248
sS'hike1328'
p249
S'Chuckanut Drive'
p250
sS'hike880'
p251
S'Snoqualmie Valley Trail and Snoqualmie Valley Trail Extension'
p252
sS'hike1322'
p253
S'Vanson Peak Trail Via Goat Creek Trail Loop'
p254
sS'hike1321'
p255
S'Three Corners Rock'
p256
sS'hike883'
p257
S'Plummer Peak via Pinnacle Peak Trail'
p258
sS'hike884'
p259
S'Birth of a Lake Trail'
p260
sS'hike1326'
p261
S'Council Bluff Trail'
p262
sS'hike886'
p263
S'Wenatchee Crest Trail'
p264
sS'hike887'
p265
S'Evans Creek OHV Loop '
p266
sS'hike408'
p267
S'Mount Pugh Trail'
p268
sS'hike409'
p269
S'Golden Gate Trail'
p270
sS'hike404'
p271
S'Olympic Coast South Trail'
p272
sS'hike405'
p273
S'Heather Meadows and Artists Point Trail'
p274
sS'hike406'
p275
S'Oyster Dome from Samish Overlook'
p276
sS'hike407'
p277
S'Carkeek Park Salmon'
p278
sS'hike400'
p279
S'Eagle Peak Trail'
p280
sS'hike401'
p281
S'Church Mountain Trail'
p282
sS'hike402'
p283
S'Spine Line, Ravine Run, White Horse, and Boundary Trails Loop'
p284
sS'hike403'
p285
S'Sunrise Rim Trail Loop and Mount Fremont Lookout'
p286
sS'hike310'
p287
S'Goldmyer Hot Springs Trail'
p288
sS'hike311'
p289
S'Grand Forest Park Trail'
p290
sS'hike312'
p291
S'Table Mountain Trail'
p292
sS'hike313'
p293
S'Salmon Creek Trail'
p294
sS'hike314'
p295
S'Norway Pass and Mount Margaret Via Boundary Trail'
p296
sS'hike315'
p297
S'Paradise Glacier Caves via Skyline Trail Spur'
p298
sS'hike316'
p299
S'Silver Peak Trail'
p300
sS'hike317'
p301
S'Baker Lake Trail'
p302
sS'hike318'
p303
S'Clara Lake and Marion Lake'
p304
sS'hike319'
p305
S'Washington Park Trail'
p306
sS'hike1859'
p307
S'Lake Janus Trail'
p308
sS'hike1858'
p309
S'Edmonds Boardwalk to Marina Beach Park'
p310
sS'hike1851'
p311
S'Placid Lake Trail'
p312
sS'hike1850'
p313
S'Damfino Lakes Trail to Excelsior Peak'
p314
sS'hike1853'
p315
S'Chuckanut Falls'
p316
sS'hike1852'
p317
S'Silver Falls via Silver Falls Trail'
p318
sS'hike1855'
p319
S'Three Tree Point Indian Trail'
p320
sS'hike1854'
p321
S'Cedar Mountain via McGarvey Trail West'
p322
sS'hike1857'
p323
S'Lunch Lake Trail'
p324
sS'hike1856'
p325
S'Old Road Loop to Wildlife Trail'
p326
sS'hike538'
p327
S'Horseshoe Lake Trail'
p328
sS'hike539'
p329
S'Upper and Lower Twin Falls via Twin Falls Trail'
p330
sS'hike530'
p331
S'Bean Creek Basin Trail'
p332
sS'hike531'
p333
S'Olympic Peninsula Loop Drive'
p334
sS'hike532'
p335
S'Upper Wildcat Lake Trail'
p336
sS'hike533'
p337
S'Goat Mountain Trail'
p338
sS'hike534'
p339
S'Boulder Garden Loop Trail'
p340
sS'hike535'
p341
S'Blue Mountain Trail'
p342
sS'hike536'
p343
S'Perry Creek Trail'
p344
sS'hike537'
p345
S'Lake Lillian Trail'
p346
sS'hike2588'
p347
S'Canyon Lake Trail [PRIVATE PROPERTY]'
p348
sS'hike2589'
p349
S'Thunder Mountain Loop'
p350
sS'hike2582'
p351
S'Griffins at Black Diamond Loop'
p352
sS'hike2583'
p353
S'Ludlow Falls [PRIVATE PROPERTY]'
p354
sS'hike2580'
p355
S'Kasen Everest Cornwall Memorial Trail'
p356
sS'hike2581'
p357
S'Ross Lake'
p358
sS'hike2586'
p359
S'Muddy Creek Trail '
p360
sS'hike2587'
p361
S'Observation Peak and Dry Creek Loop'
p362
sS'hike2584'
p363
S'Darrington Access Road Trail'
p364
sS'hike2585'
p365
S'Broken Tree, Lost Lake, Sqebeqsed, Hatchery Trail'
p366
sS'hike1589'
p367
S'Gilbert Peak and Warm Lake Loop'
p368
sS'hike1588'
p369
S'Evergreen Farm Loop'
p370
sS'hike1587'
p371
S"Sam's River Trail"
p372
sS'hike1586'
p373
S'St Edward Grotto Trail'
p374
sS'hike1585'
p375
S'Tahoma Creek Suspension Bridge to Emerald Ridge Loop'
p376
sS'hike1584'
p377
S'Lake Samammish Kayak'
p378
sS'hike1583'
p379
S'Squire Creek Trail'
p380
sS'hike1582'
p381
S'Little Divide Loop'
p382
sS'hike1581'
p383
S'Copper Ridge Trail To Copper Lake'
p384
sS'hike1580'
p385
S'Narbeck Sanctuary Boardwalk Loop'
p386
sS'hike624'
p387
S'Ladder Creek Falls Trail'
p388
sS'hike625'
p389
S'Saltwater State Park Loop'
p390
sS'hike626'
p391
S'Upper Dungeness Trail to Constance Pass trail Junction'
p392
sS'hike627'
p393
S'Dosewallips State Park Trail'
p394
sS'hike620'
p395
S'Lake Washington North Trail to South Canyon Trail to Orchard Loop'
p396
sS'hike621'
p397
S'Windy Ridge Trail'
p398
sS'hike622'
p399
S'Moraine Trail'
p400
sS'hike623'
p401
S'Esmeralda Basin Loop Trail'
p402
sS'hike628'
p403
S'Duckabush River to Lacrosse Pass Trail'
p404
sS'hike629'
p405
S'Grand Park Trail past Lake Eleanor'
p406
sS'hike1333'
p407
S'Priest Point East Loop'
p408
sS'hike1334'
p409
S'Lillian Ridge Way Trail'
p410
sS'hike1921'
p411
S'Boundary Trail to South Coldwater Trail'
p412
sS'hike1920'
p413
S'Laplash Falls Trail'
p414
sS'hike1923'
p415
S'Dark Divide Trail'
p416
sS'hike1922'
p417
S'South Whidbey Community Park Loop'
p418
sS'hike1925'
p419
S'Surprise Creek Trail to Shangri La Trail Loop'
p420
sS'hike1924'
p421
S'Icicle Creek Trail to Chatter Creek Trail'
p422
sS'hike1927'
p423
S'Jim Kaemingk Sr. Trail'
p424
sS'hike1926'
p425
S'Goat Rocks Three Loop'
p426
sS'hike1929'
p427
S'Squilchuck State Park Loop'
p428
sS'hike1928'
p429
S'Hansen Creek Trail'
p430
sS'hike76'
p431
S'Mount Townsend Trail'
p432
sS'hike1336'
p433
S'Cypress Island: Pelican Trail'
p434
sS'hike77'
p435
S"Harry's Ridge Trail"
p436
sS'hike124'
p437
S'Talus Rocks Loop'
p438
sS'hike2544'
p439
S'Canyon Creek OHV Trail'
p440
sS'hike75'
p441
S'Mailbox Peak (Old) Trail'
p442
sS'hike2542'
p443
S'North Taneum Creek and Manastash Ridge OHV Trail'
p444
sS'hike2543'
p445
S'Tahuya River, Mission Creek, Overland and Salmon 4wd Trail '
p446
sS'hike2540'
p447
S'Tahuya Staging OHV Trail '
p448
sS'hike71'
p449
S'Teneriffe Falls via Mount Si Trailhead'
p450
sS'hike2032'
p451
S'San Juan Hill Trail'
p452
sS'hike2033'
p453
S'China Lake Loop'
p454
sS'hike2030'
p455
S'Warren G. Magnuson Park Loop'
p456
sS'hike2031'
p457
S'Chamna Natural Preserve Trail'
p458
sS'hike2036'
p459
S'Lewis and Clark Columbia River Shoreline Short Loop'
p460
sS'hike2037'
p461
S'Lahar Viewpoint Trail'
p462
sS'hike2034'
p463
S'Downey Creek Trail'
p464
sS'hike2035'
p465
S'Bayview, Suzuki and Whiskey Hill Loop '
p466
sS'hike2038'
p467
S'Table Mountain via Aldrich Butte [PRIVATE PROPERTY]'
p468
sS'hike2039'
p469
S'Lake Louise Loop '
p470
sS'hike1622'
p471
S'Elk Ridge, Hermit, Sherwood'
p472
sS'hike1623'
p473
S'Dead Horse Canyon: Wild Plant Walk'
p474
sS'hike1620'
p475
S'Bridle Crest Trail'
p476
sS'hike1621'
p477
S'Tamanous Trail #27'
p478
sS'hike1626'
p479
S'Spine Line and Boundary Trails Loop'
p480
sS'hike1627'
p481
S'Rattlesnake Trail'
p482
sS'hike1624'
p483
S'Deadhouse Creek Trail to Golden Gate Trail Loop'
p484
sS'hike1625'
p485
S'Evans Creek Preserve Short Loop'
p486
sS'hike1628'
p487
S'The Columbia River Mouth and Long Beach Peninsula Scenic Drive'
p488
sS'hike1629'
p489
S'Anti Aircraft Ridge Trail to Klondike Swamp Loop'
p490
sS'hike2106'
p491
S'Springboard Trail #149'
p492
sS'hike2107'
p493
S'Eagle Lake'
p494
sS'hike2104'
p495
S'English Boom Trail'
p496
sS'hike2105'
p497
S'Burping Brook Loop Trail'
p498
sS'hike2102'
p499
S'Arboretum Perimeter Trail'
p500
sS'hike2103'
p501
S'Lacmas Creek to Camino Potholes via Lake to Lake Trail'
p502
sS'hike2100'
p503
S'Putney Woods and Metcalf Trail'
p504
sS'hike2101'
p505
S'Winchester Wasteway'
p506
sS'hike2108'
p507
S'Fort Ebey Bluff Trail'
p508
sS'hike2109'
p509
S'Cathy\xe2\x80\x99s Trail'
p510
sS'hike1136'
p511
S'Mirabeau Trail and Spokane River Centennial Trail Loop'
p512
sS'hike1137'
p513
S'Taneum Creek Trail'
p514
sS'hike1134'
p515
S'Walupt Lake Trail'
p516
sS'hike1135'
p517
S'Twin Sisters Trail and Tumac Mountain'
p518
sS'hike1132'
p519
S'Sage Hills Loop'
p520
sS'hike1133'
p521
S'Upper Dungeness Trail to Handy Camp'
p522
sS'hike1130'
p523
S'Beaver Lake Park Trail'
p524
sS'hike1131'
p525
S'Trillium Trail Loop'
p526
sS'hike1138'
p527
S'Round Lake Loop via Lake to Lake Trail'
p528
sS'hike1139'
p529
S'Keechelus Lake via the John Wayne Trail'
p530
sS'hike2218'
p531
S'Andrews Creek Trail to Cathedral Lakes'
p532
sS'hike2219'
p533
S'Little Ranger Peak Loop'
p534
sS'hike2212'
p535
S'Fern Cove'
p536
sS'hike2213'
p537
S'Mount Maude via Phelps Creek Trail'
p538
sS'hike2210'
p539
S'Six Ridge Trail'
p540
sS'hike2211'
p541
S'Capitol Forest Loop from Mima Falls Trailhead'
p542
sS'hike2216'
p543
S'Agate Bay Preserve Loop'
p544
sS'hike2217'
p545
S'Tiger Mountain MTB Loop: Northwest Timber, The Legend, Joyride, East Tiger, Master Link'
p546
sS'hike2214'
p547
S'Camp Sheppard Loop Trail'
p548
sS'hike2215'
p549
S'Stewart Memorial Park Trail'
p550
sS'hike1008'
p551
S'Turtleback Mountain to Orcas Knob'
p552
sS'hike1009'
p553
S'1000 Puddles Trail'
p554
sS'hike1002'
p555
S'Lily Basin Trail'
p556
sS'hike1003'
p557
S'Jetty Island Trail'
p558
sS'hike1000'
p559
S'Alger Alps'
p560
sS'hike1001'
p561
S'Tin Mine Trail and Davis Trail Loop'
p562
sS'hike1006'
p563
S'Catherine Creek Trail (020)'
p564
sS'hike1007'
p565
S'Yelm Tenino Trail'
p566
sS'hike1004'
p567
S'Gold Creek Trail'
p568
sS'hike1005'
p569
S'Carne Mountain Trail'
p570
sS'hike1155'
p571
S'Seven Mile Loop'
p572
sS'hike553'
p573
S'Iron Horse Trail: Upper Twin Falls to Mine Creek'
p574
sS'hike541'
p575
S'Bluff Mountain Trail'
p576
sS'hike2368'
p577
S'Exit 27 and Gem State Loop'
p578
sS'hike2369'
p579
S'Angel Pass Trail'
p580
sS'hike2366'
p581
S'Little Wenatchee Trail'
p582
sS'hike2367'
p583
S'Sunset Falls'
p584
sS'hike2364'
p585
S'Cowiche Mountain via William O Douglas Trail'
p586
sS'hike2365'
p587
S'Spectacle Lake Trail'
p588
sS'hike2362'
p589
S'Grinder Loop'
p590
sS'hike2363'
p591
S'Forest Service Road 38 Trail'
p592
sS'hike2360'
p593
S'Al Davis Trail, Waddell Basin West and Quarry Loop'
p594
sS'hike2361'
p595
S'Root Lake Trail'
p596
sS'hike542'
p597
S'Green Mountain Trail'
p598
sS'hike1318'
p599
S'Agnes Gorge Trail'
p600
sS'hike1319'
p601
S'Fossil Trail'
p602
sS'hike1316'
p603
S'Olympic National Park Traverse: Hoh to Quinault'
p604
sS'hike1317'
p605
S'Langfield Falls Trail'
p606
sS'hike1314'
p607
S'Dumbbell Lake Loop'
p608
sS'hike1315'
p609
S'Trail 121: Waterfall Loop'
p610
sS'hike1312'
p611
S'Kalaloch Nature Trail'
p612
sS'hike1313'
p613
S'Mount Stuart'
p614
sS'hike1310'
p615
S'Steptoe Butte'
p616
sS'hike1311'
p617
S'Licorice Fern Trail'
p618
sS'hike439'
p619
S'Tatoosh Ridge Trail'
p620
sS'hike438'
p621
S'Van Trump Park Trail to Comet Falls'
p622
sS'hike547'
p623
S'Pratt River Trail'
p624
sS'hike431'
p625
S'Capitol Lake Trail'
p626
sS'hike430'
p627
S'Little Mountain Park Loop'
p628
sS'hike433'
p629
S'Starway Trail'
p630
sS'hike432'
p631
S'Banner Forest Heritage Park Loop'
p632
sS'hike435'
p633
S'Rainy Lake Trail'
p634
sS'hike434'
p635
S'Spruce Nature Trail'
p636
sS'hike437'
p637
S'Kaleetan Peak Trail '
p638
sS'hike436'
p639
S'Observation Peak Trail'
p640
sS'hike549'
p641
S'Red Town and Wildside Trails'
p642
sS'hike548'
p643
S'Bradley Lake Trail Loop'
p644
sS'hike981'
p645
S'Twin Firs Loop Trail'
p646
sS'hike980'
p647
S'Silver Lake Wetland Haven'
p648
sS'hike983'
p649
S'Big Huckleberry Mountain'
p650
sS'hike982'
p651
S'Kalaloch to Browns Point Trail'
p652
sS'hike329'
p653
S'Sleeping Beauty Trail'
p654
sS'hike328'
p655
S'McLane Creek Woods Trail'
p656
sS'hike987'
p657
S'Interlaken Park Loop'
p658
sS'hike986'
p659
S'Desolation Peak Trail via Ross Lake'
p660
sS'hike325'
p661
S'Mount Kit Carson Trail'
p662
sS'hike988'
p663
S'Ravenna Park Loop Trail'
p664
sS'hike327'
p665
S'Bead Lake Trail'
p666
sS'hike326'
p667
S'South Tiger Mountain Loop'
p668
sS'hike321'
p669
S'Table Mountain Trail via Pacific Crest Trail'
p670
sS'hike320'
p671
S'Palisades Trail (#1198)'
p672
sS'hike323'
p673
S'Upper Lodge to Artist Point Trail'
p674
sS'hike322'
p675
S'Hamilton Mountain Trail'
p676
sS'hike505'
p677
S'Dog Mountain Out and Back Route '
p678
sS'hike504'
p679
S'Lewisville Park Trail'
p680
sS'hike507'
p681
S'Spider Meadow Trail'
p682
sS'hike506'
p683
S'Marymere Falls Trail from Lake Crescent Lodge'
p684
sS'hike501'
p685
S'Lake Sylvia Trail'
p686
sS'hike500'
p687
S'Noble Knob Trail'
p688
sS'hike503'
p689
S'Spider Lake Trail'
p690
sS'hike502'
p691
S'Skyscraper Mountain via Wonderland Trail'
p692
sS'hike1824'
p693
S'BPA Trail'
p694
sS'hike1825'
p695
S'McNary Wildlife Nature Loop'
p696
sS'hike1826'
p697
S'Stetattle Trail'
p698
sS'hike1827'
p699
S'Downtown Park Loop'
p700
sS'hike509'
p701
S'Shi Shi to Ozette River Beach Trail'
p702
sS'hike508'
p703
S'Grand Ridge Park Trail'
p704
sS'hike1822'
p705
S'Port Angeles Waterfront'
p706
sS'hike1823'
p707
S'PCT:  Smith Brook to Stevens Pass'
p708
sS'hike2599'
p709
S'Hyak Creek to Nordic Pass Trail'
p710
sS'hike2598'
p711
S'Lenice Lake'
p712
sS'hike1153'
p713
S'Squaw Lake Via Cathedral Pass Trail'
p714
sS'hike2595'
p715
S'Gold Creek Extension Trail'
p716
sS'hike2594'
p717
S'Wenas OHV Loop'
p718
sS'hike2597'
p719
S'Washington Backcountry Discover Route: Cashmere to Canada Sections'
p720
sS'hike2596'
p721
S'Washington to Arizona Backcounty Discovery Route Ride'
p722
sS'hike2591'
p723
S'Rock Candy Mountain and Wet Cap Forest OHV Loop'
p724
sS'hike2590'
p725
S'McNeeley Summit Trail '
p726
sS'hike2593'
p727
S'Lake Janus from Rainy Creek USFS 6700 '
p728
sS'hike2592'
p729
S'Balanced Rock Trail'
p730
sS'hike189'
p731
S'Trail 25 and Centennial Trail'
p732
sS'hike188'
p733
S'Granite Lakes Trail'
p734
sS'hike181'
p735
S'Mount Adams South Climb Trail'
p736
sS'hike180'
p737
S"Dirty Harry's Balcony via Birdhouse Trail"
p738
sS'hike183'
p739
S'Sunrise Ridge Trail to Mount Angeles'
p740
sS'hike182'
p741
S'Olympic Hot Springs Trail'
p742
sS'hike185'
p743
S"Clark's Creek Trail "
p744
sS'hike184'
p745
S'Wallace Lake Via Woody Trail and Greg Ball Trail'
p746
sS'hike187'
p747
S'Rialto Beach Trail'
p748
sS'hike186'
p749
S'Robe Canyon Historic Trail'
p750
sS'hike611'
p751
S'Mount Muller Trail'
p752
sS'hike610'
p753
S'Saltese Uplands Loop'
p754
sS'hike613'
p755
S'Bear Creek Mountain'
p756
sS'hike612'
p757
S'Tiger Mountain: Around the Lake Trail'
p758
sS'hike615'
p759
S'Owyhigh Lakes Trail'
p760
sS'hike614'
p761
S'Miller Peninsula and Thompson Spit Trail'
p762
sS'hike617'
p763
S'Green Mountain via Davis and Gold Creek Trails'
p764
sS'hike616'
p765
S'Butte Camp Trail'
p766
sS'hike619'
p767
S'Cable Line Trail to West Tiger #3'
p768
sS'hike618'
p769
S'Sheep Lake and Sourdough Gap Trail'
p770
sS'hike923'
p771
S'Nannie Ridge Trail'
p772
sS'hike909'
p773
S'Antoine Peak East Loop'
p774
sS'hike908'
p775
S'Harstine Island State Park Trail'
p776
sS'hike1486'
p777
S'Big Gulch Trail via Harbour Pointe'
p778
sS'hike1487'
p779
S'Anti-Aircraft Ridge Trail to Cougar Mountain and Coyote Creek Trail'
p780
sS'hike1484'
p781
S'Spokane Lower Falls Overlook'
p782
sS'hike1485'
p783
S'North Beach and Hidden Valley Loop'
p784
sS'hike1482'
p785
S'Holly and Bluff Loop'
p786
sS'hike1483'
p787
S'Polallie Ridge Trail'
p788
sS'hike1480'
p789
S'Iverson Spit Preserve Loop'
p790
sS'hike1481'
p791
S'North Fork Asotin Creek Trail'
p792
sS'hike922'
p793
S'Hikers Hut Loop'
p794
sS'hike1958'
p795
S'Lake Meridian via Soos Creek Trail'
p796
sS'hike1959'
p797
S'Rugged Ridge to Indian Pass Trail'
p798
sS'hike1488'
p799
S'East Tiger Mountain'
p800
sS'hike1489'
p801
S'Maury Island Viewpoint Trail'
p802
sS'hike149'
p803
S'Paradise Valley Conservation Area Trail'
p804
sS'hike2270'
p805
S'Stehekin River Trail'
p806
sS'hike2271'
p807
S'Jakles Lagoon '
p808
sS'hike1260'
p809
S'Cranberry Lake'
p810
sS'hike2273'
p811
S'Bluff Lake Trail'
p812
sS'hike1266'
p813
S'Hyak Creek Trail'
p814
sS'hike2275'
p815
S'Ridgefield National Wildlife Refuge [CLOSED]'
p816
sS'hike2276'
p817
S'Alpine Lakes High Route'
p818
sS'hike1265'
p819
S'Church Creek - Satsop Lakes Trail'
p820
sS'hike1558'
p821
S'Lone Goat Mountain Via Skyline Trail'
p822
sS'hike1559'
p823
S'Queets River Road'
p824
sS'hike1550'
p825
S'Huntoon Trail and Douglas Fir Trail Loop'
p826
sS'hike1551'
p827
S'Red Mountain via Pacific Crest and Indian Race Track Loop'
p828
sS'hike1552'
p829
S'Long Island Trails'
p830
sS'hike1553'
p831
S"Central Peak, West Peak, and Debbie's View Loop"
p832
sS'hike1554'
p833
S'Green Diamond Trail'
p834
sS'hike1555'
p835
S'Mad River Trail'
p836
sS'hike1556'
p837
S'Sand Lake and Deer Lake Trail'
p838
sS'hike1557'
p839
S'Golden Lakes Trail'
p840
sS'hike2025'
p841
S'Rotary Bark Park Off-Leash Trail'
p842
sS'hike2024'
p843
S'Paris Creek Trail'
p844
sS'hike2027'
p845
S'South Asotin Trail'
p846
sS'hike2026'
p847
S'Main Tiger Mountain Road, OTG, Fully Rigid, Joy Ride and Northwest Timber Loop'
p848
sS'hike2021'
p849
S'Boulder Lake Trail'
p850
sS'hike2020'
p851
S'False Summit, Lookout Tower, and Mountain Lake Loop'
p852
sS'hike2023'
p853
S'Welcome Pass from Damfino Lakes via High Divide Trail'
p854
sS'hike2022'
p855
S'Bench Lake '
p856
sS'hike2029'
p857
S'Putnam Loop'
p858
sS'hike2028'
p859
S'Dry Gulch Short Route'
p860
sS'hike1635'
p861
S'Devils Gulch Trail'
p862
sS'hike1634'
p863
S'Mount Angeles via Switchback Trail'
p864
sS'hike1637'
p865
S'Lake Sammamish Loop'
p866
sS'hike1636'
p867
S'North, Wetland, Big Loop and Big Tree Loop'
p868
sS'hike1631'
p869
S'Klickitat Trail'
p870
sS'hike1630'
p871
S'Bear Ridge to Shangri La Trail to West Tibbetts Creek Loop'
p872
sS'hike1633'
p873
S'Spiral Butte Trail'
p874
sS'hike1632'
p875
S'Dry Gulch Big Loop'
p876
sS'hike1639'
p877
S'Rat Pac Trail'
p878
sS'hike1638'
p879
S'Mineral Rock Trail'
p880
sS'hike2119'
p881
S'Smith Creek Trail'
p882
sS'hike2118'
p883
S'RIver Quarry Road, Quarry, River, and Pipeline Trail '
p884
sS'hike2111'
p885
S'Trail 211 to Centennial Trail'
p886
sS'hike2110'
p887
S'Radio Flyer Loop and Summitview South Loop'
p888
sS'hike2113'
p889
S'Tarbell Trail Hidden Falls '
p890
sS'hike2112'
p891
S'Northrop Homestead '
p892
sS'hike2115'
p893
S'Crow Lake Trail'
p894
sS'hike2114'
p895
S'Castle Traverse'
p896
sS'hike2117'
p897
S'Blewett Pass Scenic Drive: Peshastin to Ellensburg'
p898
sS'hike2116'
p899
S'Victoria Track to Monument '
p900
sS'hike1129'
p901
S'Hozomeen Lake Trail'
p902
sS'hike1128'
p903
S'Kanaskat-Palmer Loop'
p904
sS'hike1121'
p905
S'Grays Harbor National Wildlife Refuge'
p906
sS'hike1120'
p907
S'Snow Mountain Ranch'
p908
sS'hike1123'
p909
S'Ruby Mountain Summit via Fourth of July and Thunder Creek Trail '
p910
sS'hike1122'
p911
S'Cedar River Trail-East End'
p912
sS'hike1125'
p913
S'Dosweallips Road to Constance Pass Trail'
p914
sS'hike1124'
p915
S'Falls Creek via Quinault Loop Trail'
p916
sS'hike1127'
p917
S'Cathedral Rock Trail'
p918
sS'hike1126'
p919
S'Windy Pass via the PCT'
p920
sS'hike2209'
p921
S'Big Flat '
p922
sS'hike2208'
p923
S'Squak Mountain Connector Trail'
p924
sS'hike2205'
p925
S'Sasse Ridge Trail'
p926
sS'hike2204'
p927
S'Trail 25 and 410 Loop'
p928
sS'hike2207'
p929
S'Newcastle Highlands to De Leo Wall Loop'
p930
sS'hike2206'
p931
S'Harvey Creek'
p932
sS'hike2201'
p933
S'Ray Trail'
p934
sS'hike2200'
p935
S'Yellow Lake Loop'
p936
sS'hike2203'
p937
S'Muddy Meadows Trail'
p938
sS'hike2202'
p939
S'Goat Mountain and Green River Loop Trail'
p940
sS'hike1019'
p941
S'Phillip Arnold Park (The Tapeworm and Parasite Trails)'
p942
sS'hike1018'
p943
S'Klickitat River Trail'
p944
sS'hike1015'
p945
S'Cherry Creek Falls Trail [PRIVATE PROPERTY]'
p946
sS'hike1014'
p947
S'Rattlesnake Lake Trail'
p948
sS'hike1017'
p949
S'South Beach and Hidden Valley Loop Trail'
p950
sS'hike1016'
p951
S'Castle Rock'
p952
sS'hike1011'
p953
S'North Fork Sauk Trail'
p954
sS'hike1010'
p955
S'Panjab Trail'
p956
sS'hike1013'
p957
S'Tieton Nature Trail'
p958
sS'hike1012'
p959
S'Golden Gardens Trail'
p960
sS'hike692'
p961
S'Northhead Lighthouse Loop Trail'
p962
sS'hike2371'
p963
S'Wonderland Trail to Shadow Lake'
p964
sS'hike2370'
p965
S'Stinger, Route 66 and Lower Beaver Tracks'
p966
sS'hike2373'
p967
S'Tibbetts Mountain via USFS 112 Road'
p968
sS'hike2372'
p969
S'Thorp Lake and Thorp Mountain'
p970
sS'hike2375'
p971
S'Chelan Summit Trail to Purple Point'
p972
sS'hike2374'
p973
S'Elk Mountain from Deer Pass Campground'
p974
sS'hike2377'
p975
S'Angels Staircase Loop Trail'
p976
sS'hike2376'
p977
S'Napol Cabin Trail'
p978
sS'hike2379'
p979
S'Kangaroo Temple '
p980
sS'hike2378'
p981
S'Tiger Mountain and Cable Line Trail'
p982
sS'hike1301'
p983
S'Talapus, Olallie and Pratt Lake '
p984
sS'hike1300'
p985
S'Larch Mountain Loop Trail'
p986
sS'hike1303'
p987
S'Spokane River Walk'
p988
sS'hike1302'
p989
S'Falls Creek Trail Winter Route'
p990
sS'hike1305'
p991
S'Merrill Lake Campground'
p992
sS'hike1304'
p993
S'Wildside Trail to Shy Bear Trail to Cave Hole Trail '
p994
sS'hike1307'
p995
S'Irely Lake Trail'
p996
sS'hike1306'
p997
S'Spada Lake Culmback Dam Trail'
p998
sS'hike1309'
p999
S'Holder Ridge, Road A, Road F and Whiskey Still Loop'
p1000
sS'hike1308'
p1001
S'Hog Lake Loop'
p1002
sS'hike338'
p1003
S'Chanterelle Trail'
p1004
sS'hike339'
p1005
S'Centennial Trail'
p1006
sS'hike998'
p1007
S'Fish Lake Trail'
p1008
sS'hike999'
p1009
S'Beach Trail 2'
p1010
sS'hike996'
p1011
S'PCT: WA Section I - Highway 12 to Snoqualmie Pass'
p1012
sS'hike333'
p1013
S'Evans Creek Preserve Trail'
p1014
sS'hike330'
p1015
S'Greider Lakes Trail'
p1016
sS'hike995'
p1017
S'Tacoma Narrows Bridge'
p1018
sS'hike336'
p1019
S'Chenuis Falls Trail'
p1020
sS'hike337'
p1021
S"Herman's Peak"
p1022
sS'hike334'
p1023
S'Alki Trail'
p1024
sS'hike335'
p1025
S'Lodge Lake Trail'
p1026
sS'hike512'
p1027
S'Padilla Bay Trail'
p1028
sS'hike513'
p1029
S'Hyas Lake Trail'
p1030
sS'hike510'
p1031
S'Mima Mounds Trail'
p1032
sS'hike511'
p1033
S'Hex Mountain Trail'
p1034
sS'hike516'
p1035
S'Hugo Peak Trail'
p1036
sS'hike517'
p1037
S'Beacon Hill Trail'
p1038
sS'hike514'
p1039
S'Racehorse Falls Trail'
p1040
sS'hike515'
p1041
S'Mount Washington'
p1042
sS'hike1837'
p1043
S'Grade Creek to Cooper Ridge'
p1044
sS'hike1836'
p1045
S'Tucannon River Trail'
p1046
sS'hike518'
p1047
S'Easy Pass Trail'
p1048
sS'hike1834'
p1049
S'Banks Lake Trail'
p1050
sS'hike1833'
p1051
S'Sherman Pass Trail'
p1052
sS'hike1832'
p1053
S'John Wayne Pioneer Trail: Ewan to Tekoa'
p1054
sS'hike1831'
p1055
S'Anti-Aircraft Ridge Trail and Tibbetts Marsh Trail'
p1056
sS'hike1830'
p1057
S'Trout Lake, Middle and Upper Copper Falls and Malachite Falls'
p1058
sS'hike196'
p1059
S'Coldwater Lake Trail'
p1060
sS'hike197'
p1061
S'Ellis Cove Trail'
p1062
sS'hike2562'
p1063
S'Blue Lake OHV Trail '
p1064
sS'hike195'
p1065
S'Tiger Mountain Trail: Preston Railroad Grade to Silent Swamp and Joyride to Northwest Timber'
p1066
sS'hike2564'
p1067
S'Entiat River OHV Trail'
p1068
sS'hike2565'
p1069
S'Big Rock Trail [CLOSED / PRIVATE PROPERTY]'
p1070
sS'hike190'
p1071
S'Cascade Pass and Sahale Arm Trail'
p1072
sS'hike191'
p1073
S'Rocks of Sharon Trail'
p1074
sS'hike2568'
p1075
S'Waddell Creek OHV Trail'
p1076
sS'hike2569'
p1077
S'Slick Ear Trail'
p1078
sS'hike198'
p1079
S'Hidden Falls via Tarbell Trail '
p1080
sS'hike199'
p1081
S'Japanese Gulch Loop Trail'
p1082
sS'hike426'
p1083
S'Manastash Ridge Trail'
p1084
sS'hike427'
p1085
S'Shriner Peak Lookout Trail'
p1086
sS'hike424'
p1087
S'Goat Creek Trail'
p1088
sS'hike425'
p1089
S'Illahee Preserve Loop Trail'
p1090
sS'hike422'
p1091
S'Copper Creek Trail'
p1092
sS'hike423'
p1093
S'West Tiger #3'
p1094
sS'hike420'
p1095
S'Quartz Mountain Lookout Trail'
p1096
sS'hike421'
p1097
S'Bare Mountain Trail'
p1098
sS'hike428'
p1099
S'Lower Falls Recreation Area Campground'
p1100
sS'hike429'
p1101
S'Lower South Fork Skokomish Trail'
p1102
sS'hike332'
p1103
S'Cutthroat Lake and Cutthroat Pass'
p1104
sS'hike608'
p1105
S'Titlow Park'
p1106
sS'hike997'
p1107
S'Zig Zag Lake Trail'
p1108
sS'hike606'
p1109
S'Fourth of July Creek Trail to Icicle Ridge'
p1110
sS'hike607'
p1111
S'Beacon Hill Loop from Shields Park Trailhead'
p1112
sS'hike604'
p1113
S'Mount Forgotten Meadows Trail'
p1114
sS'hike605'
p1115
S'Old Snowy Mountain via Snowgrass Trail'
p1116
sS'hike602'
p1117
S'Trail of the Cedars Nature Walk  '
p1118
sS'hike994'
p1119
S'North Fork of the Sol Duc Trail'
p1120
sS'hike600'
p1121
S'Lake Wenatchee Trail'
p1122
sS'hike601'
p1123
S'Evolution, Unemployment Line, and Atomic Dog Trail'
p1124
sS'hike331'
p1125
S'Pinnacle Lake Trail'
p1126
sS'hike992'
p1127
S'Spade Lake Trail'
p1128
sS'hike993'
p1129
S'Shangri La Trail to West Tibbetts Creek Trail and Tibbetts Marsh'
p1130
sS'hike990'
p1131
S'Antoine Peak Summit Loop from East Trailhead'
p1132
sS'hike991'
p1133
S'Trail #25'
p1134
sS'hike1499'
p1135
S'Kloochman Rock Climb'
p1136
sS'hike1498'
p1137
S'Harper Park Trail'
p1138
sS'hike1491'
p1139
S'Wilderness Peak and Squak Mountain Loop'
p1140
sS'hike1490'
p1141
S'Tull Canyon Trail via Tubal Cain Trail'
p1142
sS'hike1493'
p1143
S'Conrad Meadows Trail'
p1144
sS'hike1492'
p1145
S'Ironstone Mountain Trail'
p1146
sS'hike1495'
p1147
S'Monte Carlo Trail'
p1148
sS'hike1494'
p1149
S'Skagit River Delta Trail'
p1150
sS'hike1497'
p1151
S'Pioneer Park'
p1152
sS'hike1496'
p1153
S'Leadbetter Point Trail'
p1154
sS'hike1947'
p1155
S'Trail #126, #118, #109 and #108 Loop '
p1156
sS'hike1946'
p1157
S'Colockum Road'
p1158
sS'hike1945'
p1159
S'Snoqualmie River: Fall City to Tolt River Mouth'
p1160
sS'hike1944'
p1161
S'Tibbetts Marsh Loop via Bear Ridge Trail'
p1162
sS'hike1943'
p1163
S'Slate Peak to Robinson Pass'
p1164
sS'hike1942'
p1165
S'Bear Ridge Trail to Coal Creek Falls and Cave Hole Loop'
p1166
sS'hike1941'
p1167
S'Sqebeqsed Trail'
p1168
sS'hike1940'
p1169
S'Boy Scout Trail and Umatilla Rock Trail Loop'
p1170
sS'hike1440'
p1171
S'Echo Point Trail'
p1172
sS'hike1949'
p1173
S'June Lake Trail to Loowit Falls'
p1174
sS'hike1948'
p1175
S'Pilchuck Tree Farm Loop from Bracken Trailhead'
p1176
sS'hike1441'
p1177
S'Skagit Wildlife Area'
p1178
sS'hike1839'
p1179
S'Lower Elkspur and Upper Elkspur Loop'
p1180
sS'hike1446'
p1181
S'Plummer and Beaver Pond Trail'
p1182
sS'hike1838'
p1183
S'New Panther Lake Trail'
p1184
sS'hike1447'
p1185
S'Middle Point Trail to Ski Bluewood'
p1186
sS'hike163'
p1187
S'Cal Magnusson Trail'
p1188
sS'hike1444'
p1189
S'Ross Dam and Diablo Lake Trail'
p1190
sS'hike162'
p1191
S'Cascade Pass Trail to Cottonwood Camp'
p1192
sS'hike1445'
p1193
S'Pend Oreille Pathfinder Loop'
p1194
sS'hike693'
p1195
S'Iron Bear Trail #1351'
p1196
sS'hike519'
p1197
S'Black and White Lakes Primitive Trail'
p1198
sS'hike695'
p1199
S'Blake Island State Park Trails'
p1200
sS'hike694'
p1201
S'Merritt Lake Trail'
p1202
sS'hike165'
p1203
S'Gold Creek Pond Trail'
p1204
sS'hike164'
p1205
S'Melmont Ghost Town via Foothills Trail'
p1206
sS'hike1549'
p1207
S'Sultan Basin Trails'
p1208
sS'hike1548'
p1209
S'Mount Bonaparte Trail'
p1210
sS'hike1543'
p1211
S'Shorthorn Trail'
p1212
sS'hike1542'
p1213
S'Banner Forest Mountain Bike Loop'
p1214
sS'hike1541'
p1215
S'Burley Mountain Trail'
p1216
sS'hike1540'
p1217
S'Mount Spokane Trail 100 to Smith Gap'
p1218
sS'hike1547'
p1219
S'Terrell Marsh Trail'
p1220
sS'hike1546'
p1221
S'Similkameen Trail'
p1222
sS'hike1545'
p1223
S'Little Ranger Peak Trail'
p1224
sS'hike1544'
p1225
S'Klonaqua Lakes'
p1226
sS'hike2560'
p1227
S'Sumas Mountain OHV Loop'
p1228
sS'hike2168'
p1229
S'White River Trail'
p1230
sS'hike2169'
p1231
S'Rock Shelter Trail'
p1232
sS'hike2561'
p1233
S'Pine Marten, National Forest Road and Sasquatch Trail'
p1234
sS'hike2164'
p1235
S'Green River: Auburn to Kent, Middle Reach'
p1236
sS'hike2165'
p1237
S'Florence Robinson Park'
p1238
sS'hike2166'
p1239
S'Bear Lake via East Crest Trail'
p1240
sS'hike2167'
p1241
S'William Cannon Trail'
p1242
sS'hike2160'
p1243
S'Newcastle East Cross Town Trail'
p1244
sS'hike194'
p1245
S'Bowl and Pitcher Loop Trail'
p1246
sS'hike2162'
p1247
S'Little Beaver Trail via Hannegan Pass'
p1248
sS'hike2163'
p1249
S'Fawn Lake Trail'
p1250
sS'hike2563'
p1251
S'Sumas Mountain and P-1000 OHV Loop'
p1252
sS'hike1158'
p1253
S'Indian Bar Trail'
p1254
sS'hike1159'
p1255
S'Six Summits Trail'
p1256
sS'hike1154'
p1257
S'Hansville Greenway Trail'
p1258
sS'hike192'
p1259
S'Seward Park Perimeter Loop'
p1260
sS'hike1156'
p1261
S'Wonderland Trail Loop'
p1262
sS'hike1157'
p1263
S'Pinnacle Peak Full Loop'
p1264
sS'hike1150'
p1265
S'Trail of the Deer and Old Growth Forest Trail Loop'
p1266
sS'hike1151'
p1267
S'Kelcema Lake Trail'
p1268
sS'hike1152'
p1269
S'Nordic Pass Trail'
p1270
sS'hike193'
p1271
S'Lake Stuart Trail'
p1272
sS'hike1798'
p1273
S'Shuksan Lake Trail'
p1274
sS'hike1799'
p1275
S'Cowlitz Divide Trail'
p1276
sS'hike2566'
p1277
S"Devil's Backbone OHV Trail"
p1278
sS'hike1792'
p1279
S"Friend's Landing Trail"
p1280
sS'hike1793'
p1281
S'Moss Lake Loop'
p1282
sS'hike1790'
p1283
S'Meander Meadow Kodak Peak Trail'
p1284
sS'hike2567'
p1285
S'Taneum Creek OHV Loop'
p1286
sS'hike1796'
p1287
S'Happy Creek Falls'
p1288
sS'hike1797'
p1289
S'Meta Lake Trail'
p1290
sS'hike1794'
p1291
S'Clallam Bay to Neah Bay Scenic Drive'
p1292
sS'hike1795'
p1293
S'Klondike Swamp Trail'
p1294
sS'hike1872'
p1295
S'Yakima Wine and Fruit Challenge'
p1296
sS'hike2304'
p1297
S'Methow River: Carlton to McFarland Creek'
p1298
sS'hike2305'
p1299
S'Forest Park, Saddle Back and Summit West Trail'
p1300
sS'hike2306'
p1301
S'The Rendezvous Mountain - Heifer Hut Ski Tour'
p1302
sS'hike2307'
p1303
S'Mount Adams Short Loop'
p1304
sS'hike2300'
p1305
S'Celebration Park Trail'
p1306
sS'hike2301'
p1307
S'West Oval Lake Trail '
p1308
sS'hike859'
p1309
S'Northrup Canyon'
p1310
sS'hike858'
p1311
S'Coleman Glacier Via Heliotrope Ridge Trail'
p1312
sS'hike857'
p1313
S'Goat Marsh'
p1314
sS'hike856'
p1315
S'Blanchard Hill Loop'
p1316
sS'hike855'
p1317
S'Baker Hot Springs'
p1318
sS'hike854'
p1319
S'Suntop Trail'
p1320
sS'hike853'
p1321
S'Chinook Trail: Section One'
p1322
sS'hike852'
p1323
S'Iceberg Point Trail'
p1324
sS'hike851'
p1325
S'Shelton View Forest'
p1326
sS'hike850'
p1327
S'Olympic National Park Little River Trail'
p1328
sS'hike1374'
p1329
S'Pratt Lake Trail via Mason Lake Trail'
p1330
sS'hike1375'
p1331
S'Dishman Hills Pond Loop Trail'
p1332
sS'hike1376'
p1333
S'Shady Lane Trail'
p1334
sS'hike1377'
p1335
S'Sares Head'
p1336
sS'hike1370'
p1337
S'Sunrise Peak Trail'
p1338
sS'hike1371'
p1339
S'Main Trail and Pipeline Trail Loop'
p1340
sS'hike1372'
p1341
S'West Lake Mills Trail'
p1342
sS'hike1373'
p1343
S'Peek-A-Boo Lake Trail'
p1344
sS'hike1331'
p1345
S'Copper Glance Lake Trail'
p1346
sS'hike1378'
p1347
S'North Rim Trail to Rock Candy Mountain East Trail'
p1348
sS'hike1379'
p1349
S'Mount Erie and Whistle Lake Loop'
p1350
sS'hike295'
p1351
S'Sheep Lake Trail'
p1352
sS'hike294'
p1353
S'Thunder Mountain Lakes Trail'
p1354
sS'hike297'
p1355
S'Sammamish River Trail'
p1356
sS'hike296'
p1357
S'Whistle Lake Trail'
p1358
sS'hike291'
p1359
S'Red Mountain via Old Commonwealth Trail'
p1360
sS'hike290'
p1361
S"Heart O' the Forest Trail"
p1362
sS'hike293'
p1363
S'Boulder Cave Trail'
p1364
sS'hike292'
p1365
S'Pete Lake'
p1366
sS'hike299'
p1367
S'West Tiger # 3 via Cable Line Trail Loop'
p1368
sS'hike298'
p1369
S'Gillette Lake'
p1370
sS'hike2418'
p1371
S'Sewerline and West Pond Loop '
p1372
sS'hike2419'
p1373
S'Lopez Island Loop'
p1374
sS'hike1297'
p1375
S'Shadow Mountain Loop Trail'
p1376
sS'hike2410'
p1377
S'Trail 101: North Trail Red Loop'
p1378
sS'hike2411'
p1379
S'Pass Lake Loop'
p1380
sS'hike2412'
p1381
S'Cedar Creek Trail'
p1382
sS'hike2413'
p1383
S'Jackman Creek OHV Trail'
p1384
sS'hike2414'
p1385
S'Cold Creek to Rock Creek Camp via Tarbell Trail'
p1386
sS'hike2415'
p1387
S'Whispering Pines Loop'
p1388
sS'hike2416'
p1389
S'Goat Wall loop'
p1390
sS'hike2417'
p1391
S'Golden Spike, SST, and Back Door Loop'
p1392
sS'hike1208'
p1393
S'Main Fork Dosewallips River Trail'
p1394
sS'hike1209'
p1395
S'Lower Falls via Lake to Lake Trail'
p1396
sS'hike1200'
p1397
S'Ohanapecosh and Stafford Falls Trail'
p1398
sS'hike1201'
p1399
S'Spirit of America Trail'
p1400
sS'hike1202'
p1401
S'Shark Reef Recreation Area'
p1402
sS'hike1203'
p1403
S'Evergreen Beach Trail'
p1404
sS'hike1204'
p1405
S'Long View Peak Trail'
p1406
sS'hike1205'
p1407
S'Fort Cascades Trail'
p1408
sS'hike1206'
p1409
S'Mainline Trail'
p1410
sS'hike1207'
p1411
S'Norway Pass Trail Out-and-Back'
p1412
sS'hike1802'
p1413
S'Golden Lakes Loop'
p1414
sS'hike1803'
p1415
S'Sand Lake Trail'
p1416
sS'hike1800'
p1417
S'Three Peaks Trail to Lost Lake'
p1418
sS'hike1801'
p1419
S'Swamp Lake Trail'
p1420
sS'hike1806'
p1421
S'Military Road Trail'
p1422
sS'hike1807'
p1423
S"Mount Rainier Overlook via River and Katie's Trail"
p1424
sS'hike1804'
p1425
S'Ravenna Creek Trail'
p1426
sS'hike1805'
p1427
S'Green River Trail: Tukwila Section'
p1428
sS'hike1808'
p1429
S'Uplands Loop: Short Draw, Summit and Turtle Gulch Trails'
p1430
sS'hike1809'
p1431
S'West Tiger #1 via Preston and Tiger Mountain Trail Loop'
p1432
sS'hike2573'
p1433
S'Slate Peak OHV Trail'
p1434
sS'hike2572'
p1435
S'Lopez Hill Loop'
p1436
sS'hike2571'
p1437
S'Lawson Bluffs Trail'
p1438
sS'hike2570'
p1439
S'Klone Peak OHV Loop'
p1440
sS'hike2577'
p1441
S'Bear Creek Main Line OHV Trail'
p1442
sS'hike2576'
p1443
S'BR-4602 and BR-17 OHV Loop'
p1444
sS'hike2575'
p1445
S'kaniksu Road'
p1446
sS'hike2574'
p1447
S'Maple Leaf Resevoir Park'
p1448
sS'hike2579'
p1449
S'Upper Bagley Lake Trail via Chain Lakes and Fire and Ice Trails'
p1450
sS'hike2578'
p1451
S'Lake to Lake, Oly II, Red Tape Loop'
p1452
sS'hike565'
p1453
S'LBA Park Loop Trail'
p1454
sS'hike453'
p1455
S'Flaming Geyser State Park Trail'
p1456
sS'hike452'
p1457
S'Lily and Lizard Lakes Loop Trail'
p1458
sS'hike451'
p1459
S'Boundary Trail to Coldwater Peak'
p1460
sS'hike450'
p1461
S'Mima Falls Loop'
p1462
sS'hike457'
p1463
S'Iron Creek Falls Trail'
p1464
sS'hike456'
p1465
S'Bellevue Botanical Park and Wilburton Hill Park'
p1466
sS'hike455'
p1467
S'Frenchman Coulee'
p1468
sS'hike454'
p1469
S'Des Moines Creek Trail'
p1470
sS'hike459'
p1471
S'Cascade Pass Trail'
p1472
sS'hike458'
p1473
S'Chuckanut Mountain'
p1474
sS'hike1457'
p1475
S'Dry Gulch South Ridge and Rooster Comb Loop'
p1476
sS'hike609'
p1477
S'Lake Ann Trail'
p1478
sS'hike679'
p1479
S'Bullitt Access Loop'
p1480
sS'hike678'
p1481
S'Round Lake and Camas Potholes Falls via Lacmas Creek'
p1482
sS'hike673'
p1483
S'Tolt-MacDonald Overlook'
p1484
sS'hike672'
p1485
S'Fallsview Canyon Trail'
p1486
sS'hike671'
p1487
S'Trail of Two Forests Trail '
p1488
sS'hike670'
p1489
S'Cape Disappointment Lighthouse Trail'
p1490
sS'hike677'
p1491
S'Shoreview and Boeing Creek Loop'
p1492
sS'hike676'
p1493
S'Puget Park Trail'
p1494
sS'hike675'
p1495
S'Mazama Ridge Trail to Faraway Rock'
p1496
sS'hike674'
p1497
S'Gladys Divide Primitive Trail'
p1498
sS'hike603'
p1499
S'Madcap Falls Trail'
p1500
sS'hike569'
p1501
S'Chelan Butte Trail'
p1502
sS'hike568'
p1503
S'Cascade Lake Trail'
p1504
sS'hike1978'
p1505
S'Kennedy Creek Basin and Falls '
p1506
sS'hike1979'
p1507
S'Crystal Lake Trail'
p1508
sS'hike1972'
p1509
S'Tokul Walking Trail'
p1510
sS'hike1973'
p1511
S'Nature Trail, Cairn, and Sidekick Loop'
p1512
sS'hike1970'
p1513
S'La Center Bottoms'
p1514
sS'hike1971'
p1515
S'Three Way Peak'
p1516
sS'hike1976'
p1517
S'Three Summits Loop via Cable Line and Tiger Mountain Trail'
p1518
sS'hike1977'
p1519
S'Klickitat Trail: Milepost 16-13  '
p1520
sS'hike1974'
p1521
S'Kalama Marina and River Walk'
p1522
sS'hike1975'
p1523
S'Blackhorse Lake Hiking Trail'
p1524
sS'hike707'
p1525
S'Harmony Trail'
p1526
sS'hike706'
p1527
S'Jim Martinson Exercise Trail'
p1528
sS'hike705'
p1529
S'Point No Point Lighthouse and Park Trail'
p1530
sS'hike704'
p1531
S'Grand Prospect Via Rattlesnake Mountain Trail'
p1532
sS'hike703'
p1533
S'Obstruction Pass Trail'
p1534
sS'hike702'
p1535
S'Round Mountain Trail'
p1536
sS'hike701'
p1537
S'Evergreen Lookout Trail'
p1538
sS'hike700'
p1539
S'Huntoon Point Via Artist Point Trail'
p1540
sS'hike709'
p1541
S"Mount Daniel and Peggy's Pond via Cathedral Pass Trail"
p1542
sS'hike708'
p1543
S'Easton Ridge Trail'
p1544
sS'hike1578'
p1545
S'King County Interurban Trail'
p1546
sS'hike1579'
p1547
S'Tunnel Creek Trail to Hope Lake'
p1548
sS'hike1576'
p1549
S'Hayden Pass Trail'
p1550
sS'hike1577'
p1551
S'Devils Gulch'
p1552
sS'hike1574'
p1553
S'Rocky Top to Cowiche Mountain'
p1554
sS'hike1575'
p1555
S'Victor Falls Trail'
p1556
sS'hike1572'
p1557
S'Saddle Rock to Green Shack'
p1558
sS'hike1573'
p1559
S'Mimzie Loop'
p1560
sS'hike1570'
p1561
S'Five Mile Drive'
p1562
sS'hike1571'
p1563
S'Cave B Waterfall Trail'
p1564
sS'hike929'
p1565
S'Augspurger Mountain: Dog and Cat Trail '
p1566
sS'hike928'
p1567
S'Little Spokane River: Waikiki Springs trail'
p1568
sS'hike2179'
p1569
S'Middle Fork Snoqualmie River Trail [CLOSED]'
p1570
sS'hike2178'
p1571
S'Honey Creek Open Space'
p1572
sS'hike2177'
p1573
S'Boundary Trails: Elk Pass to Johnston Ridge Observatory'
p1574
sS'hike2176'
p1575
S'Blue Gate to Old Timber to Wolf Ridge to Beaver Loop'
p1576
sS'hike2175'
p1577
S'Raven Trail'
p1578
sS'hike2174'
p1579
S'Mt Adams via Divide Camp Trail #112 and PCT'
p1580
sS'hike2173'
p1581
S'Mount Pickett via Fortman\xe2\x80\x99s Trail'
p1582
sS'hike2172'
p1583
S'Scott Pierson Trail'
p1584
sS'hike2171'
p1585
S'360 Park Ticket to Ride MTB Loop'
p1586
sS'hike2170'
p1587
S'Middle Fork Snoqualmie Loop'
p1588
sS'hike1149'
p1589
S'Ranger Hole Trail'
p1590
sS'hike1148'
p1591
S'John MacDonald Park Mountain Bike Trails Loop'
p1592
sS'hike1147'
p1593
S'North Twin: West Ridge'
p1594
sS'hike1146'
p1595
S'Shannon Ridge Trail'
p1596
sS'hike1145'
p1597
S'360 Project Main Trail'
p1598
sS'hike1144'
p1599
S'Flying EagleTrail to Beaver Loop and Big Cedar Loop Trail'
p1600
sS'hike1143'
p1601
S'Juanita Bay Park'
p1602
sS'hike1142'
p1603
S'Fishtrap Lake'
p1604
sS'hike1141'
p1605
S'Wolf Creek Trail'
p1606
sS'hike1140'
p1607
S'Hurricane Hill'
p1608
sS'hike1789'
p1609
S'Dalles Ridge Trail Via Noble Knob Trail'
p1610
sS'hike1788'
p1611
S'Badger Mountain from East 210 PR NE'
p1612
sS'hike1785'
p1613
S'Cassidy Creek'
p1614
sS'hike1784'
p1615
S'White Pass Scenic Byway'
p1616
sS'hike1787'
p1617
S'Wenatchee River (Whitewater)'
p1618
sS'hike1786'
p1619
S'Crab Creek'
p1620
sS'hike1781'
p1621
S'Rowland Loop'
p1622
sS'hike1780'
p1623
S'Quartz Creek Big Trees Trail'
p1624
sS'hike1783'
p1625
S'Bulitt Access Trail to Summit'
p1626
sS'hike1782'
p1627
S'Mainline, Southern Traverse and Cedar Run Loop'
p1628
sS'hike1295'
p1629
S'Brownie Trail'
p1630
sS'hike1323'
p1631
S'Cathedral Pass and Deception Pass Loop '
p1632
sS'hike881'
p1633
S'Bon Jon Pass OHV Route'
p1634
sS'hike882'
p1635
S'Hoh River Trail to Hoh Lake Trail'
p1636
sS'hike1320'
p1637
S'Fragrance Lake Extended Loop'
p1638
sS'hike1327'
p1639
S'Aurora Ridge Trail'
p1640
sS'hike885'
p1641
S'Carbon Trail to Bearhead Trail'
p1642
sS'hike1325'
p1643
S'Larry Scott Trail'
p1644
sS'hike1324'
p1645
S'Neiderprum Trail to Whitehorse Mountain'
p1646
sS'hike98'
p1647
S'Iron Goat Trail'
p1648
sS'hike99'
p1649
S'Mount Dickerman Trail'
p1650
sS'hike94'
p1651
S'Park Butte Lookout Trail '
p1652
sS'hike95'
p1653
S"Margaret's Way Trail"
p1654
sS'hike96'
p1655
S'Fragrance Lake Trail'
p1656
sS'hike97'
p1657
S'Iller Creek Conservation Area Trail'
p1658
sS'hike90'
p1659
S'Wind Mountain Trail'
p1660
sS'hike91'
p1661
S'Lake to Lake Trail, Red Tape Trail, Palmer Trail to Round Lake Loop'
p1662
sS'hike92'
p1663
S'Diablo Lake Trail'
p1664
sS'hike93'
p1665
S'Palouse Falls Trail'
p1666
sS'hike2317'
p1667
S'Beauty Creek Falls Trail'
p1668
sS'hike2316'
p1669
S'Ape Canyon to Plains of Abraham'
p1670
sS'hike2315'
p1671
S'Mathison Park Loop'
p1672
sS'hike2314'
p1673
S'Basin Lake via Norse Peak Trail, Goat Lake Trail, and PCT'
p1674
sS'hike2313'
p1675
S'Grassy Top Trail'
p1676
sS'hike2312'
p1677
S'Mount Erie Rock Climbing Sunshine Wall'
p1678
sS'hike2311'
p1679
S'Pacific Way Trail'
p1680
sS'hike2310'
p1681
S'Slough Trail'
p1682
sS'hike844'
p1683
S'Pyramid Lake Trail'
p1684
sS'hike845'
p1685
S'Lake George Trail'
p1686
sS'hike846'
p1687
S'Pipeline Loop to the 360 Viewpoint'
p1688
sS'hike847'
p1689
S'Grasshopper Pass via the PCT'
p1690
sS'hike840'
p1691
S'Spruce Nature Trail and Hall of Mosses Loop'
p1692
sS'hike841'
p1693
S'Dock Butte Trail'
p1694
sS'hike842'
p1695
S'Goat Peak Lookout Trail'
p1696
sS'hike843'
p1697
S'Ipsut Creek Campground via Carbon River Trail '
p1698
sS'hike1367'
p1699
S'Cady Ridge Trail'
p1700
sS'hike1366'
p1701
S'Mount Carrie: High Divide Trail Route'
p1702
sS'hike1365'
p1703
S'Mount Spokane Summit - Saddle Junction Trail'
p1704
sS'hike1364'
p1705
S'Paddy-Go-Easy Pass Trail'
p1706
sS'hike1363'
p1707
S'Black Lake'
p1708
sS'hike1362'
p1709
S'360 Project MTB Loop'
p1710
sS'hike1361'
p1711
S'West Fork Dosewallips River Trail'
p1712
sS'hike1360'
p1713
S'Whitaker Peak and Shy Bear Loop Trail to Doughty Falls'
p1714
sS'hike1369'
p1715
S'Upper Wheeler Reservior'
p1716
sS'hike1368'
p1717
S'Bainbridge Island Waterfront Trail'
p1718
sS'hike282'
p1719
S'Malachite Lake via West Fork Foss Lakes Trail'
p1720
sS'hike283'
p1721
S'Silver Lake Way Trail'
p1722
sS'hike280'
p1723
S'Quinault River Pony Bridge Trail'
p1724
sS'hike281'
p1725
S'Kendall Peak Lakes Trail'
p1726
sS'hike286'
p1727
S'North Siouxon Creek to Black Hole Falls'
p1728
sS'hike287'
p1729
S'Skookum Flats Trail'
p1730
sS'hike284'
p1731
S'McDonald Mountain Trail'
p1732
sS'hike285'
p1733
S'De Leo Wall Trail'
p1734
sS'hike288'
p1735
S'Mud Mountain Rim Trail'
p1736
sS'hike289'
p1737
S"Trillium Trail and Siler's Mill Trail"
p1738
sS'hike2409'
p1739
S'Ahtanum State Forest OHV Route'
p1740
sS'hike2408'
p1741
S'Willow Lake Trail'
p1742
sS'hike2403'
p1743
S'Quartz Creek, Manastash Creek, Frost Mountain, Taneum Creek, and Greek Creek OHV Loop'
p1744
sS'hike2402'
p1745
S'Northwest Timber to The Legend and (Lower) East Tiger '
p1746
sS'hike2401'
p1747
S'South Twin to Moon Mountain'
p1748
sS'hike2400'
p1749
S'McCellan Butte OHV Trail'
p1750
sS'hike2407'
p1751
S'Green Gulch Trail'
p1752
sS'hike2406'
p1753
S'Early Winters Trail'
p1754
sS'hike2405'
p1755
S'North Fork Nooksack Trail'
p1756
sS'hike2404'
p1757
S'Amabilis Mountain Loop'
p1758
sS'hike1219'
p1759
S'Augspurger Mountain Trail'
p1760
sS'hike1218'
p1761
S'Kennedy Falls Trail '
p1762
sS'hike1213'
p1763
S'Camas Potholes and Waterfall Loop via Lake to Lake Trail'
p1764
sS'hike1212'
p1765
S'Curly Creek Falls Via Lewis River Trail'
p1766
sS'hike1211'
p1767
S'Observation Peak via Observation Trail #132'
p1768
sS'hike1210'
p1769
S'Shipwreck Coast'
p1770
sS'hike1217'
p1771
S'Heritage Park Trail'
p1772
sS'hike1216'
p1773
S'Lake Dorothy, Bear Lake, Deer Lake, Snoqualmie Lake via Dorothy Lake Trail'
p1774
sS'hike1215'
p1775
S'Rainbow Falls State Park Loop Trail'
p1776
sS'hike1214'
p1777
S'The Mount Spokane Loop Summer Route'
p1778
sS'hike1815'
p1779
S'Juanita Beach Loop'
p1780
sS'hike1814'
p1781
S'Maiden Peak from Deer Park Campground'
p1782
sS'hike1817'
p1783
S'Red Bluff Trail (#533)'
p1784
sS'hike1816'
p1785
S'Driveway Butte Trail'
p1786
sS'hike1811'
p1787
S'Jones Island'
p1788
sS'hike1810'
p1789
S'Gee Point Trail'
p1790
sS'hike1813'
p1791
S'Bear Creek Mountain Trail'
p1792
sS'hike1812'
p1793
S'Juniper Dunes Wilderness Area'
p1794
sS'hike1819'
p1795
S'Greenbelt Walkway Trail'
p1796
sS'hike1818'
p1797
S'Trout Loop Trail'
p1798
sS'hike2546'
p1799
S'Upper Lake Josephine OHV Trail'
p1800
sS'hike2547'
p1801
S'Route 410, RD 1712-665, and RD 1713 OHV Trail'
p1802
sS'hike74'
p1803
S'Boulder River Trail'
p1804
sS'hike2545'
p1805
S'Cispus River to Blue Lake OHV Trail'
p1806
sS'hike72'
p1807
S'Ruby Beach'
p1808
sS'hike73'
p1809
S'Mount Fremont Lookout Trail'
p1810
sS'hike70'
p1811
S'Meadowdale Beach Trails'
p1812
sS'hike2541'
p1813
S'Bald Mountain OHV Loop'
p1814
sS'hike2548'
p1815
S'North Twentymile Trail'
p1816
sS'hike2549'
p1817
S'North Fork Taneum OHV Loop'
p1818
sS'hike440'
p1819
S'Lake Stuart and Colchuck Lake Trail'
p1820
sS'hike441'
p1821
S'Granite Falls (Fish Ladder) Trail'
p1822
sS'hike442'
p1823
S'Waughop Lake Loop '
p1824
sS'hike443'
p1825
S'Deer Lake Trail'
p1826
sS'hike444'
p1827
S'Dege Peak Trail'
p1828
sS'hike445'
p1829
S'Penrose Point State Park Trail'
p1830
sS'hike446'
p1831
S'Kubota Garden Natural Area Trails'
p1832
sS'hike447'
p1833
S'Lookout Mountain'
p1834
sS'hike448'
p1835
S'Echo Lake via Greenwater Trail'
p1836
sS'hike449'
p1837
S'Gazzam Lake Park Trail'
p1838
sS'hike668'
p1839
S'Lava Canyon Suspension Bridge'
p1840
sS'hike669'
p1841
S'Ancient Groves Nature Trail'
p1842
sS'hike1443'
p1843
S'Scatter Lake Trail'
p1844
sS'hike660'
p1845
S'Cispus Pass Loop Trail'
p1846
sS'hike661'
p1847
S'Little Cranberry Lake Outer Loop'
p1848
sS'hike662'
p1849
S'Cedar Falls Trail'
p1850
sS'hike663'
p1851
S'Third Beach to Hoh River'
p1852
sS'hike664'
p1853
S'Cora Lake Trail'
p1854
sS'hike665'
p1855
S'Tolt Pipeline Trail'
p1856
sS'hike666'
p1857
S'Blue Lake and Dock Butte Trail'
p1858
sS'hike667'
p1859
S'Mount Baker Standard Summit Route'
p1860
sS'hike1969'
p1861
S'Lemei Lake Trail via East Crater Trail'
p1862
sS'hike1968'
p1863
S'Pacific Crest Trail from Panther Creek'
p1864
sS'hike1965'
p1865
S'Umtanum Ridge Road'
p1866
sS'hike1964'
p1867
S'Skagit Nature Trail Loop'
p1868
sS'hike1967'
p1869
S'Bovies Meadow Trail'
p1870
sS'hike1966'
p1871
S'Wildflower Loop Trail'
p1872
sS'hike1961'
p1873
S'West Cady Ridge Trail to Bench Mark Mountain'
p1874
sS'hike1960'
p1875
S'Trail 101 to Rimrock Drive'
p1876
sS'hike1963'
p1877
S'Pioneer Square Walking Tour'
p1878
sS'hike1962'
p1879
S'Cowiche Canyon Wine Trail'
p1880
sS'hike714'
p1881
S'North Fork Skokomish River Trail'
p1882
sS'hike715'
p1883
S'Weldon Wagon Road Trail'
p1884
sS'hike716'
p1885
S'Big Tree Ridge Trail'
p1886
sS'hike717'
p1887
S'Cushman Trail'
p1888
sS'hike710'
p1889
S'Maury Island Natural Area Loop'
p1890
sS'hike711'
p1891
S'Olallie Lake via Pratt Lake Trail'
p1892
sS'hike712'
p1893
S'Talapus Lake via Pratt Lake Trail'
p1894
sS'hike713'
p1895
S'Erie Mountain Via Whistle Lake Trail'
p1896
sS'hike718'
p1897
S'Hood Canal and Theler Wetlands Trails'
p1898
sS'hike719'
p1899
S'Fletcher Canyon Trail'
p1900
sS'hike1561'
p1901
S'Cama Beach Marine View Loop and Cranberry Lake'
p1902
sS'hike1560'
p1903
S'Deep Lake and Lake Vicente'
p1904
sS'hike1563'
p1905
S'Wallula Gap Overlook '
p1906
sS'hike1562'
p1907
S'Faraway Rock via Reflection Lakes'
p1908
sS'hike1565'
p1909
S'Drive to the Top of Mount Spokane'
p1910
sS'hike1564'
p1911
S'Elbow Lake Trail'
p1912
sS'hike1567'
p1913
S'Snoqualmie Falls Viewpoint via Preston-Snoqualmie Trail '
p1914
sS'hike1566'
p1915
S'Valhalla Lake Via Pacific Crest Trail'
p1916
sS'hike1569'
p1917
S'Sand Point Trail to North Coast Beach Travelway'
p1918
sS'hike1568'
p1919
S'Issaquah Highlands Loop'
p1920
sS'hike2142'
p1921
S'Mount Adams Climb to Riley Creek/FR # 23'
p1922
sS'hike2143'
p1923
S'Mildred Point via Comet Falls-Van Trump and Wonderland Trail'
p1924
sS'hike2140'
p1925
S'Old Wagon Trail'
p1926
sS'hike2141'
p1927
S'Rat Trap Pass'
p1928
sS'hike2146'
p1929
S'Mount Si and Mount Teneriffe Loop'
p1930
sS'hike2147'
p1931
S'Quarry Trails Loop'
p1932
sS'hike2144'
p1933
S'Wenatchee Yellow Hill Trail #1222'
p1934
sS'hike2145'
p1935
S'High Log Trail '
p1936
sS'hike2148'
p1937
S'Rasar State Park to Skagit River Woods Loop'
p1938
sS'hike2149'
p1939
S'Newberry Hill Lower Loop to Upper Loop'
p1940
sS'hike1172'
p1941
S'Sauk Lake Trail'
p1942
sS'hike1173'
p1943
S'Big Creek Falls Trail'
p1944
sS'hike1170'
p1945
S'Koenemann Lake Trail'
p1946
sS'hike1171'
p1947
S'Fragrance Lake via Two Dollar Trail from Cleator Road'
p1948
sS'hike1176'
p1949
S'De Roux Trail'
p1950
sS'hike1177'
p1951
S'Point of the Arches Trail'
p1952
sS'hike1174'
p1953
S'Waughop Lake Trail'
p1954
sS'hike1175'
p1955
S'Riverside State Park Rattlesnake Trail'
p1956
sS'hike1178'
p1957
S'Upper South Fork Skokomish Trail'
p1958
sS'hike1179'
p1959
S'Lost Lake Trail, Woodpecker Trail, Erratic Trail, Windfall Trail Loop'
p1960
sS'hike1770'
p1961
S'Point Whitehorn Trail '
p1962
sS'hike1771'
p1963
S'Mission Ridge Trail'
p1964
sS'hike1772'
p1965
S'Selah Cliffs Preserve Trail'
p1966
sS'hike1773'
p1967
S'Bluebird Hiking Trail'
p1968
sS'hike1774'
p1969
S'Hoodsport Trail Loop'
p1970
sS'hike1775'
p1971
S'Three Forks Snoqualmie River Trail'
p1972
sS'hike1776'
p1973
S'Colman Park to Seward Park'
p1974
sS'hike1777'
p1975
S'Graves Creek Trail'
p1976
sS'hike1778'
p1977
S'Cowlitz River Trail'
p1978
sS'hike1779'
p1979
S'Glacier Basin to Burroughs Mountain to Wonderland Trail Loop'
p1980
sS'hike2094'
p1981
S'Huckleberry Saddle via Blue Lake Trailhead'
p1982
sS'hike2095'
p1983
S'Doe Falls Trail'
p1984
sS'hike2096'
p1985
S'Sunrise Rock Trail'
p1986
sS'hike2097'
p1987
S'Alger Truck Trail'
p1988
sS'hike2090'
p1989
S'Fifes Ridge Trail'
p1990
sS'hike2091'
p1991
S'Sand Ridge Trail'
p1992
sS'hike2092'
p1993
S'Crofton Butte Trail'
p1994
sS'hike2093'
p1995
S'Waterline Trail from Lake Boren Park'
p1996
sS'hike2098'
p1997
S'Frink Park Loop'
p1998
sS'hike2099'
p1999
S'Cold Creek to Forest Road 9070'
p2000
sS'hike1684'
p2001
S'Dusty Lake to Ancient Lakes'
p2002
sS'hike1685'
p2003
S'James T. Slavin Nature Loop'
p2004
sS'hike1686'
p2005
S'Military Road, Coal Creek Falls, Wildside Trail'
p2006
sS'hike1687'
p2007
S'Fuzzy Top Trail'
p2008
sS'hike1680'
p2009
S'Deep Creek Trail'
p2010
sS'hike1681'
p2011
S'Frog Lake Trail'
p2012
sS'hike1682'
p2013
S'Golden Horn Trail'
p2014
sS'hike1683'
p2015
S'Osborne Mountain Trail'
p2016
sS'hike1688'
p2017
S'Ewing Cove Trail'
p2018
sS'hike1689'
p2019
S'Goat Island Mountain Trail'
p2020
sS'hike89'
p2021
S'Mount Walker'
p2022
sS'hike88'
p2023
S'Green Mountain Lookout via Gold Creek Trail'
p2024
sS'hike83'
p2025
S'Silver Star Mountain via Grouse Vista Trail'
p2026
sS'hike82'
p2027
S'Bandera Mountain Summit'
p2028
sS'hike81'
p2029
S'Point Defiance Park Outer Loop'
p2030
sS'hike80'
p2031
S'Staircase Rapids Loop'
p2032
sS'hike87'
p2033
S'Skyline Divide Trail'
p2034
sS'hike86'
p2035
S'Icicle Ridge Trail (#1570)'
p2036
sS'hike85'
p2037
S'Lime Kiln Trail'
p2038
sS'hike84'
p2039
S'Icicle Gorge Trail'
p2040
sS'hike2328'
p2041
S'Whale Watch Site Trail'
p2042
sS'hike2329'
p2043
S'Geophysical Nordic Ski and Mtn Bike Trail'
p2044
sS'hike2322'
p2045
S'North Canyon Trail to Joe Watt Trail Loop'
p2046
sS'hike2323'
p2047
S'7 Peaks of East and South Tiger Mountains'
p2048
sS'hike2320'
p2049
S'Cougar Mountain via S Tommy and Tyee Ridge Trail'
p2050
sS'hike2321'
p2051
S'Gifford Peak via PCT'
p2052
sS'hike2326'
p2053
S'Image Lake via Suiattle Trail'
p2054
sS'hike2327'
p2055
S'Early Winters Spires'
p2056
sS'hike2324'
p2057
S'Walla Walla River'
p2058
sS'hike2325'
p2059
S'Richmond Mine Trail'
p2060
sS'hike879'
p2061
S'Lake Washington North, Beach and Seminary Trail Loop'
p2062
sS'hike878'
p2063
S'Mountain Loop Highway'
p2064
sS'hike1358'
p2065
S'Wawawai Canyon'
p2066
sS'hike1359'
p2067
S'Crater Lakes Trail'
p2068
sS'hike971'
p2069
S'Tiger Mountain Adventure Trail'
p2070
sS'hike1352'
p2071
S'Stubblefield Lake Loop'
p2072
sS'hike870'
p2073
S'Layser Cave Trail'
p2074
sS'hike1350'
p2075
S'Twin Lakes to Silesia Creek Trail'
p2076
sS'hike1351'
p2077
S'Ebey Slough Trail'
p2078
sS'hike875'
p2079
S'Mount Margaret to Mount Saint Helens'
p2080
sS'hike874'
p2081
S'Peshastin Pinnacles Loop Trail'
p2082
sS'hike877'
p2083
S'Saratoga Woods Trail'
p2084
sS'hike1355'
p2085
S"May's Creek Trail "
p2086
sS'hike1198'
p2087
S'Foulweather Bluff Preserve Trail'
p2088
sS'hike1199'
p2089
S'Mount Si via Teneriffe Connector'
p2090
sS'hike973'
p2091
S'North, Beach, South Canyon, Orchard, Juanita, Arrowhead Loop'
p2092
sS'hike1190'
p2093
S'English Pond, Red Barn, and Easy 8 Loop Trail'
p2094
sS'hike1191'
p2095
S'Tennant Lake Trail'
p2096
sS'hike1192'
p2097
S'Ridge Loop Trail '
p2098
sS'hike1193'
p2099
S'Sharpe Park Loop'
p2100
sS'hike1194'
p2101
S'Mountain Lake'
p2102
sS'hike1195'
p2103
S'Central Whidbey Island: Coupeville and Fort Casey'
p2104
sS'hike1196'
p2105
S'Smithbrook Trail'
p2106
sS'hike1197'
p2107
S'Spokane River Centennial Trail and 25 Loop'
p2108
sS'hike976'
p2109
S'Killen Creek Trail'
p2110
sS'hike279'
p2111
S'Whipple Creek Park Loop Trail'
p2112
sS'hike278'
p2113
S'Burke-Gilman Trail: Ballard Bridge to Bothell'
p2114
sS'hike277'
p2115
S'Green Mountain via Wildcat Trail'
p2116
sS'hike276'
p2117
S'Painted Rocks Nature Trail'
p2118
sS'hike275'
p2119
S'Keekwulee Falls via Denny Creek Trail'
p2120
sS'hike274'
p2121
S'Winchester Mountain Trail'
p2122
sS'hike273'
p2123
S'Anderson Landing Trail'
p2124
sS'hike272'
p2125
S'Woodard Bay Natural Resources Conservation Area Loop Trail'
p2126
sS'hike271'
p2127
S'Snoqualmie Mountain'
p2128
sS'hike270'
p2129
S"Sauer's Mountain"
p2130
sS'hike979'
p2131
S'Cave Hole Trail to Coal Creek Falls Trail'
p2132
sS'hike2438'
p2133
S'Ericsons Bay Primitive Trail '
p2134
sS'hike2439'
p2135
S'Extended Loop from Bracken Trailhead'
p2136
sS'hike2436'
p2137
S'Norada Falls to Mazama Ridge Loop'
p2138
sS'hike2437'
p2139
S'David Douglas Park Trail'
p2140
sS'hike2434'
p2141
S'Filloon Trail'
p2142
sS'hike2435'
p2143
S'Robinson Pass Middle Fork Pasayten Trail'
p2144
sS'hike2432'
p2145
S'CCC Trail: North Section'
p2146
sS'hike2433'
p2147
S'Bygone Byways Interpretive Trail'
p2148
sS'hike2430'
p2149
S'Grey Wolf Deer Loop'
p2150
sS'hike2431'
p2151
S'Dog Mountain [PRIVATE PROPERTY]'
p2152
sS'hike1228'
p2153
S'Cascade Trail'
p2154
sS'hike1229'
p2155
S'Mink Lake Trail to Blackwood Lake'
p2156
sS'hike1226'
p2157
S'Llandover Woods '
p2158
sS'hike1227'
p2159
S'Eight Mile Trail'
p2160
sS'hike1224'
p2161
S'Little Cranberry Lake Inner Loop'
p2162
sS'hike1225'
p2163
S'Dash Point State Park Mountain Bike Trails'
p2164
sS'hike1222'
p2165
S'Columbia Plateau Trail to Fish Lake'
p2166
sS'hike1223'
p2167
S'Lower Green River Trail Kent to Tukwila'
p2168
sS'hike1220'
p2169
S'Round Lake Via Lost Creek Ridge Trail'
p2170
sS'hike1221'
p2171
S'West Tiger 3, Talus Rocks, Section Line and Bus Trail Loop'
p2172
sS'hike1293'
p2173
S'Farrel-McWhirter Park / Juel Park'
p2174
sS'hike1292'
p2175
S"Enchanted Valley with O'Neil Pass Loop and Anderson Glacier Trek"
p2176
sS'hike1291'
p2177
S'Wagonroad Trail to Franklin Falls'
p2178
sS'hike2559'
p2179
S'Tronson Ridge and Miller Peak OHV Trail'
p2180
sS'hike2558'
p2181
S'Capital Forest and Waddell OHV Loop'
p2182
sS'hike389'
p2183
S'Snow Lake Trail to Source Lake Spur Trail'
p2184
sS'hike388'
p2185
S'Lake Padden Singletrack'
p2186
sS'hike383'
p2187
S'Red Top Lookout Trail'
p2188
sS'hike382'
p2189
S'Taylor River Trail'
p2190
sS'hike381'
p2191
S'Skyline Lake Trail'
p2192
sS'hike380'
p2193
S'Fort Ebey State Park Loop'
p2194
sS'hike387'
p2195
S'Hidden Lake Trail'
p2196
sS'hike386'
p2197
S'Pike Place Market'
p2198
sS'hike385'
p2199
S'Tipsoo Lake to Dewey Lake Loop'
p2200
sS'hike384'
p2201
S'Lake Wilderness'
p2202
sS'hike65'
p2203
S'Barclay Lake Trail'
p2204
sS'hike64'
p2205
S'Heybrook Lookout Trail'
p2206
sS'hike67'
p2207
S'High Divide - Seven Lakes Basin Loop'
p2208
sS'hike66'
p2209
S"Silver Star and Ed's Trail Loop"
p2210
sS'hike61'
p2211
S'Summit Lake Trail'
p2212
sS'hike60'
p2213
S'Snow Lake, Gem Lake, Upper Wildcat Lake'
p2214
sS'hike63'
p2215
S'Lake Ingalls'
p2216
sS'hike62'
p2217
S'Coyote Wall Loop Trail'
p2218
sS'hike1294'
p2219
S'Sequalitchew Loop'
p2220
sS'hike69'
p2221
S'Sequalitchew Creek Trail'
p2222
sS'hike68'
p2223
S'Chain Lakes Loop Trail'
p2224
sS'hike871'
p2225
S'Snoqualmie Lake via Taylor River Trail'
p2226
sS'hike479'
p2227
S'Overland OHV Loop Trail'
p2228
sS'hike478'
p2229
S'Necklace Valley Trail'
p2230
sS'hike1353'
p2231
S'Happy Creek Forest Walk Trail'
p2232
sS'hike475'
p2233
S'Horseshoe Bend Trail'
p2234
sS'hike474'
p2235
S'Indian Heaven Trail'
p2236
sS'hike477'
p2237
S'Squak Mountain Fireplace Trail'
p2238
sS'hike476'
p2239
S'Duthie Mountain Bike Park Loop'
p2240
sS'hike471'
p2241
S'Mount Si via Old Si Trail'
p2242
sS'hike873'
p2243
S'Oregon Butte Trail'
p2244
sS'hike473'
p2245
S'Excelsior Pass Trail'
p2246
sS'hike472'
p2247
S'Crystal Peak Trail'
p2248
sS'hike655'
p2249
S"Debbie's View via May Valley Loop and West Peak Trail"
p2250
sS'hike654'
p2251
S"Devil's Dome Loop"
p2252
sS'hike657'
p2253
S'Indian Painted Rock and Knothead Valley Loop'
p2254
sS'hike872'
p2255
S'Waughop Lake MTB Course'
p2256
sS'hike651'
p2257
S'Lowell Riverfront Trail'
p2258
sS'hike650'
p2259
S'Glacier Basin Via Monte Cristo Trail'
p2260
sS'hike653'
p2261
S'Wilderness Creek Trail'
p2262
sS'hike652'
p2263
S'Takhlakh Lake and Meadows Trail'
p2264
sS'hike1356'
p2265
S'Reflection Lake to Narada Falls via Wonderland Trail'
p2266
sS'hike659'
p2267
S'Guemes Mountain'
p2268
sS'hike658'
p2269
S'Hoh River Trail to Blue Glacier Trail'
p2270
sS'hike129'
p2271
S'Pinnacle Peak Saddle Trail'
p2272
sS'hike1357'
p2273
S'Poodle Dog Pass Silver Lake Trail'
p2274
sS'hike497'
p2275
S'West Hylebos Wetlands Trail'
p2276
sS'hike496'
p2277
S'Foothills Trail: Orting to Buckley'
p2278
sS'hike495'
p2279
S'Paradise Glacier Trail'
p2280
sS'hike494'
p2281
S'Gibbons Creek Wildlife Art Trail'
p2282
sS'hike493'
p2283
S'Dalles Mountain Trail'
p2284
sS'hike492'
p2285
S'Colonel Bob Trail'
p2286
sS'hike491'
p2287
S'Dewey Lake Trail'
p2288
sS'hike490'
p2289
S'High Drive Parkway Trail'
p2290
sS'hike876'
p2291
S'Lake to Lake Trail Loop via Lacamas Creek'
p2292
sS'hike499'
p2293
S'Bear Lake Trail'
p2294
sS'hike498'
p2295
S'Cougar Trails Loop'
p2296
sS'hike1724'
p2297
S'Tumwater Mountain Approach'
p2298
sS'hike1052'
p2299
S'Badger Valley to Grand Lake and Grand Pass Loop'
p2300
sS'hike1990'
p2301
S'Pipeline, Temple Pond and Quarry Loop '
p2302
sS'hike1991'
p2303
S'Ape Canyon, Smith Creek, Lava Canyon Loop'
p2304
sS'hike1992'
p2305
S'Beal Hill Loop'
p2306
sS'hike1993'
p2307
S'Mineral Creek Trail'
p2308
sS'hike1994'
p2309
S'Marmot, Tuck, and Robin Lakes via Deception Pass'
p2310
sS'hike1995'
p2311
S'Pinecliff Trail Loop'
p2312
sS'hike1996'
p2313
S'Road 6310: Jumpoff Ridge Trail'
p2314
sS'hike1997'
p2315
S'Seaquest #8, #5, #6, #7 Loop'
p2316
sS'hike1998'
p2317
S'Mismash Loop'
p2318
sS'hike1999'
p2319
S'Dege Peak and Frozen Lake via Sourdough Ridge Trail'
p2320
sS'hike721'
p2321
S'Soda Peaks Lake Trail West'
p2322
sS'hike720'
p2323
S'Lower Big Quilcene Trail'
p2324
sS'hike723'
p2325
S'Fort Flagler Trail'
p2326
sS'hike722'
p2327
S'Mountain Lake and Twin Lakes Trail'
p2328
sS'hike725'
p2329
S'Bresemann Forest Trail'
p2330
sS'hike724'
p2331
S'Dirtybox Peak'
p2332
sS'hike727'
p2333
S'Davis Peak Lookout Trail'
p2334
sS'hike726'
p2335
S'Lime Kiln Point State Park Trails'
p2336
sS'hike729'
p2337
S'Coulon Beach Park Trails'
p2338
sS'hike728'
p2339
S'Twin Lakes Trail'
p2340
sS'hike1514'
p2341
S'Triangle Pass OHV Road'
p2342
sS'hike1515'
p2343
S'Old Ranch Road and Little Maui Trail Loop'
p2344
sS'hike1516'
p2345
S'Damfino Lakes Trail'
p2346
sS'hike1517'
p2347
S'Clear Lost Trail'
p2348
sS'hike1510'
p2349
S'Grass Lake Nature Park Trail'
p2350
sS'hike1511'
p2351
S'Whitehorse Trail '
p2352
sS'hike1512'
p2353
S'Copalis River Spit Trail'
p2354
sS'hike1513'
p2355
S'Xanadu Trail'
p2356
sS'hike1518'
p2357
S'Hall Mountain Trail'
p2358
sS'hike1519'
p2359
S'Yakima Rim Loop Trail'
p2360
sS'hike1428'
p2361
S'Bird Meadow Trail to Bird Lake Trail'
p2362
sS'hike1429'
p2363
S'CCC Road Trail via Blowout Creek Trailhead'
p2364
sS'hike1420'
p2365
S'John Wayne Pioneer Trail: Ellensburg to Lake Easton'
p2366
sS'hike1421'
p2367
S'Buck Creek to High Pass'
p2368
sS'hike1422'
p2369
S'Lower Tuscohatchie Lake '
p2370
sS'hike1423'
p2371
S'Tomyhoi Peak'
p2372
sS'hike1424'
p2373
S'Lake Ethel Trail'
p2374
sS'hike1425'
p2375
S'Pilchuck Trail '
p2376
sS'hike1426'
p2377
S'Lewis Butte'
p2378
sS'hike1427'
p2379
S'East Fork Trail #139'
p2380
sS'hike1271'
p2381
S'Tipsoo Lake Loop'
p2382
sS'hike2155'
p2383
S'Trail 102: South Trail Green Loop'
p2384
sS'hike2154'
p2385
S'Old Man Pass Loop'
p2386
sS'hike2157'
p2387
S'Estes Butte Trail'
p2388
sS'hike2156'
p2389
S'Cypress Island Airfield Trail'
p2390
sS'hike2151'
p2391
S'Fort Lewis Area 23 Loop'
p2392
sS'hike2150'
p2393
S'Red Hill Trail'
p2394
sS'hike2153'
p2395
S'Lightning Creek Trail'
p2396
sS'hike2152'
p2397
S'Lewis & Clark Discovery Greenway to Renaissance Trail'
p2398
sS'hike2159'
p2399
S'River View Quarry Road to Quarry Trail Loop'
p2400
sS'hike2158'
p2401
S'Battle Point Trail'
p2402
sS'hike1270'
p2403
S"Fred's Railroad and Wilderness Peak Loop"
p2404
sS'hike1165'
p2405
S'Volunteer Park Loop'
p2406
sS'hike1164'
p2407
S'Snoqualmie Valley Trail'
p2408
sS'hike1167'
p2409
S'Kloshe Nanitch Trail'
p2410
sS'hike1166'
p2411
S'Mima Falls Trail and McKenny Trail Loop from Margaret McKenny Campground'
p2412
sS'hike1161'
p2413
S'Mount Aix Trail'
p2414
sS'hike1160'
p2415
S'Teddy Bear Cove via Interurban Trail '
p2416
sS'hike1163'
p2417
S'Little Kachess Trail'
p2418
sS'hike1162'
p2419
S'Ellen Davis Trail'
p2420
sS'hike1169'
p2421
S'Art Walk Trail'
p2422
sS'hike1168'
p2423
S'Boundary Trail to Log Jam Trail Loop'
p2424
sS'hike1763'
p2425
S'Lake Margaret via Icicle Creek and Wildhorse Trail'
p2426
sS'hike1762'
p2427
S'Clark Creek Loop Trail'
p2428
sS'hike1761'
p2429
S'Slide Mountain Fossil Beds'
p2430
sS'hike1760'
p2431
S"South Ridge, Hillside, Brick Road and Piper's Creek Trail "
p2432
sS'hike1767'
p2433
S'Rocky Creek Conservation Area Trails'
p2434
sS'hike1766'
p2435
S'White Chuck Bench Trail'
p2436
sS'hike1765'
p2437
S'Mount Rainier Eastside Trail'
p2438
sS'hike1764'
p2439
S'Green Mountain via Sitka Spruce Trail'
p2440
sS'hike1769'
p2441
S'South Little Mountain Lollipop '
p2442
sS'hike1768'
p2443
S'Lakemont Loop Trail'
p2444
sS'hike78'
p2445
S'Blue Lake Trail'
p2446
sS'hike1272'
p2447
S'Lake Swano Trail'
p2448
sS'hike2161'
p2449
S'18th Street to Main Vein Loop'
p2450
sS'hike2087'
p2451
S"Jack's Mountain via East Bank Trail "
p2452
sS'hike79'
p2453
S'Falls Creek Trail Loop'
p2454
sS'hike2085'
p2455
S'Shinglemill Creek Loop'
p2456
sS'hike2084'
p2457
S'Rainier Trail'
p2458
sS'hike2083'
p2459
S'Walk - N - Roll and Horse Trail Loop'
p2460
sS'hike2082'
p2461
S'Talapus, Olallie, and Island Lakes via Olallie Lake Trail and Island Rainbow Trail'
p2462
sS'hike2081'
p2463
S'188, Grinder, Techmo and Landtrust Loop '
p2464
sS'hike1094'
p2465
S'Mill Butte Trail'
p2466
sS'hike1097'
p2467
S'Tronsen Ridge Trail'
p2468
sS'hike2089'
p2469
S'Master Link and Predator Loop'
p2470
sS'hike2088'
p2471
S'Tarbell and Thrillium'
p2472
sS'hike1697'
p2473
S'Fort Ward Upper Loop via Ridge Trail'
p2474
sS'hike1696'
p2475
S'Cultus Creek Trail'
p2476
sS'hike1695'
p2477
S'Klondike Swamp Loop'
p2478
sS'hike1694'
p2479
S'Silver King Via Silver Creek Trail'
p2480
sS'hike1693'
p2481
S'Noble Knob Northern Approach'
p2482
sS'hike1692'
p2483
S'Sasse Mountain Trail (#1340)'
p2484
sS'hike1691'
p2485
S'Peshastin Mill Trail'
p2486
sS'hike1690'
p2487
S'Green Dots Trails at Whiskey Dick OHV Trail'
p2488
sS'hike1091'
p2489
S'Bethel Ridge OHV Trail'
p2490
sS'hike1699'
p2491
S'Turtleback Mountain Loop'
p2492
sS'hike1698'
p2493
S'South Skookum Trail'
p2494
sS'hike1093'
p2495
S'Camp Long Trails'
p2496
sS'hike1092'
p2497
S'Stevens Creek Trail'
p2498
sS'hike866'
p2499
S'Baker Lake East Bank to Noisy Creek Trail'
p2500
sS'hike867'
p2501
S'Lake Sacajawea Park Trail'
p2502
sS'hike864'
p2503
S'Iron Horse Trail from Olallie State Park to Rattlesnake Lake'
p2504
sS'hike865'
p2505
S'Tommy Thompson Trail'
p2506
sS'hike862'
p2507
S'Indian Henrys Hunting Ground Trail to Mirror Lakes'
p2508
sS'hike863'
p2509
S'West Tiger #1 Via Preston Trail'
p2510
sS'hike860'
p2511
S'Beacon Hill Loop from Camp Sekani Trailhead'
p2512
sS'hike861'
p2513
S'Loop Trail via West Emerson Street Entrance'
p2514
sS'hike2335'
p2515
S'Watson Lake toward Mount Watson'
p2516
sS'hike2334'
p2517
S'Fauntleroy Park Trail '
p2518
sS'hike2337'
p2519
S'Vashon Nature Preserve'
p2520
sS'hike2336'
p2521
S'Silver Star Trail'
p2522
sS'hike2331'
p2523
S'Deer Lake and Little Divide Trail '
p2524
sS'hike2330'
p2525
S'Lower Falls and Woodburn Falls via Lake to Lake Trail'
p2526
sS'hike868'
p2527
S'Hannegan Pass Trail'
p2528
sS'hike869'
p2529
S'Saltese Uplands Trail'
p2530
sS'hike1349'
p2531
S'Baldy Trail'
p2532
sS'hike1348'
p2533
S'Chatter Creek Trail'
p2534
sS'hike1345'
p2535
S'Pear Lake Trail'
p2536
sS'hike1344'
p2537
S'High Camp Trail'
p2538
sS'hike1347'
p2539
S'Gazzam Lake and Veterane Open Space Preserves'
p2540
sS'hike1346'
p2541
S'Kennedy Creek Falls from Old Olympic Highway'
p2542
sS'hike1341'
p2543
S'Mica Peak Loop'
p2544
sS'hike1340'
p2545
S'Snohomish River and Shadow Lake Trail'
p2546
sS'hike1343'
p2547
S'Larch Lake from High Camp via North Fork Chiwaukum and McCue Ridge Trail'
p2548
sS'hike1342'
p2549
S'Sunrise Lake Trail'
p2550
sS'hike1189'
p2551
S'Spokane River Centennial Trail'
p2552
sS'hike1188'
p2553
S'Soos Creek Trail via Boulevard Lane Park'
p2554
sS'hike1183'
p2555
S'French Cabin Creek'
p2556
sS'hike1182'
p2557
S'Spokane Falls Trail'
p2558
sS'hike1181'
p2559
S'Swan Creek Canyon Rim Trail'
p2560
sS'hike1180'
p2561
S'Deception Crags  Trail'
p2562
sS'hike1187'
p2563
S'Falls View Trail'
p2564
sS'hike1186'
p2565
S'Sacagawea Heritage Trail'
p2566
sS'hike1185'
p2567
S'Little Quilcene Trail (historical)'
p2568
sS'hike1184'
p2569
S'Marten Lake Trail'
p2570
sS'hike268'
p2571
S'Myrtle Falls Viewpoint via Skyline Trail'
p2572
sS'hike269'
p2573
S'Dosewallips Steam Donkey Trail'
p2574
sS'hike264'
p2575
S'Saddlerock Trail'
p2576
sS'hike265'
p2577
S'Deep Creek Loop Trail'
p2578
sS'hike266'
p2579
S'Umtanum Creek Falls Trail'
p2580
sS'hike267'
p2581
S'Nathan Chapman Memorial Trail'
p2582
sS'hike260'
p2583
S'Whatcom Creek Trail Loop'
p2584
sS'hike261'
p2585
S'Mount Constitution Loop Trail'
p2586
sS'hike262'
p2587
S'Crystal Mountain Trail'
p2588
sS'hike263'
p2589
S"Cave Hole, Coal Creek Falls, Quarry, and Fred's Railroad Trail Loop"
p2590
sS'hike2421'
p2591
S'Coho Preserve Trail '
p2592
sS'hike2420'
p2593
S'Bald Mountain Centennial OHV Trail'
p2594
sS'hike2423'
p2595
S'Stiletto Lake via Twisp Pass Trail'
p2596
sS'hike2422'
p2597
S"Fenceline, River, Katie's, West Pond and Sewer Line Trail "
p2598
sS'hike2425'
p2599
S'Franklin Falls via National Forest Development Rd 5800'
p2600
sS'hike2424'
p2601
S'Sloan Peak Trail'
p2602
sS'hike2427'
p2603
S'Cedar Lake Primitive Trail via Grey Wolf River'
p2604
sS'hike2426'
p2605
S'Charilia Lakes via Upper Big Quilcene Trail, Upper Dungeness Trail, and Carlia Lakes Way Trail'
p2606
sS'hike2429'
p2607
S'Walker Valley Upper Mainland, WV-22, and Bear Creek OHV Loop'
p2608
sS'hike2428'
p2609
S'Kennedy Creek Summit Lake Loop'
p2610
sS'hike1231'
p2611
S'Silver Creek Trail #258'
p2612
sS'hike1230'
p2613
S'Salmon Creek Trail and Greenway Loop'
p2614
sS'hike1233'
p2615
S'Tradition Plateau Loop'
p2616
sS'hike1232'
p2617
S'Quartzite Mountain'
p2618
sS'hike1235'
p2619
S'Kiket Trail'
p2620
sS'hike1234'
p2621
S'Big Beaver Trail to Beaver Pass'
p2622
sS'hike1237'
p2623
S'Coal Lake Trail to North Lake'
p2624
sS'hike1236'
p2625
S'Larch Mountain via Tarbell Trail'
p2626
sS'hike1239'
p2627
S'Sheep Canyon Trail'
p2628
sS'hike1238'
p2629
S'Trout Lake, Copper Lake, Lake Malachite'
p2630
sS'hike1791'
p2631
S'Carne Mountain Basin'
p2632
sS'hike398'
p2633
S'Thunder Creek Trail'
p2634
sS'hike399'
p2635
S'Gobblers Knob/Lake George Trail'
p2636
sS'hike2528'
p2637
S'Alger Mountain Bike Trail'
p2638
sS'hike2529'
p2639
S'Belfuk OHV Loop'
p2640
sS'hike390'
p2641
S'Obstruction Point - Deer Park Trail'
p2642
sS'hike391'
p2643
S'Second Beach at Low Tide Loop'
p2644
sS'hike2526'
p2645
S'Manastash OHV Trail'
p2646
sS'hike393'
p2647
S'Picture Lake Path'
p2648
sS'hike394'
p2649
S'Loowit Falls Trail'
p2650
sS'hike395'
p2651
S'Four Cedars Outer Loop'
p2652
sS'hike396'
p2653
S'Spoon Creek Falls Trail'
p2654
sS'hike397'
p2655
S'Three Summits Loop Trail'
p2656
sS'hike50'
p2657
S'Mount Washington Trail'
p2658
sS'hike51'
p2659
S'Coal Creek Trail'
p2660
sS'hike52'
p2661
S'Talapus and Olallie Lakes via Olallie Lake Trail'
p2662
sS'hike53'
p2663
S'High Rock Lookout Trail'
p2664
sS'hike54'
p2665
S'Kendall Katwalk Trail'
p2666
sS'hike55'
p2667
S'Hoh River Trail'
p2668
sS'hike56'
p2669
S'Lewis River Falls Trail'
p2670
sS'hike57'
p2671
S'Naches Peak Loop Trail'
p2672
sS'hike58'
p2673
S'Cape Flattery Trail'
p2674
sS'hike59'
p2675
S'Gothic Basin Trail'
p2676
sS'hike468'
p2677
S'Third Beach Trail to Taylor Point'
p2678
sS'hike469'
p2679
S'Zig Zag Trail'
p2680
sS'hike462'
p2681
S'Cape Disappointment Lighthouse Loop Trail'
p2682
sS'hike463'
p2683
S'Three Fingers via Goat Flats Trail'
p2684
sS'hike460'
p2685
S'Humes Ranch Loop Trail'
p2686
sS'hike461'
p2687
S'Holder Ridge Trail'
p2688
sS'hike466'
p2689
S'Lake Christine Trail to Mt Beljica'
p2690
sS'hike467'
p2691
S'Chehalis Western Trail'
p2692
sS'hike464'
p2693
S'Cedar River Trail'
p2694
sS'hike465'
p2695
S'Green Mountain via Gold Creek Trail'
p2696
sS'hike642'
p2697
S'Dusty Lake Trail'
p2698
sS'hike643'
p2699
S'Bertha May and Granite Lakes Trail'
p2700
sS'hike640'
p2701
S'Little Annapurna'
p2702
sS'hike641'
p2703
S'Southwest Park Trail'
p2704
sS'hike646'
p2705
S'Foster Island Trail'
p2706
sS'hike647'
p2707
S'PCT: WA Section K - Stevens Pass to Rainy Pass'
p2708
sS'hike644'
p2709
S'Thorp Mountain Trail'
p2710
sS'hike645'
p2711
S'Mount Margaret Trail'
p2712
sS'hike648'
p2713
S'PCT: WA Section H - Cascade Locks to Highway 12 (White Pass)'
p2714
sS'hike649'
p2715
S'Paul Peak Trail'
p2716
sS'hike138'
p2717
S'Woodburn Falls and Round Lake via Lake to Lake Trail'
p2718
sS'hike139'
p2719
S'Marmot Lake and Jade Lake'
p2720
sS'hike484'
p2721
S'Lucia Falls Regional Park'
p2722
sS'hike485'
p2723
S'Lakeshore Trail and Wonderland Trail to Ipsut Pass'
p2724
sS'hike486'
p2725
S'Barlow Point Trail'
p2726
sS'hike487'
p2727
S'Old Sauk River Trail'
p2728
sS'hike480'
p2729
S'Rattlesnake Ledges to East Peak'
p2730
sS'hike481'
p2731
S'Weowna Park Loop Trail'
p2732
sS'hike482'
p2733
S'Dirtyface Peak Trail'
p2734
sS'hike483'
p2735
S'Cougar Mountain Indian Trail'
p2736
sS'hike488'
p2737
S"Dirty Harry's Peak via Birdhouse Trail"
p2738
sS'hike489'
p2739
S'Loowit Loop Trail'
p2740
sS'hike2630'
p2741
S'Group Camp Hiking Loop'
p2742
sS'hike2631'
p2743
S'Walker BR-0611 and BR-17 OHV Loop'
p2744
sS'hike2632'
p2745
S'Lava Canyon Loop and FR 83 Extension Trail Loop [CLOSED]'
p2746
sS'hike2633'
p2747
S'Tahuya River OHV Trail'
p2748
sS'hike2634'
p2749
S'Beaver, Babcock and Ranger Trail Loop'
p2750
sS'hike2635'
p2751
S'Mason Lake Loop'
p2752
sS'hike2636'
p2753
S'Minnow Creek to Chikamin Ridge to Chikamin Creek Loop'
p2754
sS'hike2637'
p2755
S'Canyon Ridge OHV Trail '
p2756
sS'hike2638'
p2757
S'Mason Lake Trail'
p2758
sS'hike2639'
p2759
S'Loch Eileen Trail [CLOSED]'
p2760
sS'hike1983'
p2761
S'Big Tree Loop'
p2762
sS'hike1982'
p2763
S'Community Garden and Beach Walk Loop '
p2764
sS'hike1981'
p2765
S"O'Neil Pass via North Fork of Skokomish Trail"
p2766
sS'hike1980'
p2767
S'Big Cedar to Old Timber to Bobcat Run Loop'
p2768
sS'hike1987'
p2769
S'Baldy Pass'
p2770
sS'hike1986'
p2771
S'Tokul East Loop'
p2772
sS'hike1985'
p2773
S'Castle Lake'
p2774
sS'hike1984'
p2775
S'Teneriffe, Blowdown and Si Loop'
p2776
sS'hike1989'
p2777
S"Red Town, Marshall's Hill, Wildside and De Leo Wall Loop"
p2778
sS'hike1988'
p2779
S'South Bessemer Mountain Trail'
p2780
sS'hike2551'
p2781
S'Taneum Creek and Road 1334 OHV Loop'
p2782
sS'hike738'
p2783
S'East Tiger Mountain Summit Trail'
p2784
sS'hike739'
p2785
S'Berkeley Park Trail'
p2786
sS'hike736'
p2787
S'Umtanum Creek Canyon Trail'
p2788
sS'hike737'
p2789
S'White Bluffs North Slope Trail'
p2790
sS'hike734'
p2791
S'Old Loop Road Trail'
p2792
sS'hike735'
p2793
S'Cascade Falls Trail'
p2794
sS'hike732'
p2795
S'Shoe Lake Via Pacific Crest Trail'
p2796
sS'hike733'
p2797
S'Nooksack Falls Trail '
p2798
sS'hike730'
p2799
S'Twin Peaks'
p2800
sS'hike731'
p2801
S'Ross Dam Trail'
p2802
sS'hike2552'
p2803
S'Suiattle River OHV Trail'
p2804
sS'hike2555'
p2805
S'Capital Forest OHV Trail'
p2806
sS'hike2554'
p2807
S'Hope and Mig Lakes via PCT'
p2808
sS'hike2557'
p2809
S'Blanchard Mill Loop'
p2810
sS'hike2556'
p2811
S'North Rim, Rock Candy, and Porter OHV Loop'
p2812
sS'hike1507'
p2813
S'Deadfall Trail'
p2814
sS'hike1506'
p2815
S'Pretzel Tree Trail'
p2816
sS'hike1505'
p2817
S'Fort Ward Hill Trail Loop to Blakely Harbor'
p2818
sS'hike1504'
p2819
S'Juniper Ridge Trail'
p2820
sS'hike1503'
p2821
S'Road 1 Sno-Park Trail'
p2822
sS'hike1502'
p2823
S'Old Market Street Trail'
p2824
sS'hike1501'
p2825
S'Seep Lakes Wildlife Area Trails'
p2826
sS'hike1500'
p2827
S'Lower Coal Creek Trail'
p2828
sS'hike1509'
p2829
S'Rock Trail'
p2830
sS'hike1508'
p2831
S'Reade Hill Trail'
p2832
sS'hike1263'
p2833
S'Elwha Overlook Trail'
p2834
sS'hike822'
p2835
S'Longs Pass Trail'
p2836
sS'hike823'
p2837
S'Deception Creek Trail'
p2838
sS'hike820'
p2839
S'Glass Beach'
p2840
sS'hike376'
p2841
S'South Lost Lake Trail'
p2842
sS'hike1439'
p2843
S'Greenleaf Falls Trail Via Pacific Crest Trail'
p2844
sS'hike1438'
p2845
S'Scarborough Hill Trail'
p2846
sS'hike1433'
p2847
S'Cashmere Mountain'
p2848
sS'hike826'
p2849
S'Elk Lake Trail'
p2850
sS'hike1431'
p2851
S'Bells View Overlook Trail'
p2852
sS'hike1430'
p2853
S'Seattle Center'
p2854
sS'hike1437'
p2855
S'East Fork Lena Creek via The Brothers Trail #821'
p2856
sS'hike1436'
p2857
S'Cameron Pass Trail'
p2858
sS'hike1435'
p2859
S'Elbow Peak Via Yellow Hill Trail'
p2860
sS'hike1434'
p2861
S'Cascade Scenic Drive'
p2862
sS'hike824'
p2863
S'Discovery Park Extended Loop Trail'
p2864
sS'hike825'
p2865
S'Swauk Forest Discovery Trail'
p2866
sS'hike1261'
p2867
S'Elliott Creek Trail'
p2868
sS'hike1756'
p2869
S'Forest Lake Via Huckleberry Creek and Sourdough Ridge Trails'
p2870
sS'hike1757'
p2871
S'Squak Mountain Connector Trail to Wilderness Creek'
p2872
sS'hike1754'
p2873
S'Snohomish River Sloughs'
p2874
sS'hike1755'
p2875
S'Bald Eagle Loop Trail'
p2876
sS'hike1752'
p2877
S'Slavin Pond Trail'
p2878
sS'hike1753'
p2879
S'Bogachiel River and Ira Springs Wetland Loop'
p2880
sS'hike1750'
p2881
S'Lake Union Waterfront Walkway: Northwest Seaport'
p2882
sS'hike1751'
p2883
S'Shellrock Lake Trail'
p2884
sS'hike1758'
p2885
S'Green Giant Buttress: Dreamer and Giant Tears Route'
p2886
sS'hike470'
p2887
S'Sourdough Gap (past Sheep Lake)'
p2888
sS'hike1267'
p2889
S'Dry Creek Trail'
p2890
sS'hike127'
p2891
S'Mount Saint Helens via Worm Flows Trail'
p2892
sS'hike126'
p2893
S'Lena Lake Trail to Upper Lena Lake Trail'
p2894
sS'hike125'
p2895
S'Madison Falls Trail'
p2896
sS'hike893'
p2897
S'Abercrombie Mountain'
p2898
sS'hike656'
p2899
S'Guye Peak Trail'
p2900
sS'hike123'
p2901
S'Eightmile Lake Trail'
p2902
sS'hike1264'
p2903
S'Beaver Lake Trail'
p2904
sS'hike122'
p2905
S'The Wonderland Trail'
p2906
sS'hike121'
p2907
S'Red Town and Cave Hole Trail Loop '
p2908
sS'hike120'
p2909
S'Lighthouse Point via Bowman Bay/Rosario Beach Trail'
p2910
sS'hike813'
p2911
S'Burroughs Mountain Loop Via Glacier Basin'
p2912
sS'hike812'
p2913
S"Poulsbo's Fish Park Trail"
p2914
sS'hike811'
p2915
S'Heather Park via Lake Angeles Trail'
p2916
sS'hike810'
p2917
S'Four Stream Trail'
p2918
sS'hike817'
p2919
S'Indian, Shy Bear and Quarry Loop'
p2920
sS'hike816'
p2921
S'Willapa Hills Trail'
p2922
sS'hike815'
p2923
S'Notch Pass Trail'
p2924
sS'hike814'
p2925
S'Monte Cristo Trail to Silver Lake Trail'
p2926
sS'hike819'
p2927
S'Island Lake Trail'
p2928
sS'hike818'
p2929
S'PSE Powerline Trail'
p2930
sS'hike2188'
p2931
S'Skagit River: Copper Creek to Rockport'
p2932
sS'hike2189'
p2933
S'Dakota Dog Park Loop'
p2934
sS'hike2186'
p2935
S'Table Mountain Ski Tour'
p2936
sS'hike2187'
p2937
S'Devils Gulch Loop'
p2938
sS'hike2184'
p2939
S'Sentinel Mountain'
p2940
sS'hike2185'
p2941
S'Bridge Creek Trail'
p2942
sS'hike2182'
p2943
S'Scout Patrol Peak'
p2944
sS'hike2183'
p2945
S"Martin's Access Trail"
p2946
sS'hike2180'
p2947
S'Magnet Creek Trail'
p2948
sS'hike2181'
p2949
S'Lake Boren Loop'
p2950
sS'hike259'
p2951
S'Surprise Creek Trail to Surprise and Glacier Lakes '
p2952
sS'hike258'
p2953
S'Tubal Cain Trail'
p2954
sS'hike558'
p2955
S'Grand Pass Trail'
p2956
sS'hike251'
p2957
S'Lake Dorothy Trail'
p2958
sS'hike250'
p2959
S'Echo Peak Loop Trail'
p2960
sS'hike253'
p2961
S'Ptarmigan Ridge Trail'
p2962
sS'hike252'
p2963
S'Soos Creek Trail'
p2964
sS'hike255'
p2965
S'June Lake Trail'
p2966
sS'hike254'
p2967
S'Kelly Butte Trail #1031'
p2968
sS'hike257'
p2969
S'Lovers Lane Trail'
p2970
sS'hike256'
p2971
S'PJ Lake Trail'
p2972
sS'hike554'
p2973
S'Marymoor Park Trail'
p2974
sS'hike2454'
p2975
S'Flow State, Raging Ridge, No Service, Return Policy, Upward Mobility Loop'
p2976
sS'hike2455'
p2977
S'Desert 100 OHV Loop'
p2978
sS'hike2456'
p2979
S'Peterson Lake Trail'
p2980
sS'hike2457'
p2981
S'Trail 29: Placid Lake to PCT'
p2982
sS'hike2450'
p2983
S'Puffer Butte'
p2984
sS'hike2451'
p2985
S'Upper Dungeness Trail to Heather Creek Trail'
p2986
sS'hike2452'
p2987
S'Ridge Loop to Weazel Run '
p2988
sS'hike2453'
p2989
S'Bridge Creek Trail to North Fork, Grizzly Creek'
p2990
sS'hike927'
p2991
S'Denny Creek Road to Franklin Falls Trail 1036'
p2992
sS'hike926'
p2993
S'Rock Creek Escure Ranch Trail'
p2994
sS'hike925'
p2995
S'Trout Lake via West Fork Foss Lakes Trail'
p2996
sS'hike924'
p2997
S'McKay Marsh Trail'
p2998
sS'hike2458'
p2999
S'Golden Tiger Pathway'
p3000
sS'hike2459'
p3001
S'Shedroof Mountain Trail'
p3002
sS'hike921'
p3003
S'Clay Pit Trail'
p3004
sS'hike920'
p3005
S'Tuscohatchie Lake Trail'
p3006
sS'hike1244'
p3007
S'Surprise Lake Trail'
p3008
sS'hike1245'
p3009
S'Indian Racetrack Trail to Red Mountain Lookout'
p3010
sS'hike1246'
p3011
S"Marshall's Hill Trail"
p3012
sS'hike1247'
p3013
S'Lake Sundown Trail'
p3014
sS'hike1240'
p3015
S'Vista Loop via Entry Road'
p3016
sS'hike1241'
p3017
S'Chehalis River Sloughs Trail'
p3018
sS'hike1242'
p3019
S'Cattle Point - San Juan Island'
p3020
sS'hike1243'
p3021
S'Beach House, Stump House, Big Maple, and Plateau Loop'
p3022
sS'hike1248'
p3023
S'Cutthroat Lake via the PCT'
p3024
sS'hike1249'
p3025
S'Howard Amon Park'
p3026
sS'hike1262'
p3027
S'Wonderland Trail: Mowich Lake Campground to Ipsut Creek Campground'
p3028
sS'hike309'
p3029
S'Talus Loop Trail'
p3030
sS'hike2539'
p3031
S'Walker, Spilt Rock, and Bald Mountain OHV Loop'
p3032
sS'hike2538'
p3033
S'Mount Clifty and Quartz Mountain OHV Loop'
p3034
sS'hike2537'
p3035
S'Nooksack River North Fork OHV Trail'
p3036
sS'hike2536'
p3037
S'North Fork and Nooksack OHV Trail'
p3038
sS'hike2535'
p3039
S'Saint Martins Mineral Hot Springs [PRIVATE PROPERTY]'
p3040
sS'hike2534'
p3041
S'Imus Creek Trail'
p3042
sS'hike2533'
p3043
S'Gravel Pit via Prairie Road'
p3044
sS'hike2532'
p3045
S'Shoestring And Upper Kaner Westbound OHV Trail'
p3046
sS'hike2531'
p3047
S'Manastash OHV Loop'
p3048
sS'hike2530'
p3049
S'Samish Bay Mainline to Oldcamp Loop'
p3050
sS'hike49'
p3051
S'Spray Park Trail'
p3052
sS'hike48'
p3053
S'Lower Lena Lake Trail'
p3054
sS'hike47'
p3055
S'Burroughs Mountain Loop Trail '
p3056
sS'hike46'
p3057
S'Cape Horn Loop Trail'
p3058
sS'hike45'
p3059
S'Melakwa Lake via Denny Creek Trail'
p3060
sS'hike44'
p3061
S'Mount Saint Helens Summit via Ptarmigan Trail'
p3062
sS'hike43'
p3063
S'Camp Muir Route Via Skyline Trail'
p3064
sS'hike42'
p3065
S'Comet and Christine Falls'
p3066
sS'hike41'
p3067
S'Liberty Lake Loop Trail'
p3068
sS'hike40'
p3069
S'Marymere Falls Trail'
p3070
sS'hike912'
p3071
S'Bogachiel River Trail'
p3072
sS'hike913'
p3073
S'Alaska Lake via Gold Creek Trail'
p3074
sS'hike101'
p3075
S'Enchanted Valley Chalet via East Fork Quinault River Trail'
p3076
sS'hike100'
p3077
S'Spruce Railroad Trail: Lake Crescent'
p3078
sS'hike103'
p3079
S'Squak Mountain Road Southeast to May Valley Loop Trail '
p3080
sS'hike102'
p3081
S'Silver Falls Trail'
p3082
sS'hike105'
p3083
S'Lake Washinton Watertower, South Ridge, Beach and North Trail Loop'
p3084
sS'hike104'
p3085
S'Teneriffe Falls and Mount Teneriffe Loop'
p3086
sS'hike107'
p3087
S'Narada Falls Trail'
p3088
sS'hike106'
p3089
S'Lower Falls Creek Trail '
p3090
sS'hike109'
p3091
S'Whittaker Wilderness Peak Trail'
p3092
sS'hike108'
p3093
S'Green Lake Loop Trail'
p3094
sS'hike975'
p3095
S'Bob Bammert Grove Trail'
p3096
sS'hike2623'
p3097
S'Little Naches River and Mount Clifty OHV Trail'
p3098
sS'hike2622'
p3099
S'John Wayne Pioneer Trail'
p3100
sS'hike2621'
p3101
S'Warm Beach Trail [PRIVATE PROPERTY]'
p3102
sS'hike2620'
p3103
S'Tahuya River Trail, Mission Creek, and Long Marsh OHV Loop'
p3104
sS'hike2627'
p3105
S'Taneum Frost Mountain OHV Loop'
p3106
sS'hike2626'
p3107
S'Frye Cove County Park Loop'
p3108
sS'hike2625'
p3109
S'Greek Creek OHV Loop'
p3110
sS'hike2624'
p3111
S'Mount Clifty OHV Trail'
p3112
sS'hike2629'
p3113
S'Little Bald Mountain Trail'
p3114
sS'hike2628'
p3115
S'Three Corner Rock Trail [CLOSED]'
p3116
sS'hike918'
p3117
S'Ohanapecosh Hot Springs Trail'
p3118
sS'hike919'
p3119
S'High Point Trail'
p3120
sS'hike1354'
p3121
S'Twisp Pass Trail'
p3122
sS'hike749'
p3123
S'Eldorado Peak East Ridge Trail'
p3124
sS'hike748'
p3125
S'High Divide and Seven Lakes Basin'
p3126
sS'hike743'
p3127
S'Puyallup Riverwalk Trail'
p3128
sS'hike742'
p3129
S'McLane School Forest Trail'
p3130
sS'hike741'
p3131
S'Rosario Head Trail'
p3132
sS'hike740'
p3133
S'Windy Ridge and Plains of Abraham Loop '
p3134
sS'hike747'
p3135
S'Cooper River Trail'
p3136
sS'hike746'
p3137
S'Cape Flattery Tribal Scenic Byway'
p3138
sS'hike745'
p3139
S'Lewis and Clark Discovery Greenway Trail'
p3140
sS'hike744'
p3141
S'Independence Lake Trail'
p3142
sS'hike2302'
p3143
S'Marine Loop Trail'
p3144
sS'hike2303'
p3145
S'Goose Prairie Trail'
p3146
sS'hike1275'
p3147
S'Frater Lake Trail'
p3148
sS'hike1274'
p3149
S'Round the Mountain Trail'
p3150
sS'hike1277'
p3151
S'Narbeck Sanctuary Perimeter Trail'
p3152
sS'hike1276'
p3153
S'Union Creek Trail'
p3154
sS'hike2308'
p3155
S'Grandy Lake and Logging Road Trail'
p3156
sS'hike2309'
p3157
S'Blackhorse Lake Boardwalk'
p3158
sS'hike1538'
p3159
S'Rabbit Trail to Echo Point to Three Lakes Trail Loop'
p3160
sS'hike1539'
p3161
S'Phelps Creek Trail to Lyman Lake'
p3162
sS'hike1273'
p3163
S'Lemei Trail to Lemei Rock'
p3164
sS'hike1532'
p3165
S'Schriebers Meadow via Park Butte Trail 603'
p3166
sS'hike1533'
p3167
S'Sumas Mountain, P-1000, and P-1200 OHV Trail'
p3168
sS'hike1530'
p3169
S'Wright Park'
p3170
sS'hike1531'
p3171
S'Rainbow Canyon Trail'
p3172
sS'hike1536'
p3173
S'Rainier View Trail'
p3174
sS'hike1537'
p3175
S'Bear Ridge Trail'
p3176
sS'hike1534'
p3177
S'Grist Mill Loop'
p3178
sS'hike1535'
p3179
S'Snoqualmie Point Park'
p3180
sS'hike1408'
p3181
S'Slide Lake Trail'
p3182
sS'hike1409'
p3183
S'Heart Lake Loop'
p3184
sS'hike1406'
p3185
S'Lava Canyon Trail [CLOSED]'
p3186
sS'hike1407'
p3187
S'Mount Baldy via Domerie Divide Trail'
p3188
sS'hike1404'
p3189
S'Old Mine Trail'
p3190
sS'hike1405'
p3191
S'CCC Trail'
p3192
sS'hike1402'
p3193
S'Talus Bridge Trail'
p3194
sS'hike1403'
p3195
S'Columbia Mountain  (Kettle Crest North)'
p3196
sS'hike1400'
p3197
S'East Tiger: Silent Swamp Trail'
p3198
sS'hike1401'
p3199
S'Mesatchee Creek Trail'
p3200
sS'hike821'
p3201
S'Mount Finlayson Trail'
p3202
sS'hike1749'
p3203
S'Kopachuck Nature Loop'
p3204
sS'hike1748'
p3205
S'Bloedel Reserve Loop'
p3206
sS'hike1741'
p3207
S'South Point Trail'
p3208
sS'hike1740'
p3209
S'Dalles Campground Trail'
p3210
sS'hike1743'
p3211
S'Canyon Creek and Mink Lake Loop Trail'
p3212
sS'hike1742'
p3213
S'Esmeralda Basin Trail'
p3214
sS'hike1745'
p3215
S'Beach Trail'
p3216
sS'hike1744'
p3217
S'Chain Lakes and Bulls Tooth Loop Trail'
p3218
sS'hike1747'
p3219
S'Smith Creek Butte Trail'
p3220
sS'hike1746'
p3221
S"Nature Trail, Little Mountain and Lower Surfer's Way"
p3222
sS'hike827'
p3223
S'Tunnel Creek Trail'
p3224
sS'hike977'
p3225
S'Rainbow Lake via Pratt Lake Trail'
p3226
sS'hike800'
p3227
S'Three Peaks Loop'
p3228
sS'hike801'
p3229
S'Olympic Hot Springs, Appleton Pass, and Sol Duc Loop Trail'
p3230
sS'hike802'
p3231
S'Damon Point State Park Trail'
p3232
sS'hike803'
p3233
S'Bennington Lake Trail'
p3234
sS'hike804'
p3235
S'Swamp, Ruths Kees Big Tree and Bus Trail Loop'
p3236
sS'hike805'
p3237
S'Ring Hill Forest Trail System'
p3238
sS'hike806'
p3239
S'Dash Point State Park Loop via Beach Trail'
p3240
sS'hike807'
p3241
S'Sugarloaf Mountain Trail'
p3242
sS'hike808'
p3243
S'Yakima Rim Trail '
p3244
sS'hike809'
p3245
S'Coal Creek to Primrose Trail'
p3246
sS'hike2191'
p3247
S'Olympus Trail to Heritage Trail and Waterline Trail '
p3248
sS'hike2190'
p3249
S"Tuffy's Trail"
p3250
sS'hike2193'
p3251
S'Rattlesnake Trail 1114'
p3252
sS'hike2192'
p3253
S'Hurricane Ridge Loop From Port Angeles'
p3254
sS'hike2195'
p3255
S'Kepple Peninsula Interpretive Trail'
p3256
sS'hike2194'
p3257
S'Ruby Creek Trail'
p3258
sS'hike2197'
p3259
S'Lily Point Loop'
p3260
sS'hike2196'
p3261
S'Purple Creek Trail'
p3262
sS'hike2199'
p3263
S'Blue Lake Trail # 604'
p3264
sS'hike2198'
p3265
S'Chewuch River Trail to Four Point Lake'
p3266
sS'hike2447'
p3267
S'Gunsight Pass'
p3268
sS'hike2446'
p3269
S'Deer Fern to Rhodie Hill to Old Loop Road to Fire Loop'
p3270
sS'hike2445'
p3271
S'John Wayne Pioneer Trail: Warden to Plummer'
p3272
sS'hike2444'
p3273
S'Sweetgrass Butte via Goat Creek OHV Road'
p3274
sS'hike938'
p3275
S'Camano Island State Park Trail'
p3276
sS'hike939'
p3277
S'Deschutes Falls'
p3278
sS'hike2441'
p3279
S'Upward Mobility, Poppin Top, Flow State Loop'
p3280
sS'hike2440'
p3281
S'Westcrest Park North Loop'
p3282
sS'hike934'
p3283
S'Hurricane Hill Nature Trail to Little River Trail'
p3284
sS'hike935'
p3285
S'Mount Persis West Ridge Trail'
p3286
sS'hike936'
p3287
S'Emerald Ridge Trail'
p3288
sS'hike937'
p3289
S'Bumping Lake Trail'
p3290
sS'hike930'
p3291
S'Olympic Resource Trails'
p3292
sS'hike931'
p3293
S'Ski Hill Trail'
p3294
sS'hike932'
p3295
S'Arboretum Waterfront Trail'
p3296
sS'hike2448'
p3297
S'Marco Polo Lake Trail'
p3298
sS'hike1257'
p3299
S'Grouse Vista, Indian Pits, Silver Star Mountain, Eds Trail, Sturgeon Trail, Tarbel Trail'
p3300
sS'hike1256'
p3301
S"Saint George's Trail to Little Spokane River"
p3302
sS'hike1255'
p3303
S'Porpoise Point Trail'
p3304
sS'hike1254'
p3305
S'Trapper Creek and Observation Peak Loop '
p3306
sS'hike1253'
p3307
S'Sullivan Lake'
p3308
sS'hike1252'
p3309
S"Cave Hole, Fred's Railroad, Quarry, Indian and Red Town Loop"
p3310
sS'hike1251'
p3311
S'Mount Spokane July-Oct Hike'
p3312
sS'hike1250'
p3313
S'Dog Mountain Inner Loop'
p3314
sS'hike1259'
p3315
S'Holmberg Conservation Area Loop'
p3316
sS'hike1258'
p3317
S'Ridley Creek Trail'
p3318
sS'hike2502'
p3319
S'Lake Washington Road Bike Loop'
p3320
sS'hike2503'
p3321
S'Lone Fir Trail Loop'
p3322
sS'hike2500'
p3323
S'Westcrest Park South Loop'
p3324
sS'hike2501'
p3325
S'Perrigo Park Loop Path'
p3326
sS'hike2506'
p3327
S'Mission Creek and Tahuya River OHV Trail'
p3328
sS'hike2507'
p3329
S'Lyman Hill and Mount Josephine OHV Trail'
p3330
sS'hike2504'
p3331
S'Crow Creek and Little Bald Mountain OHV Loop'
p3332
sS'hike2505'
p3333
S'Goss Lake Loop'
p3334
sS'hike2508'
p3335
S'Vaughn Outer Loop Trail'
p3336
sS'hike2509'
p3337
S' Chamna Trail'
p3338
sS'hike38'
p3339
S'Beacon Rock Trail'
p3340
sS'hike39'
p3341
S'Bridal Veil Falls Trail'
p3342
sS'hike32'
p3343
S'Ape Cave Trail'
p3344
sS'hike33'
p3345
S'Goat Lake Trail'
p3346
sS'hike30'
p3347
S'Little Mashel Falls Trail'
p3348
sS'hike31'
p3349
S'Mason Lake via Ira Spring Memorial Trail'
p3350
sS'hike36'
p3351
S'Big Four Ice Caves Trail'
p3352
sS'hike37'
p3353
S'Hoh Rain Forest Hall of Moss'
p3354
sS'hike34'
p3355
S'Mount Storm King'
p3356
sS'hike35'
p3357
S'Sol Duc Falls Nature Trail'
p3358
sS'hike246'
p3359
S'Bells Mountain Trail'
p3360
sS'hike247'
p3361
S'Antoine Peak via Emerald Necklace'
p3362
sS'hike244'
p3363
S'Minotaur Lake Trail'
p3364
sS'hike245'
p3365
S'Deception Falls Interpretive Trail'
p3366
sS'hike242'
p3367
S'Heybrook Ridge'
p3368
sS'hike243'
p3369
S'Mount Catherine (#1348)'
p3370
sS'hike240'
p3371
S'Spirit Falls Trail'
p3372
sS'hike241'
p3373
S'Quinault Rain Forest Nature Trail'
p3374
sS'hike248'
p3375
S'Tradition Lake Loop Trail'
p3376
sS'hike249'
p3377
S'Mirror Lake Trail'
p3378
sS'hike118'
p3379
S'Nisqually Estuary Boardwalk and Twin Barns Trail'
p3380
sS'hike119'
p3381
S'Dash Point Trail'
p3382
sS'hike116'
p3383
S'Upper Big Quilcene Trail via Marmot Pass'
p3384
sS'hike117'
p3385
S'Siouxon Trail: Upper Siouxon Trailhead'
p3386
sS'hike114'
p3387
S'Ozette Triangle Trail'
p3388
sS'hike115'
p3389
S'Grove of the Patriarchs Nature Trail'
p3390
sS'hike112'
p3391
S'Tuck and Robin Lakes'
p3392
sS'hike113'
p3393
S'Summer Land Trail'
p3394
sS'hike110'
p3395
S'Beckler Peak '
p3396
sS'hike111'
p3397
S'Mima Falls Trail'
p3398
sS'hike984'
p3399
S'Snake Lake Loop Trail'
p3400
sS'hike2616'
p3401
S'Strobach Mountain and Jump Off Lookout OHV Loop'
p3402
sS'hike2617'
p3403
S'North Leg Saratoga Loop'
p3404
sS'hike2614'
p3405
S'Rimrock Lake OHV Loop'
p3406
sS'hike2615'
p3407
S'Red Mountain OHV Loop'
p3408
sS'hike2612'
p3409
S'Mission Creek to Horse Camp OHV Trail'
p3410
sS'hike2613'
p3411
S'Osborne Mountain and South Park OHV Loop'
p3412
sS'hike2610'
p3413
S'Pioneer Trails [PRIVATE PROPERTY]'
p3414
sS'hike2611'
p3415
S'Gold Creek Trail, Green Mountain, and Wildcat Trail OHV Trail'
p3416
sS'hike2618'
p3417
S'Overland and Mission Creek 4wd Loop '
p3418
sS'hike2619'
p3419
S'Anderson Lake'
p3420
sS'hike1954'
p3421
S'Blythe Lake and Coulee Trail'
p3422
sS'hike2550'
p3423
S'Milk Creek, Manastash Creek, and Quartz Creek OHV Loop'
p3424
sS'hike758'
p3425
S"Hood's Head Trail"
p3426
sS'hike759'
p3427
S'Walker Valley OHV Trail'
p3428
sS'hike1454'
p3429
S'Chanterelle Trail and Wickersham Truck Road Loop'
p3430
sS'hike750'
p3431
S'Tipsoo Lake to American Ridge'
p3432
sS'hike751'
p3433
S'Grand Park Trail'
p3434
sS'hike752'
p3435
S"Enchanted Valley LaCrosse Basin O'Neill Pass Loop Trail"
p3436
sS'hike753'
p3437
S'Little Mashel Falls Trail via Bud Blancher Trail'
p3438
sS'hike754'
p3439
S'West Elwha River Trail'
p3440
sS'hike755'
p3441
S'Whittier Ridge Lakes Trail'
p3442
sS'hike756'
p3443
S'Washington Pass Overlook Trail'
p3444
sS'hike757'
p3445
S'Summit Ridge Loop'
p3446
sS'hike1456'
p3447
S'Cougar Divide'
p3448
sS'hike1451'
p3449
S'Dingford Creek Trail '
p3450
sS'hike1955'
p3451
S'Forbidden Peak Trail'
p3452
sS'hike1450'
p3453
S'Mount Baldy and Thomas Mountain to Silver Creek '
p3454
sS'hike1453'
p3455
S'Lewis & Clark Interpertive Loop'
p3456
sS'hike1452'
p3457
S'Ahtanum Ridge Loop'
p3458
sS'hike2345'
p3459
S'Newcastle Highlands Trail'
p3460
sS'hike1529'
p3461
S'Canyon Crest Trail to Rat Creek Ridge Trail'
p3462
sS'hike1528'
p3463
S'Whistle Punk Trail'
p3464
sS'hike1525'
p3465
S'Bill Chipman Palouse Trail: Pullman to Moscow'
p3466
sS'hike1524'
p3467
S'Wenatchee Confluence Trail'
p3468
sS'hike1527'
p3469
S'Little Giant Pass'
p3470
sS'hike1526'
p3471
S'Blowdown Mountain'
p3472
sS'hike1521'
p3473
S'Chiwaukum Creek Trail'
p3474
sS'hike1520'
p3475
S'Thompson Lake Trail '
p3476
sS'hike1523'
p3477
S'Mill Creek Truck Trail'
p3478
sS'hike1522'
p3479
S'Coal Mine Loop'
p3480
sS'hike1411'
p3481
S'Nooksack Cirque Trail'
p3482
sS'hike1410'
p3483
S'May Valley to Squak Mountain Road Loop '
p3484
sS'hike1413'
p3485
S'Mirror Lake to Pacific Crest Trail '
p3486
sS'hike1412'
p3487
S'Sky Country to Harvey Manning Loop'
p3488
sS'hike1415'
p3489
S'Lake Caroline and Windy Pass'
p3490
sS'hike1414'
p3491
S'Little Summit from Mountain Lake'
p3492
sS'hike1417'
p3493
S'Teneriffe Talus Loop'
p3494
sS'hike1416'
p3495
S'Cougar Mt Squak Mt Connector to Doughty Falls'
p3496
sS'hike1419'
p3497
S'Kettles Recreation Area to Fort Ebey Loop'
p3498
sS'hike1418'
p3499
S'Sultan River Canyon Trail'
p3500
sS'hike970'
p3501
S"Schmitz Park Preserve: Seattle's Forest Past"
p3502
sS'hike1738'
p3503
S'Thirteenmile Hiking Trail'
p3504
sS'hike1739'
p3505
S'West Tiger #3 via Cable Line and Nook Trail Loop'
p3506
sS'hike1734'
p3507
S'Stampede Pass to Tacoma Pass via the PCT'
p3508
sS'hike1735'
p3509
S'Hawk Creek Trail'
p3510
sS'hike1736'
p3511
S'Eagle Lakes Trail'
p3512
sS'hike1737'
p3513
S'Wynoochee Pass Trail'
p3514
sS'hike1730'
p3515
S'Bear Canyon'
p3516
sS'hike1731'
p3517
S'Union Bay Natural Area Loop'
p3518
sS'hike1732'
p3519
S'Coyote Creek to Klondike Swamp Trail'
p3520
sS'hike1733'
p3521
S'Deer Creek Road'
p3522
sS'hike2292'
p3523
S'Seaquest #1, #1A, #8 #2 Loop'
p3524
sS'hike2293'
p3525
S'Muddy Meadows Trail to Rd # 23'
p3526
sS'hike2290'
p3527
S'Ranch Trail'
p3528
sS'hike2291'
p3529
S'Surprise Creek Trail'
p3530
sS'hike2296'
p3531
S'Ephemeral to Big Leaf Trail Loop'
p3532
sS'hike2297'
p3533
S'Gunn Ranch Trail'
p3534
sS'hike2294'
p3535
S'Everett Peak, and Mount Appleton Loop Trail'
p3536
sS'hike2295'
p3537
S'Sand Creek and Devils Gulch OHV Trail '
p3538
sS'hike972'
p3539
S'Hazel Wolf Wetlands Trail'
p3540
sS'hike2298'
p3541
S'Evergreen State College Trail'
p3542
sS'hike2299'
p3543
S'Excelsior Pass to Welcome Pass via High Divide Trail'
p3544
sS'hike2495'
p3545
S'Burton Acres'
p3546
sS'hike2050'
p3547
S'Tanner Trail'
p3548
sS'hike2051'
p3549
S'Copper Butte Trail'
p3550
sS'hike2052'
p3551
S'Newcastle Golf Course Trail'
p3552
sS'hike2053'
p3553
S'Thorp Lake via Thorp Creek Trail'
p3554
sS'hike2054'
p3555
S'Cedar Downs Park'
p3556
sS'hike2055'
p3557
S'Maynard Burn Way (historical)'
p3558
sS'hike2056'
p3559
S'Kulshan Trail'
p3560
sS'hike2057'
p3561
S'Ship Canal to Westlake Cycle Track'
p3562
sS'hike2058'
p3563
S'Marmot Lake Trail via Tucquala Meadows'
p3564
sS'hike2059'
p3565
S'Green Mountain from Deer Park Campground'
p3566
sS'hike1088'
p3567
S'James T. Slavin Conservation Area Loop'
p3568
sS'hike1089'
p3569
S'Boundary West Trail'
p3570
sS'hike1640'
p3571
S'Thunder Creek, Fourth of July, and Panther Creek Trail'
p3572
sS'hike1641'
p3573
S'Naches Trail'
p3574
sS'hike1642'
p3575
S'Spencer Spit Trail'
p3576
sS'hike1643'
p3577
S'Mount Spokane'
p3578
sS'hike1644'
p3579
S'Bagley Seam Trail'
p3580
sS'hike1645'
p3581
S'Stafford Creek / Standup Creek Loop'
p3582
sS'hike1646'
p3583
S'Pine Lake'
p3584
sS'hike1647'
p3585
S'Mount Spokane from Hairpin Turn Parking Trailhead'
p3586
sS'hike1648'
p3587
S'Bayview and Mimzie Trail '
p3588
sS'hike1649'
p3589
S'Traditinal Lake to Wetlands Trail Loop'
p3590
sS'hike974'
p3591
S'Sand Point Trail'
p3592
sS'hike1290'
p3593
S'Heather Creek Trail'
p3594
sS'hike839'
p3595
S'Baker River Trail'
p3596
sS'hike838'
p3597
S'North Beach Trail'
p3598
sS'hike835'
p3599
S'Moss Lake Trail'
p3600
sS'hike834'
p3601
S'Fourth of July Pass via Panther Creek Trail'
p3602
sS'hike837'
p3603
S'McCormick Forest Park Loop'
p3604
sS'hike836'
p3605
S'Beaver Lake Hike Trail'
p3606
sS'hike831'
p3607
S'Hester Lake Trail'
p3608
sS'hike830'
p3609
S'Kelsey Creek Farm'
p3610
sS'hike833'
p3611
S'Pine Bluff Loop'
p3612
sS'hike832'
p3613
S'Cross Kirkland Corridor'
p3614
sS'hike1396'
p3615
S'Ginkgo Petrified Forest Interpretive Trail'
p3616
sS'hike1397'
p3617
S'Yodelin Ski Tour'
p3618
sS'hike1394'
p3619
S'Ben Burr Trail'
p3620
sS'hike1395'
p3621
S'Beach, Fern Alley and Outbound Loop'
p3622
sS'hike1392'
p3623
S'Tiffany Mountain Trail'
p3624
sS'hike1393'
p3625
S'Geneva Pond Loop'
p3626
sS'hike1390'
p3627
S'Skagit Tulip Fields'
p3628
sS'hike1391'
p3629
S'Skagit River Trail'
p3630
sS'hike1398'
p3631
S'Maddox Creek Trail'
p3632
sS'hike1399'
p3633
S'Selah Butte Trail'
p3634
sS'hike2478'
p3635
S'Beckler River OHV Trail'
p3636
sS'hike2479'
p3637
S'Mount Josephine High Landing OHV Trail'
p3638
sS'hike2472'
p3639
S'Cultus Mountain West OHV Trail'
p3640
sS'hike2473'
p3641
S'Leroy Haagen Memorial Park Loop'
p3642
sS'hike2470'
p3643
S'Reiter Hills OHV Loop'
p3644
sS'hike2471'
p3645
S'Little Hoquiam River Trail'
p3646
sS'hike2476'
p3647
S'National Forest Development Road 100'
p3648
sS'hike2477'
p3649
S'Fortune Creek OHV Trail'
p3650
sS'hike2474'
p3651
S'Found Lake Trail '
p3652
sS'hike2475'
p3653
S'Red Mountain and Canyon Creek OHV Trail'
p3654
sS'hike2278'
p3655
S'Rock Hill Loop'
p3656
sS'hike2279'
p3657
S'Finley Canyon Loop'
p3658
sS'hike1268'
p3659
S'Marymoor Connector Trail'
p3660
sS'hike1269'
p3661
S'Lynndale Park Woods Trail'
p3662
sS'hike901'
p3663
S'West Tiger Mountain Loop'
p3664
sS'hike900'
p3665
S'Myrtle Edwards Park to Elliott Bay Park'
p3666
sS'hike903'
p3667
S'Picnic Point Park'
p3668
sS'hike902'
p3669
S'Young Hill Trail'
p3670
sS'hike905'
p3671
S'Clayton Beach Trail'
p3672
sS'hike904'
p3673
S'Glacier Lake Trail'
p3674
sS'hike907'
p3675
S'Larch Mountain MTB Trail'
p3676
sS'hike906'
p3677
S'Icicle Creek Trail'
p3678
sS'hike1068'
p3679
S'Maple Glade Nature Trail'
p3680
sS'hike1069'
p3681
S'Poo Poo Point, West Tiger and TMT Loop'
p3682
sS'hike1060'
p3683
S'Indian Heaven Lakes Trail'
p3684
sS'hike1061'
p3685
S'North Cascades Scenic Byway'
p3686
sS'hike1062'
p3687
S'Buck Creek Trail'
p3688
sS'hike1063'
p3689
S'Box Canyon Trail'
p3690
sS'hike1064'
p3691
S'Gorge Creek Falls Trail'
p3692
sS'hike1065'
p3693
S'Kautz Creek Trail to Mirror Lakes'
p3694
sS'hike1066'
p3695
S'Washougal River Greenway Trail'
p3696
sS'hike1067'
p3697
S'Amabilis Mountain Trail'
p3698
sS'hike349'
p3699
S'Cirque Rim Nature Trail'
p3700
sS'hike348'
p3701
S'Rimrock Conservation Area Palisades Park Loop Trail'
p3702
sS'hike347'
p3703
S'Cutthroat Lakes Via Walt Baily Trail'
p3704
sS'hike346'
p3705
S'Sourdough Ridge Nature Trail'
p3706
sS'hike345'
p3707
S'Big Gulch Trail'
p3708
sS'hike344'
p3709
S'Lila Lake Trail'
p3710
sS'hike343'
p3711
S'Deception Pass Bridge and Beach Trail'
p3712
sS'hike342'
p3713
S'Badger Mountain Trail'
p3714
sS'hike341'
p3715
S'Boardman Lake Trail'
p3716
sS'hike340'
p3717
S'Mercer Slough Nature Park'
p3718
sS'hike2515'
p3719
S'Coyote, Lying Squirrel and Spider Webb '
p3720
sS'hike2514'
p3721
S'Columbia River III - Canada to Northport'
p3722
sS'hike2517'
p3723
S'Lost Lake, Sqebeqsed Trail, Andrews Bay Trail, Woodpecker Trail'
p3724
sS'hike2516'
p3725
S'Huckleberry Hill and Pump House Loop'
p3726
sS'hike2511'
p3727
S'Evergreen Woods And Steel OHV Loop'
p3728
sS'hike2510'
p3729
S'Benton City Walking Path'
p3730
sS'hike2513'
p3731
S'Mount Margaret OHV Trail'
p3732
sS'hike2512'
p3733
S'The Trail of Wild Fell, Rocky Road and Moss Valley'
p3734
sS'hike2519'
p3735
S'Lookout Mountain OHV Loop'
p3736
sS'hike2518'
p3737
S'Tahuya and Rock Garden OHV Loop'
p3738
sS'hike29'
p3739
S'Snoqualmie Falls Trail'
p3740
sS'hike28'
p3741
S'Hidden Lake Lookout Trail'
p3742
sS'hike21'
p3743
S'Blanca Lake Trail'
p3744
sS'hike20'
p3745
S'Dog Mountain Trail'
p3746
sS'hike23'
p3747
S'Discovery Park and Lighthouse Loop Trail'
p3748
sS'hike22'
p3749
S'The Enchantments Trail'
p3750
sS'hike25'
p3751
S'Maple Pass Trail'
p3752
sS'hike24'
p3753
S'Oyster Dome Trail'
p3754
sS'hike27'
p3755
S'Granite Mountain Trail'
p3756
sS'hike26'
p3757
S'Mailbox Peak (New) Trail'
p3758
sS'hike233'
p3759
S'Carbon Glacier Trail'
p3760
sS'hike232'
p3761
S'Tumwater Falls Trail'
p3762
sS'hike231'
p3763
S'Siouxon Trail: Siouxon Trailhead'
p3764
sS'hike230'
p3765
S'Far Country Lookout and Longview Peak Cougar Mountain Loop Trail'
p3766
sS'hike237'
p3767
S'Wonderland Trail to Panhandle Gap'
p3768
sS'hike236'
p3769
S'Hardy Falls and Pool of the Winds Falls via Hamilton Mountain Trail'
p3770
sS'hike235'
p3771
S'The Quillayute Needles Second Beach Trail'
p3772
sS'hike234'
p3773
S'Glacier View Trail (#267)'
p3774
sS'hike570'
p3775
S'Hannegan Peak Trail'
p3776
sS'hike239'
p3777
S'Hummocks Trail'
p3778
sS'hike238'
p3779
S'Rachel Lake Trail'
p3780
sS'hike571'
p3781
S'Bagley Creek Loop Trail'
p3782
sS'hike699'
p3783
S'Snoquera Falls'
p3784
sS'hike698'
p3785
S'Mica Peak'
p3786
sS'hike169'
p3787
S'Dishman Hills Natural Area Trail'
p3788
sS'hike168'
p3789
S'Sourdough Mountain Trail'
p3790
sS'hike691'
p3791
S'The Labyrinth to Coyote Wall Loop'
p3792
sS'hike690'
p3793
S'Mount Baker Highway to Artist Point'
p3794
sS'hike161'
p3795
S'Packwood Lake Trail'
p3796
sS'hike160'
p3797
S'Nook Trail to West Tiger Three Trail'
p3798
sS'hike167'
p3799
S'Thunder Knob Trail'
p3800
sS'hike166'
p3801
S'Putvin Trail to Lake of the Angels'
p3802
sS'hike697'
p3803
S'Patterson Mountain Trail'
p3804
sS'hike696'
p3805
S'South Beach Trail'
p3806
sS'hike2609'
p3807
S'Glacier View to Lake Helen'
p3808
sS'hike2608'
p3809
S'Osborne Mountain and South Park OHV Trail'
p3810
sS'hike2601'
p3811
S'Chamna, Red Tail and River Trail Loop'
p3812
sS'hike2600'
p3813
S'Pit Loop Trail'
p3814
sS'hike2603'
p3815
S'Shedroof Divide Trail #512 from Pass Creek to Helmer Mountain'
p3816
sS'hike2602'
p3817
S'Hurricane Ridge to Heart of the Hills via Heather Park Trail'
p3818
sS'hike2605'
p3819
S'Boulder Cave and Edgar Rock OHV Loop'
p3820
sS'hike2604'
p3821
S'Thorp Mountain via Kachess Ridge Trail'
p3822
sS'hike2607'
p3823
S'Langley via Cascade Ave and Edgecliff Dr'
p3824
sS'hike2606'
p3825
S'Davis and Wildcat OHV Trail '
p3826
sS'hike578'
p3827
S'Peabody Creek Trail'
p3828
sS'hike579'
p3829
S'Wapato Lake Trail'
p3830
sS'hike589'
p3831
S'Silver Peak via Cold Creek and Pacific Crest Trail'
p3832
sS'hike588'
p3833
S'Middle Tiger Trail'
p3834
sS'hike585'
p3835
S'O. O. Denny County Park Loop Trail'
p3836
sS'hike584'
p3837
S'North Creek Trail'
p3838
sS'hike587'
p3839
S'Gold Mine Trail'
p3840
sS'hike586'
p3841
S'Tonga Ridge and Mount Sawyer'
p3842
sS'hike581'
p3843
S'Deer Ridge Trail'
p3844
sS'hike580'
p3845
S'Back of Pinnacle Peak'
p3846
sS'hike583'
p3847
S'Steamboat Rock Trail'
p3848
sS'hike582'
p3849
S'Striped Peak Trail'
p3850
sS'hike765'
p3851
S'Cape Disappointment to Breakers Trail'
p3852
sS'hike764'
p3853
S'Oyster Dome Loop'
p3854
sS'hike767'
p3855
S'High Pass Trail'
p3856
sS'hike766'
p3857
S'Mt. Spokane State Park'
p3858
sS'hike761'
p3859
S'East Fork of the Lewis River Trail: Hantwick Road Trailhead'
p3860
sS'hike760'
p3861
S'Scott Paul Trail Loop'
p3862
sS'hike763'
p3863
S'Iverson Railroad and Northwest Timber Trails'
p3864
sS'hike762'
p3865
S'Manastash Lake Trail'
p3866
sS'hike769'
p3867
S'Lacamas Lake Heritage Trail'
p3868
sS'hike768'
p3869
S'South Bay Trail'
p3870
sS'hike567'
p3871
S'Lake Lenore Caves'
p3872
sS'hike566'
p3873
S'Skyline, Glacier Vista, Upper Skyline and Golden Gate Loop'
p3874
sS'hike1888'
p3875
S'Burke Gilman Trail: Lavilla to Bothell'
p3876
sS'hike1889'
p3877
S'Alaska Mountain and Central Alpine Lakes Trail'
p3878
sS'hike563'
p3879
S'Mount McCausland Trail'
p3880
sS'hike562'
p3881
S"Alta Mountain South Ridge Climber's Trail"
p3882
sS'hike561'
p3883
S'Elwha River Trail'
p3884
sS'hike560'
p3885
S'Crawford Oaks Trailhead'
p3886
sS'hike1882'
p3887
S'Weather Beach Trail'
p3888
sS'hike1883'
p3889
S'McAlester Lake Trail'
p3890
sS'hike1880'
p3891
S'Fern Lake Trail'
p3892
sS'hike1881'
p3893
S'Wapaloosie Trail'
p3894
sS'hike1886'
p3895
S'Mount Cleman via Waterworks Canyon Trail'
p3896
sS'hike1887'
p3897
S'30 Acre Lake Trail'
p3898
sS'hike1884'
p3899
S'Forbes Valley Trail'
p3900
sS'hike1885'
p3901
S'Lake Augusta Trail'
p3902
sS'hike1455'
p3903
S'Pacific Crest Trail: Chinook Pass to White Pass'
p3904
sS'hike1296'
p3905
S'Florence Peak Trail'
p3906
sS'hike2443'
p3907
S'Chief Timothy State Park Island Loop Trail'
p3908
sS'hike2442'
p3909
S'East Creek Trail to Mabee Pass and Horse Heaven Camp'
p3910
sS'hike1464'
p3911
S'Pine Lakes Loop Trail'
p3912
sS'hike1465'
p3913
S'Shinglemill Creek'
p3914
sS'hike1466'
p3915
S'River to Rock Trail'
p3916
sS'hike1467'
p3917
S'Miller Peak Trail '
p3918
sS'hike1460'
p3919
S'Beach Loop '
p3920
sS'hike1461'
p3921
S'Old Mount Si Trail to Teneriffe Trail to Kamikaze Trail Loop'
p3922
sS'hike1462'
p3923
S'Bell Point Loop Trail'
p3924
sS'hike1463'
p3925
S'Alta Lake Trail'
p3926
sS'hike1468'
p3927
S'White Bluffs South Slope Trail'
p3928
sS'hike1469'
p3929
S'Teneriffe to Talus to Mount Si to Lower Teneriffe Connector Loop'
p3930
sS'hike2449'
p3931
S'Bucoda to Fort Borst Boat Launch'
p3932
sS'hike1729'
p3933
S'Oldgrowth Loop Trail'
p3934
sS'hike1728'
p3935
S'Queets River Trail'
p3936
sS'hike1727'
p3937
S'Truman Trail'
p3938
sS'hike1726'
p3939
S'Deer Creek Falls to Owyhigh Lakes Trail'
p3940
sS'hike1725'
p3941
S'West Access and Chybinski Loop '
p3942
sS'hike933'
p3943
S'Wilderness Cliffs Trail via Squak Mountain Connector Trail'
p3944
sS'hike1723'
p3945
S'Elk Ridge and Carey Creek'
p3946
sS'hike1722'
p3947
S'Ross Lake East Bank Trail'
p3948
sS'hike1721'
p3949
S'Duwamish Trail'
p3950
sS'hike1720'
p3951
S'Coyote Creek Trail'
p3952
sS'hike2285'
p3953
S'Snoqualmie, Deer Lake, Bear Lake and Dorothy Lake via Taylor River Trail'
p3954
sS'hike2284'
p3955
S'Crowell Ridge Trail #515'
p3956
sS'hike2287'
p3957
S'Alpine Lookout via Merritt Lake Trail to Nason Ridge Trail'
p3958
sS'hike2286'
p3959
S'Roche Harbor Lake Loop'
p3960
sS'hike2281'
p3961
S'National Forest Development Road 3075'
p3962
sS'hike2280'
p3963
S'Mission Peak Loop'
p3964
sS'hike2283'
p3965
S'Lower River Run and Jacks Loop '
p3966
sS'hike2282'
p3967
S'Larch and Rock Candy Peaks'
p3968
sS'hike2289'
p3969
S'Big Tree Ridge Trail, Surprise Creek Trail, Shangri La Trail, and Military Ridge Trail Loop'
p3970
sS'hike2288'
p3971
S'North Lake Trail'
p3972
sS'hike2043'
p3973
S'Little Mountain, West Loop and Huff-N-Puff'
p3974
sS'hike2042'
p3975
S'Keechelus Ridge'
p3976
sS'hike2041'
p3977
S'Trail 25 to Trail 100'
p3978
sS'hike2040'
p3979
S'Lake Pondilla Loop'
p3980
sS'hike2047'
p3981
S"Granny's, Sacred Ridge, Farm and Upper Loop Trail"
p3982
sS'hike1090'
p3983
S'Whistle Lake from Mount Erie'
p3984
sS'hike2045'
p3985
S'Ring Road Trail'
p3986
sS'hike2044'
p3987
S'Domerie Peak Trail'
p3988
sS'hike2049'
p3989
S'Goose Lake Campground'
p3990
sS'hike2048'
p3991
S'Big Cedar Trail to Flying Eagle Trail Loop'
p3992
sS'hike1099'
p3993
S'Everett: Spencer Island'
p3994
sS'hike1098'
p3995
S'Obstruction Point Road'
p3996
sS'hike1653'
p3997
S'Glacier Vista via Avalanche Lily, DeadHorse Creek and Skyline Trail '
p3998
sS'hike1652'
p3999
S'Royal Basin - Royal Lake'
p4000
sS'hike1651'
p4001
S'Marsh Interpretive Trail'
p4002
sS'hike1650'
p4003
S'Kiwa Trail'
p4004
sS'hike1657'
p4005
S'Fragrance Lake Two Dollar Trail Loop'
p4006
sS'hike1656'
p4007
S'River Loop to Sandifur Bridge'
p4008
sS'hike1655'
p4009
S'Beacon Hill Extended Loop via Esmeralda Trail'
p4010
sS'hike1654'
p4011
S'Government Meadow to Arch Rock'
p4012
sS'hike1659'
p4013
S'Press Expedition Traverse'
p4014
sS'hike1658'
p4015
S'Tree Frog Loop Trail'
p4016
sS'hike2319'
p4017
S'Howson Creek Trail'
p4018
sS'hike525'
p4019
S'Hansen Ridge Trail #1020 (Little Saint Helens)'
p4020
sS'hike1389'
p4021
S'McLellan Conservation Area'
p4022
sS'hike1388'
p4023
S'Swakane Wildlife Area'
p4024
sS'hike828'
p4025
S'Juniper Peak Summit Trail'
p4026
sS'hike829'
p4027
S'Carkeek Park via Pipers Creek Trail'
p4028
sS'hike1381'
p4029
S'Green River Trail'
p4030
sS'hike1380'
p4031
S'North Beach Park to Glass Beach'
p4032
sS'hike1383'
p4033
S'Sulphur Mountain Trail'
p4034
sS'hike1382'
p4035
S'Northern State Recreation Area Loop'
p4036
sS'hike1385'
p4037
S'Raven and Coyote Trail Loop'
p4038
sS'hike1384'
p4039
S'Hidden Lake Spur Via Palisades Lake Trail'
p4040
sS'hike1387'
p4041
S'Sherman Peak Loop Trail'
p4042
sS'hike1386'
p4043
S'Chetwoot Lake Trail via West Fork Foss Lakes Trail'
p4044
sS'hike524'
p4045
S'Juan De Fuca Marine Trail to Mystic Beach Outlook'
p4046
sS'hike967'
p4047
S'Lacamas Heritage Trail via Camas Heritage Park'
p4048
sS'hike916'
p4049
S'North Head Trail'
p4050
sS'hike917'
p4051
S'PCT: WA Section L - Rainy Pass to Manning Park, BC'
p4052
sS'hike914'
p4053
S'Kachess Ridge Trail'
p4054
sS'hike915'
p4055
S'Point Wilson Trail'
p4056
sS'hike2469'
p4057
S'Tres Hombres'
p4058
sS'hike2468'
p4059
S'Russell Ridge and Rimrock Lake OHV Loop'
p4060
sS'hike910'
p4061
S'Lakemont Trail'
p4062
sS'hike911'
p4063
S'Day Mountain and Mount Kit Carson Trail'
p4064
sS'hike2465'
p4065
S'Larch Mountain, Capitol Peak, and Waddell Creek Loop'
p4066
sS'hike2464'
p4067
S'Waddell Basin West Loop'
p4068
sS'hike2467'
p4069
S'Clearcut Boulders'
p4070
sS'hike2466'
p4071
S'Belfair Staging to Tahuya River Trail OHV Loop'
p4072
sS'hike2461'
p4073
S'Finney Creek and Iron Mountain OHV Trail'
p4074
sS'hike2460'
p4075
S"Upper and Lower Surfer's Way Loop"
p4076
sS'hike2463'
p4077
S'Canyon Rest Trail to Boundary Butte'
p4078
sS'hike2462'
p4079
S'Cedar Flats'
p4080
sS'hike2269'
p4081
S'Burch Mountain Trail'
p4082
sS'hike2268'
p4083
S"Dirty Harry's Trail [CLOSED]"
p4084
sS'hike1279'
p4085
S'Mount Higgins'
p4086
sS'hike1278'
p4087
S'Redondo Beach Boardwalk'
p4088
sS'hike2263'
p4089
S'Olympic Traverse: North Fork to Hoh'
p4090
sS'hike2262'
p4091
S'Grouse Ridge Trail'
p4092
sS'hike2261'
p4093
S'Odessa Craters Trail'
p4094
sS'hike2260'
p4095
S'Skagit Riverwalk'
p4096
sS'hike2267'
p4097
S'Fire Trail'
p4098
sS'hike2266'
p4099
S'Mount Kit Carson Loop Road, Trail 140 and Trail 110 Loop'
p4100
sS'hike2265'
p4101
S'188th and Fir Hill Trail Loop'
p4102
sS'hike2264'
p4103
S'Butte Creek Sitka Spruce Grove Trail'
p4104
sS'hike1079'
p4105
S'Evans Creek Preserve from Sahalee Way'
p4106
sS'hike1078'
p4107
S'Mount Si Loop'
p4108
sS'hike1073'
p4109
S'Shy Bear Trail'
p4110
sS'hike1072'
p4111
S'Hoodoo Canyon Trail'
p4112
sS'hike1071'
p4113
S'Necklace Valley and Tank Lakes'
p4114
sS'hike1070'
p4115
S'Tahuya Lookout OHV Loop '
p4116
sS'hike1077'
p4117
S'Iron Horse Trail: Washington Creek'
p4118
sS'hike1076'
p4119
S'Monte Cristo Trail to Gothic Basin Trail to Del Campo Peakh'
p4120
sS'hike1075'
p4121
S'Horseshoe Basin Via Boundary Trail'
p4122
sS'hike1074'
p4123
S'Lookout Mountain Trail'
p4124
sS'hike358'
p4125
S'Lost Valley Trail and McKenny Trail Loop'
p4126
sS'hike359'
p4127
S'Ashland Lakes Trail'
p4128
sS'hike354'
p4129
S"Pete's Creek Trail to Colonel Bob Peak Trail"
p4130
sS'hike355'
p4131
S"Putrid Pete's Peak Trail"
p4132
sS'hike356'
p4133
S'South Coldwater Trail to Lakes Trail Loop'
p4134
sS'hike357'
p4135
S'Weeks Falls Interpretive Trail'
p4136
sS'hike350'
p4137
S'Index Town Wall Trail'
p4138
sS'hike351'
p4139
S'Blackbird Island Trail'
p4140
sS'hike352'
p4141
S'Lookout Mountain Forest Preserve'
p4142
sS'hike353'
p4143
S'Talapus Lake Trail'
p4144
sS'hike14'
p4145
S'Mailbox Peak Trail Loop'
p4146
sS'hike15'
p4147
S'Hurricane Hill via Hurricane Ridge'
p4148
sS'hike16'
p4149
S'Annette Lake Trail '
p4150
sS'hike17'
p4151
S'Mount Ellinor Trail '
p4152
sS'hike10'
p4153
S'Heather Lake Trail'
p4154
sS'hike11'
p4155
S'Colchuck Lake Trail'
p4156
sS'hike12'
p4157
S'Mount Pilchuck Trail'
p4158
sS'hike13'
p4159
S'Franklin Falls Trail 1036'
p4160
sS'hike18'
p4161
S'Hamilton Mountain and Rodney Falls Trail'
p4162
sS'hike19'
p4163
S'Skyline Trail'
p4164
sS'hike220'
p4165
S'Pinnacle Peak Loop Trail'
p4166
sS'hike221'
p4167
S'Snow Lakes Trail'
p4168
sS'hike222'
p4169
S'Navaho Peak'
p4170
sS'hike223'
p4171
S'Catherine Creek Trail (021)'
p4172
sS'hike224'
p4173
S'Dog Mountain Long Loop Trail'
p4174
sS'hike225'
p4175
S'Coyote Loop Trail'
p4176
sS'hike226'
p4177
S'Lighthouse Point and Lottie Point via Rosario Head Trail'
p4178
sS'hike227'
p4179
S'Pine and Cedar Lakes Trail'
p4180
sS'hike228'
p4181
S'Sugarloaf Mountain and Mount Erie Loop Trail'
p4182
sS'hike229'
p4183
S'Lower Big Quilcene to Notch Pass Trail Junction'
p4184
sS'hike178'
p4185
S'Reflection Lake to Narada Falls'
p4186
sS'hike179'
p4187
S'Pratt Lake Trail'
p4188
sS'hike170'
p4189
S'Quinault Loop Trail'
p4190
sS'hike171'
p4191
S'Swan Creek Trail'
p4192
sS'hike172'
p4193
S'Vesper Peak Trail'
p4194
sS'hike173'
p4195
S'Gem Lake via Snow Lake and High Lakes Trail'
p4196
sS'hike174'
p4197
S'Snoquera Falls Loop Trail'
p4198
sS'hike175'
p4199
S'Dungeness Spit Trail'
p4200
sS'hike176'
p4201
S'Upper Big Creek Loop Trail'
p4202
sS'hike177'
p4203
S'Dickerson Falls'
p4204
sS'hike598'
p4205
S'Johnson Ridge Trail'
p4206
sS'hike599'
p4207
S'Tahoma Creek Suspension Bridge'
p4208
sS'hike592'
p4209
S'Burke-Gilman Trail: West Lake Washington'
p4210
sS'hike593'
p4211
S'Historic Columbia River Gorge Highway'
p4212
sS'hike590'
p4213
S'Horsethief Butte Trail'
p4214
sS'hike591'
p4215
S'Langus River Front Trail'
p4216
sS'hike596'
p4217
S'Glacier Vista Loop via Skyline Trail'
p4218
sS'hike597'
p4219
S'Twin Sisters Rock'
p4220
sS'hike594'
p4221
S'Mount Rainier Northern Loop Trail'
p4222
sS'hike595'
p4223
S'Rock Candy Mountain Trail'
p4224
sS'hike772'
p4225
S'Lummi Peak Trail'
p4226
sS'hike773'
p4227
S'Lost Lake Trail'
p4228
sS'hike770'
p4229
S'Lake Hills Lake to Lake Trail'
p4230
sS'hike771'
p4231
S'Gold Creek Trail to Joe Lake'
p4232
sS'hike776'
p4233
S'Tamanous Trail to PCT & Gillette Lake'
p4234
sS'hike777'
p4235
S'Salsbury Point Trail'
p4236
sS'hike774'
p4237
S'Port Gamble and Poulsbo'
p4238
sS'hike775'
p4239
S'Coal Mines Trail'
p4240
sS'hike778'
p4241
S'Woodland Plateau Trail to Lloyd Trail Loop'
p4242
sS'hike779'
p4243
S'Teanaway Ridge Trail (#1364)'
p4244
sS'hike574'
p4245
S"Devil's Spur"
p4246
sS'hike575'
p4247
S'Mowich Lake to Mystic Lake Trail'
p4248
sS'hike576'
p4249
S'Goat Peak'
p4250
sS'hike577'
p4251
S'Coal Creek Falls Trail'
p4252
sS'hike1899'
p4253
S'Olympic Discovery Trail Adventure Route (OAT)'
p4254
sS'hike1898'
p4255
S'Baldy Trail (historical) Via Gray Wolf Trail'
p4256
sS'hike572'
p4257
S'Johnston Ridge Observatory Walk'
p4258
sS'hike573'
p4259
S'John Wayne Pioneer Trail: North Bend to Lake Easton'
p4260
sS'hike1895'
p4261
S"Antoine's Summit Trail"
p4262
sS'hike1894'
p4263
S'Terrace Creek Park'
p4264
sS'hike1897'
p4265
S'Ranger to The Hood to E.T. Loop'
p4266
sS'hike1896'
p4267
S'Flett Glacier Summer Ski Tour'
p4268
sS'hike1891'
p4269
S'Fisher Pond'
p4270
sS'hike1890'
p4271
S'Huckleberry Creek Trail'
p4272
sS'hike1893'
p4273
S'Elk Creek Conservation Trail'
p4274
sS'hike1892'
p4275
S'Paradise Point State Park Loop'
p4276
sS'hike686'
p4277
S'Badger Skyline Trail'
p4278
sS'hike687'
p4279
S'Seahurst Park Loop Trail'
p4280
sS'hike684'
p4281
S'Red Town Trail'
p4282
sS'hike685'
p4283
S'Sol Duc Falls Nature Trail to Appleton Pass Trail'
p4284
sS'hike682'
p4285
S'Cutthroat Lake Trail'
p4286
sS'hike683'
p4287
S'Discovery Historic Loop'
p4288
sS'hike680'
p4289
S'Grand Lake via Badger Valley Trail'
p4290
sS'hike681'
p4291
S'Pass Lake Loop Trail to Ginnet Trail Loop'
p4292
sS'hike985'
p4293
S'Pratt Lake Trail to Melakwa Lake Trail to Loop'
p4294
sS'hike688'
p4295
S'Turtle Rock and Bedrock Ridge Loop'
p4296
sS'hike689'
p4297
S'Mildred Lakes Trail'
p4298
sS'hike2086'
p4299
S'Sword Fern and Highline Trail'
p4300
sS'hike989'
p4301
S'Green Mountain via Gold Creek and Wildcat Trails'
p4302
sS'hike324'
p4303
S'Clear Creek Trail'
p4304
sS'hike1432'
p4305
S'Crystal Mountain Loop Trail'
p4306
sS'hike2080'
p4307
S'Twin Bridges Trail '
p4308
sS'hike1828'
p4309
S'Chico Trail and South Loop'
p4310
sS'hike1829'
p4311
S'Mount Shuksan Sulphide Glacier'
p4312
sS'hike1477'
p4313
S'Rainbow Loop Trail'
p4314
sS'hike1476'
p4315
S'Lake Lois Habitat Reserve'
p4316
sS'hike1475'
p4317
S'Spirit Lake Memorial Highway to Mount St. Helens'
p4318
sS'hike1474'
p4319
S'Freund Canyon Trail'
p4320
sS'hike1473'
p4321
S'Sandy Beach Trail'
p4322
sS'hike1472'
p4323
S'Hibox Mountain Via Rachel Lake Trail'
p4324
sS'hike1471'
p4325
S'Garfield Ravine Trail'
p4326
sS'hike1470'
p4327
S'Kopachuck State Park Trail'
p4328
sS'hike1479'
p4329
S'The Outback'
p4330
sS'hike1478'
p4331
S'Fort Ebey Loop'
p4332
sS'hike1820'
p4333
S'Westport Lighthouse Trail'
p4334
sS'hike1821'
p4335
S'Possession Point State Park Loop'
p4336
sS'hike1712'
p4337
S'Lookout Loop'
p4338
sS'hike1713'
p4339
S'Burton Acres Loop'
p4340
sS'hike1710'
p4341
S'High School Trail to Chirico Trail Loop'
p4342
sS'hike1711'
p4343
S'Mount Baker via Easton Glacier'
p4344
sS'hike1716'
p4345
S'Edgar Rock from Lost Creek Road'
p4346
sS'hike1717'
p4347
S'Lake Susan Jane and Josephine Lake Trail'
p4348
sS'hike1714'
p4349
S'Sulphur Creek Trail'
p4350
sS'hike1715'
p4351
S'Wedding Rocks Trail'
p4352
sS'hike1718'
p4353
S'Marten Creek Trail'
p4354
sS'hike1719'
p4355
S'Whispering Firs, Cascara, Mainline and Lloyd Trail Detour Loop'
p4356
sS'hike2076'
p4357
S'Howard Lake via PCT'
p4358
sS'hike2077'
p4359
S'High Divide Trail and Cat Basin Primitive Trail to Swimming Bear Lakeway Trail'
p4360
sS'hike2074'
p4361
S'Tiger Middle Summit'
p4362
sS'hike2075'
p4363
S'Squilchuck Trail'
p4364
sS'hike2072'
p4365
S'Tahoma One Drop Monasteries'
p4366
sS'hike2073'
p4367
S'Methow Valley Community Trail'
p4368
sS'hike2070'
p4369
S'Leech Lake to Tacoma Pass'
p4370
sS'hike2071'
p4371
S'Trail 25'
p4372
sS'hike555'
p4373
S'Shadow Lakes Trail'
p4374
sS'hike2078'
p4375
S'Tribulation to Revival to Exodus Loop'
p4376
sS'hike2079'
p4377
S'Mission Peak Via Marion Lake'
p4378
sS'hike1666'
p4379
S'Tomyhoi Lake Trail'
p4380
sS'hike1667'
p4381
S'49 Degrees North Mountain Ski Resort'
p4382
sS'hike1664'
p4383
S'Chikamin Peak: South Slope'
p4384
sS'hike1665'
p4385
S'Anderson Butte Trail'
p4386
sS'hike1095'
p4387
S'North Fork Quinault Trail'
p4388
sS'hike1663'
p4389
S'Umatilla Rock Hike'
p4390
sS'hike1660'
p4391
S'Welcome Pass, Excelsior Peak, and Damfino Lakes from Forest Service Road 3060 via High Divide Trail'
p4392
sS'hike1661'
p4393
S'Sun Mountain via Sunnyside Trail'
p4394
sS'hike1668'
p4395
S'Old Butte via Jacobson Trail'
p4396
sS'hike1669'
p4397
S'Tracy Hill Loop'
p4398
sS'hike2388'
p4399
S'Skull, Pipeline, Valley, Director and Bayview Trail Loop '
p4400
sS'hike2389'
p4401
S'Goat Rocks Traverse'
p4402
sS'hike2384'
p4403
S'Loon Lake Mountain'
p4404
sS'hike2385'
p4405
S'Naches and Greenwater OHV Trail'
p4406
sS'hike2386'
p4407
S'Mount Jupiter Trail [CLOSED]'
p4408
sS'hike2387'
p4409
S'Lizard Bat Loop'
p4410
sS'hike2380'
p4411
S'East Fork Satsop River Loop'
p4412
sS'hike2381'
p4413
S'American Ridge Trail'
p4414
sS'hike2382'
p4415
S'Mirabeau Point Loop'
p4416
sS'hike2383'
p4417
S'Tonga Ridge OHV Trail'
p4418
sS'hike1759'
p4419
S'Foggy Dew Creek, Merchants Basin, and Sunrise Lake Loop Trail '
p4420
sS'hike2339'
p4421
S'Naches Peak Ski Tour'
p4422
sS'hike1096'
p4423
S'Interurban Trail and Fragrance Lake'
p4424
sS'hike2338'
p4425
S'Goat Wall Loop'
p4426
sS'hike963'
p4427
S'Useless Bay Tidelands'
p4428
sS'hike962'
p4429
S'Silver Forest Trail'
p4430
sS'hike2492'
p4431
S'Racehorse Ridge OHV Trail'
p4432
sS'hike960'
p4433
S'Weatherwax Trail'
p4434
sS'hike2494'
p4435
S'Gilbert Mountain Trail'
p4436
sS'hike966'
p4437
S'Kachess Beacon Trail'
p4438
sS'hike965'
p4439
S'Hangman Park Loop'
p4440
sS'hike2497'
p4441
S'Little Creek to Old Timber to Bobcat Run Loop'
p4442
sS'hike2498'
p4443
S'Brannian Creek Trestle Loop'
p4444
sS'hike2499'
p4445
S"South Connector, Down South and Taylor's Trail"
p4446
sS'hike969'
p4447
S'Dog Lake to Cramer Lake Trail'
p4448
sS'hike968'
p4449
S'Happy Panther Trail'
p4450
sS'hike1280'
p4451
S'Watmough Bay Trail'
p4452
sS'hike1281'
p4453
S'Chambers Creek Trail'
p4454
sS'hike1282'
p4455
S'Centennial Trail West'
p4456
sS'hike1283'
p4457
S'Mount Shuksan via the Fischer Chimneys Approach'
p4458
sS'hike1284'
p4459
S'Waterworks Canyon Trail'
p4460
sS'hike1285'
p4461
S'Iron Peak Trail #1399'
p4462
sS'hike1286'
p4463
S'Ridell Lake'
p4464
sS'hike1287'
p4465
S'Big Tree Ridge Trail: Short Version'
p4466
sS'hike1288'
p4467
S'Trout Lake and Copper Lake via West Fork Foss Lakes Trail'
p4468
sS'hike1289'
p4469
S'Dalles Falls Trail'
p4470
sS'hike2254'
p4471
S'Silent Creek Trail and Deep Creek Trail'
p4472
sS'hike2255'
p4473
S'Pompey Peak via Forest Road #2304'
p4474
sS'hike2252'
p4475
S'Old School to Jackleg to Mainline Loop'
p4476
sS'hike2253'
p4477
S'Beach Walk and Frog Pond Trail'
p4478
sS'hike2250'
p4479
S'Sentinel Mountain OHV Loop'
p4480
sS'hike2251'
p4481
S'Mount Baldy Ski Tour'
p4482
sS'hike2333'
p4483
S'Adventure and High School Trail Loop'
p4484
sS'hike1048'
p4485
S'Winslow Pool'
p4486
sS'hike1049'
p4487
S'Azalea Way'
p4488
sS'hike1046'
p4489
S'Jefferson Ridge Trail # 808'
p4490
sS'hike1047'
p4491
S'Asahel Curtis Nature Trail'
p4492
sS'hike1044'
p4493
S'Riverside State Park: Military Cemetery/Equestrian Area Loop '
p4494
sS'hike2332'
p4495
S'West Duwamish Greenbelt and Douglas Fir Spur Trail'
p4496
sS'hike1042'
p4497
S'Teeley Creek Trail #251 to Bertha May Lake'
p4498
sS'hike1043'
p4499
S'Interurban Trail'
p4500
sS'hike1040'
p4501
S'Barnes Creek Trail'
p4502
sS'hike1041'
p4503
S'Northwest Trek Wildlife Park Loop'
p4504
sS'hike369'
p4505
S'Squires Lake Trail'
p4506
sS'hike368'
p4507
S'Lake Whatcom Trail'
p4508
sS'hike361'
p4509
S'John Wayne Pioneer Trail (Snoqualmie Tunnel)'
p4510
sS'hike360'
p4511
S'Knothead Valley Loop'
p4512
sS'hike363'
p4513
S'Rocky Brook Falls'
p4514
sS'hike362'
p4515
S'Humpback Mountain Trail'
p4516
sS'hike365'
p4517
S'Umtanum Ridge Crest Trail'
p4518
sS'hike364'
p4519
S'Lake Fenwick'
p4520
sS'hike367'
p4521
S'Covel Creek Falls and Angel Falls Trail'
p4522
sS'hike366'
p4523
S'Old Pipeline Bed Trail'
p4524
sS'hike2272'
p4525
S'Trustland Trails'
p4526
sS'hike219'
p4527
S'Lake Valhalla Trail'
p4528
sS'hike218'
p4529
S'Teneriffe Falls via Mount Teneriffe Trail'
p4530
sS'hike215'
p4531
S"Stan's Overlook"
p4532
sS'hike214'
p4533
S'Ape Canyon Trail'
p4534
sS'hike217'
p4535
S'Crystal Lakes Trail to Sourdough Gap'
p4536
sS'hike216'
p4537
S'The Washington Park Arboretum'
p4538
sS'hike211'
p4539
S'Explorer Falls Trail'
p4540
sS'hike210'
p4541
S'Ira Spring Memorial Trail'
p4542
sS'hike213'
p4543
S'Burroughs Mountain Trail'
p4544
sS'hike212'
p4545
S'Mount Rainier Standard Summit Route'
p4546
sS'hike2274'
p4547
S'Wildhorse Creek Trail #1592'
p4548
sS'hike789'
p4549
S'Licorice Fern to Far Country Falls'
p4550
sS'hike788'
p4551
S'Mount Teneriffe via Mount Teneriffe Trailhead'
p4552
sS'hike787'
p4553
S'Wright Mountain'
p4554
sS'hike786'
p4555
S'Victoria, Armstrong, & Pilchuck Trails'
p4556
sS'hike785'
p4557
S'Trillium Trail and Pipeline Regional Trail'
p4558
sS'hike784'
p4559
S'Loowit Falls from Johnston Ridge Observatory'
p4560
sS'hike783'
p4561
S'Stegosaurus Butte Trail'
p4562
sS'hike782'
p4563
S'Burnt Bridge Creek Trail'
p4564
sS'hike781'
p4565
S'Milton Interurban Trail'
p4566
sS'hike780'
p4567
S'Rock Trail to Lost Lake Loop'
p4568
sS'hike1860'
p4569
S'Bells Mountain Trail to Cedar Creek'
p4570
sS'hike1861'
p4571
S'Rugged Ridge Trail'
p4572
sS'hike1862'
p4573
S'Rattlesnake Slope Trail'
p4574
sS'hike1863'
p4575
S'Sehome Hill Lookout Tower Loop'
p4576
sS'hike1864'
p4577
S'Badger Mountain CSS Loop'
p4578
sS'hike1865'
p4579
S'Lower Maynard Burn Way Trail'
p4580
sS'hike1866'
p4581
S'Washougal Waterfront Loop'
p4582
sS'hike1867'
p4583
S'Fallen Leaf Lake'
p4584
sS'hike1868'
p4585
S'Domke Lake Trail'
p4586
sS'hike1869'
p4587
S'Lighthouse Keepers Trail'
p4588
sS'hike540'
p4589
S'Owen Beach Trail'
p4590
sS'hike145'
p4591
S'Ancient Lakes Trail'
p4592
sS'hike144'
p4593
S'Soundview and Grandview Trail Loop'
p4594
sS'hike147'
p4595
S'Rattlesnake Mountain Trail to East Peak'
p4596
sS'hike146'
p4597
S'Nisqually Vista Trail'
p4598
sS'hike141'
p4599
S'Panther Creek Falls Trail 137'
p4600
sS'hike140'
p4601
S'Mount Rose Trail'
p4602
sS'hike143'
p4603
S'Hole-in-the-Wall Trail'
p4604
sS'hike142'
p4605
S'Green Lake Trail'
p4606
sS'hike543'
p4607
S'Spider Gap - Buck Creek Pass Loop'
p4608
sS'hike148'
p4609
S'Snowgrass Flats and Goat Lake Loop Trail'
p4610
sS'hike545'
p4611
S'Salmon-Morgan Creeks Trail'
p4612
sS'hike1918'
p4613
S'Snolqualmie Valley Trail'
p4614
sS'hike1919'
p4615
S'Pioneer Path Nature Trail'
p4616
sS'hike1448'
p4617
S'Woods Creek Watchable Wildlife Trail'
p4618
sS'hike1449'
p4619
S'Middle Trail and Beaver Ponds Trail Loop '
p4620
sS'hike544'
p4621
S'Turtleback Mountain South Trail '
p4622
sS'hike1910'
p4623
S'Rattlesnake Hill'
p4624
sS'hike1911'
p4625
S'Sunrise Nature Trail'
p4626
sS'hike1912'
p4627
S'Bear Creek Trail'
p4628
sS'hike1913'
p4629
S'Wetland to Big Loop to North Loop'
p4630
sS'hike1914'
p4631
S'Klemgard County Park Loop'
p4632
sS'hike1915'
p4633
S'Nimbus Knob, Goldback and Pond Loop Trail'
p4634
sS'hike1916'
p4635
S'Hidden Cove Trail #4'
p4636
sS'hike1917'
p4637
S'Dusty and Ancient Lakes via Gorge Oasis '
p4638
sS'hike1705'
p4639
S'Emmons Moraine Trail'
p4640
sS'hike1704'
p4641
S'Independence Pass Interpretive Trail'
p4642
sS'hike546'
p4643
S'Wonderland Trail Ipsut Creek Loop to Ipsut Pass and Mowich Lake'
p4644
sS'hike1706'
p4645
S'Guemes Channel Trail'
p4646
sS'hike1701'
p4647
S'Dry Gulch Loop'
p4648
sS'hike1700'
p4649
S'Muir Snowfield Ski Tour'
p4650
sS'hike1703'
p4651
S'Terrace Trail'
p4652
sS'hike1702'
p4653
S'Three Forks Trail'
p4654
sS'hike1058'
p4655
S'Hoypus Point Trail'
p4656
sS'hike1709'
p4657
S'The Yurt Trail'
p4658
sS'hike1708'
p4659
S'La Rush and Bear Lakes Trail'
p4660
sS'hike2069'
p4661
S'Wobbly Lake Trail'
p4662
sS'hike2068'
p4663
S'Lundin Peak View and Red Mountain via Old Commonwealth Trail'
p4664
sS'hike2349'
p4665
S'Salt Creek Trail'
p4666
sS'hike2061'
p4667
S'Pear Lake via Top Lake Trail'
p4668
sS'hike2060'
p4669
S'Orchard Loop to Grotto Trail'
p4670
sS'hike2063'
p4671
S'Northwest Timber Trail to Preston Railroad Grade and East Tiger Summit to Main Tiger Mountain Road'
p4672
sS'hike2062'
p4673
S'China Creek Trail'
p4674
sS'hike2065'
p4675
S'Badger Valley Trail to Grand Pass Trail Loop'
p4676
sS'hike2064'
p4677
S'Corral Pass Campground to Hidden Lake'
p4678
sS'hike2067'
p4679
S'Lewis & Clark Trail State Park Nature Loop'
p4680
sS'hike2066'
p4681
S'Lewis River East Fork from Daybreak Park'
p4682
sS'hike1679'
p4683
S'Coyote Trail'
p4684
sS'hike1678'
p4685
S'Elk Lake via Thomas Lake Trail'
p4686
sS'hike1671'
p4687
S'Lake Dorothy, Bear Lake, and Deer Lake'
p4688
sS'hike1670'
p4689
S'Taylor Mountain Loop'
p4690
sS'hike1673'
p4691
S'Cape Disappointment North Head Trail'
p4692
sS'hike1672'
p4693
S'Hamlin Park Loop'
p4694
sS'hike1675'
p4695
S'Whidbey Island Cliffside Trail'
p4696
sS'hike1674'
p4697
S'Spine Line, Ravine Run, Boundary Trails Loop'
p4698
sS'hike1677'
p4699
S'White Chuck Mountain Trail'
p4700
sS'hike1676'
p4701
S'Klickitat Rail Trail'
p4702
sS'hike2399'
p4703
S'Trail 212 and 25 Loop'
p4704
sS'hike2398'
p4705
S'Camelot Spur and Cook Ferry Trail'
p4706
sS'hike2397'
p4707
S'Lake Sylvia Loop'
p4708
sS'hike2396'
p4709
S'Tiger Mountain Trail: Through Hike'
p4710
sS'hike2395'
p4711
S'Tinkham OHV Trail'
p4712
sS'hike2394'
p4713
S'Balfour-Klickitat Loop'
p4714
sS'hike2393'
p4715
S'Mount Hyak Loop'
p4716
sS'hike2392'
p4717
S'Mink Lake Trail to Bogachiel River and Slide Peak Route #2'
p4718
sS'hike2391'
p4719
S'Ikeny Lake Trail to Big Creek Trail'
p4720
sS'hike2390'
p4721
S'Raven Roost OHV Trail'
p4722
sS'hike1082'
p4723
S'Elk Mountain Trail Loop'
p4724
sS'hike1338'
p4725
S'Falls Creek and Quinault Loop Trail'
p4726
sS'hike1083'
p4727
S'Rasar State Park Loop'
p4728
sS'hike898'
p4729
S'Carbon River Rain Forest Nature Trail'
p4730
sS'hike2483'
p4731
S'Overland Trail, Tahuya River, and Mission Creek OHV Loop'
p4732
sS'hike2482'
p4733
S'Smuggler Poker Run'
p4734
sS'hike2481'
p4735
S'Oroville Grind'
p4736
sS'hike2480'
p4737
S'High Lakes Trail to Chain of Lakes Campground'
p4738
sS'hike2487'
p4739
S'Whiskey Dick OHV Loop'
p4740
sS'hike2486'
p4741
S'Fortune Creek and Gallagher Head Lake OHV Trail'
p4742
sS'hike2485'
p4743
S'Rosario Hill '
p4744
sS'hike2484'
p4745
S'Remanns Cabin to Dodger Point Lookout'
p4746
sS'hike978'
p4747
S'Rock Mountain Trail'
p4748
sS'hike1662'
p4749
S'Koppen Mountain Trail'
p4750
sS'hike2489'
p4751
S"Liberty, Lion's Gulch, and Billy Goat OHV Trail"
p4752
sS'hike2488'
p4753
S'Walker Valley 22 and BR-1604 OHV Trail'
p4754
sS'hike1332'
p4755
S'Dwights Way Trail'
p4756
sS'hike2241'
p4757
S'Vashon Beach Walk'
p4758
sS'hike2240'
p4759
S'Langille Ridge Trail'
p4760
sS'hike2243'
p4761
S'Cascade Lake Lagoon'
p4762
sS'hike2242'
p4763
S'Lightning and Duff Springs via South Side Trail'
p4764
sS'hike2245'
p4765
S'Nine Mile Dam Overlook via Centennial Trail'
p4766
sS'hike2244'
p4767
S"Grandma's Cove"
p4768
sS'hike2247'
p4769
S'Bird Mountain Trail'
p4770
sS'hike2246'
p4771
S'Marcus Peak Trail'
p4772
sS'hike2249'
p4773
S'Vance Creek Bridge [PRIVATE PROPERTY]'
p4774
sS'hike2248'
p4775
S'Canal Lake'
p4776
sS'hike1299'
p4777
S'Lower Elkspur and Beaver Creek Loop'
p4778
sS'hike1298'
p4779
S'Burnt Mountain and Ironestone Mountain Trail'
p4780
sS'hike1081'
p4781
S'Fire and Ice Trail'
p4782
sS'hike1956'
p4783
S'Cook Hill Loop'
p4784
sS'hike1335'
p4785
S'Kamiak Butte Primative Trail'
p4786
sS'hike1051'
p4787
S'Snoquera Falls and Moss Lake Loop Trail'
p4788
sS'hike1050'
p4789
S'Upper Maynard Burn Way Trail'
p4790
sS'hike1053'
p4791
S'Birds Nest and Lookout Beach'
p4792
sS'hike1957'
p4793
S'Tower Mountain Forest Loop via Iller Creek Trailhead'
p4794
sS'hike1055'
p4795
S'Primrose Trail via Coal Creek Trail'
p4796
sS'hike1054'
p4797
S'Lost Lake and Ridge Trail Loop'
p4798
sS'hike1057'
p4799
S'Wildwood Park Loop'
p4800
sS'hike1056'
p4801
S'Baring Mountain Trail'
p4802
sS'hike1059'
p4803
S'Big Rock Trail'
p4804
sS'hike1950'
p4805
S'Hoh River and Jackson Creek Trail'
p4806
sS'hike1337'
p4807
S'Beach 1 Nature Trail'
p4808
sS'hike1951'
p4809
S'Dodger Point via Long Ridge Trail'
p4810
sS'hike2277'
p4811
S'May Creek, De Leo, and China Creek Loop'
p4812
sS'hike1952'
p4813
S'Old Loop and Rhodie Trail'
p4814
sS'hike1953'
p4815
S'Moses Coulee Trail'
p4816
sS'hike1087'
p4817
S'Railroad Trail'
p4818
sS'hike208'
p4819
S'Lake Ann'
p4820
sS'hike209'
p4821
S'Otter and Big Creek Falls Via Taylor River Trail'
p4822
sS'hike202'
p4823
S'Sky Country (Cougar Mountain) Trail'
p4824
sS'hike203'
p4825
S'Watershed Park Trail'
p4826
sS'hike200'
p4827
S'Sunrise Rim Trail'
p4828
sS'hike201'
p4829
S'Black Diamond Coal Mine Trail'
p4830
sS'hike206'
p4831
S'Shangrila, Anti-Aircraft Ridge Loop Trail'
p4832
sS'hike207'
p4833
S'Anderson and Watson Lakes Trail'
p4834
sS'hike204'
p4835
S'Royal Basin Trail'
p4836
sS'hike205'
p4837
S"Sawmill, Margaret's, Beach House, and Stump House Loop"
p4838
sS'hike414'
p4839
S'Palisades Lakes Trail'
p4840
sS'hike2652'
p4841
S'Tower Mountain from South Corkery Road [PRIVATE PROPERTY]'
p4842
sS'hike2653'
p4843
S'Waterside Path  [CLOSED]'
p4844
sS'hike2650'
p4845
S'Summit Lake and Grace Lakes Trail [CLOSED]'
p4846
sS'hike2651'
p4847
S'Oxbow Trail [CLOSED]'
p4848
sS'hike2656'
p4849
S'Bright Angel Trail to Bright Angel Campground and River Trail'
p4850
sS'hike2657'
p4851
S'Half Dome Trail'
p4852
sS'hike2654'
p4853
S"Diamond Head (Le'ahi) Summit Trail"
p4854
sS'hike2655'
p4855
S'Manoa Falls Trail '
p4856
sS'hike2658'
p4857
S'Mission Peak Loop from Stanford Avenue Staging Area'
p4858
sS'hike2659'
p4859
S'Rubicon Trail'
p4860
sS'hike1835'
p4861
S'I-90 Trail to the Lake to Lake Trail'
p4862
sS'hike2525'
p4863
S'Highlands Sno-Park Area Trails'
p4864
sS'hike377'
p4865
S'Big Heart Lake via West Fork Foss Lakes Trail'
p4866
sS'hike374'
p4867
S'Duckabush River Trail to Five Mile Camp'
p4868
sS'hike375'
p4869
S'Olympic National Park Switchback Trail'
p4870
sS'hike372'
p4871
S'Margaret Lake Trail'
p4872
sS'hike373'
p4873
S'Lincoln Park Trail'
p4874
sS'hike370'
p4875
S'Sahale Arm Trail to Quien Sabe Glacier'
p4876
sS'hike371'
p4877
S'Soaring Eagle Park Trail'
p4878
sS'hike378'
p4879
S'Alta Vista Trail'
p4880
sS'hike379'
p4881
S'Pyramid Mountain Trail'
p4882
sS'hike798'
p4883
S'Beaver Falls'
p4884
sS'hike799'
p4885
S'Soda Peaks Lake Trail'
p4886
sS'hike794'
p4887
S'Evergreen Trail'
p4888
sS'hike795'
p4889
S'Walt Bailey Trail'
p4890
sS'hike796'
p4891
S'Capitol Peak OHV Trail'
p4892
sS'hike797'
p4893
S'Mount Adams: South Spur and Mazama Glacier'
p4894
sS'hike790'
p4895
S'Mountain Home Ridge'
p4896
sS'hike791'
p4897
S'Chelan Lakeshore Trail'
p4898
sS'hike792'
p4899
S'Talapus Lake Trail to Mason Lake'
p4900
sS'hike793'
p4901
S'Slab Camp Trail'
p4902
sS'hike1873'
p4903
S'Nestor Peak Trail'
p4904
sS'hike2524'
p4905
S'Green Mountain Trail [PRIVATE PROPERTY]'
p4906
sS'hike1871'
p4907
S'Lost Pass Primitive Trail'
p4908
sS'hike1870'
p4909
S'Boot, Knee Knocker, and Sherwood Loop'
p4910
sS'hike1877'
p4911
S'Olympic National Park Foothills Trail'
p4912
sS'hike1876'
p4913
S'Skyline Ridge Trail'
p4914
sS'hike1875'
p4915
S'Myrtle Lake via Entiat River and Cow Creek Trail'
p4916
sS'hike1874'
p4917
S'Alaska Lake via Gold Creek Trail '
p4918
sS'hike556'
p4919
S'Wagonwheel Lake Trail'
p4920
sS'hike557'
p4921
S'Meet Cutter to River Trail Loop'
p4922
sS'hike1879'
p4923
S'Mount Madron'
p4924
sS'hike1878'
p4925
S'Rainbow Town and Red Town Loop Trail'
p4926
sS'hike552'
p4927
S'Norse Peak Trail'
p4928
sS'hike392'
p4929
S'Cowiche Canyon Uplands'
p4930
sS'hike550'
p4931
S'Frozen Lake'
p4932
sS'hike551'
p4933
S'Magnuson Park Waterfront Trail'
p4934
sS'hike2527'
p4935
S'Foggy Dew OHV Loop'
p4936
sS'hike2520'
p4937
S'Belfair Howell Lake and Tahuya OHV Loop'
p4938
sS'hike2521'
p4939
S'Taneum and Manastash Ridge Trail OHV Loop'
p4940
sS'hike152'
p4941
S'Cedar Butte Trail'
p4942
sS'hike153'
p4943
S'Monte Cristo Trail'
p4944
sS'hike150'
p4945
S'Moulton Falls - East Fork of the Lewis River Trail'
p4946
sS'hike151'
p4947
S'Lake Angeles Trail'
p4948
sS'hike156'
p4949
S'Main Trail and Temple Pond Loop Trail'
p4950
sS'hike157'
p4951
S'Klahhane Ridge Trail to Lake Angeles'
p4952
sS'hike154'
p4953
S'Rachel and Rampart Lakes Trail'
p4954
sS'hike155'
p4955
S'Rampart Ridge Loop Trail'
p4956
sS'hike158'
p4957
S'Shi Shi Beach Trail'
p4958
sS'hike159'
p4959
S'Glacier Basin Trail'
p4960
sS'hike1707'
p4961
S'Hidden Lakes Trail'
p4962
sS'hike2522'
p4963
S'Leech Lake Loop'
p4964
sS'hike1909'
p4965
S'Northern North Cascades Loop Trail'
p4966
sS'hike1908'
p4967
S'O. O. Denny Park, Big Finn Hill Park and Saint Edward State Park'
p4968
sS'hike1459'
p4969
S'Steam Hoist Trail'
p4970
sS'hike1458'
p4971
S'Sunrise Mine Trail'
p4972
sS'hike1903'
p4973
S'McTavish Trail '
p4974
sS'hike1902'
p4975
S'WA 520 Trail'
p4976
sS'hike1901'
p4977
S'Sunrise Backcountry Camp Loop'
p4978
sS'hike1900'
p4979
S'Fullbright Park to Ahtanum Ridge'
p4980
sS'hike1907'
p4981
S'Emmons Glacier Summit via Glacier Basin Trail'
p4982
sS'hike1906'
p4983
S'Point Defiance Park Inner Loop'
p4984
sS'hike1905'
p4985
S'Oil City Trail'
p4986
sS'hike1904'
p4987
S'Foothills Trail: Fairfax Bridge to Carbonado'
p4988
sS'hike2'
p4989
S'Mount Si Trail'
p4990
sS'hike2523'
p4991
S'Red Mountain OHV Trail'
p4992
sS'hike3'
p4993
S'Wallace Falls Trail'
p4994
sS'hike0'
p4995
S'Rattlesnake Ledge Trail '
p4996
sS'hike1'
p4997
S'Lake 22 Trail'
p4998
sS'hike6'
p4999
S'Lake Serene Trail and Bridal Veil Falls'
p5000
sS'hike7'
p5001
S'Poo Poo Point Trail'
p5002
sS'hike4'
p5003
S'Twin Falls Trail'
p5004
sS'hike5'
p5005
S'Snow Lake Trail'
p5006
sS'hike8'
p5007
S'Little Si Trail'
p5008
sS'hike9'
p5009
S'Tolmie Peak Trail'
p5010
sS'hike134'
p5011
S'Yellow Aster Butte Trail'
p5012
sS'hike2018'
p5013
S'Tucannon River Scenic Drive'
p5014
sS'hike2019'
p5015
S'Copper Creek Hut via Rainier Vista Trail '
p5016
sS'hike135'
p5017
S'Murhut Falls Trail'
p5018
sS'hike2014'
p5019
S'Franklin Ghost Town Trail  [PRIVATE PROPERTY]'
p5020
sS'hike2015'
p5021
S'Canyon Lake and Ridge'
p5022
sS'hike2016'
p5023
S'Lopez Hill'
p5024
sS'hike2017'
p5025
S'Larch Lake via Deadhorse Pass'
p5026
sS'hike2010'
p5027
S'Wildcat Falls via Siouxon Trail #130'
p5028
sS'hike2011'
p5029
S'Westside Road and South Puyallup Trail '
p5030
sS'hike2012'
p5031
S'Raging Ridge, Invictus, Return Policy Loop'
p5032
sS'hike2013'
p5033
S'Glacier Peak: Sitkum Glacier'
p5034
sS'hike137'
p5035
S"Ebey's Landing Trail"
p5036
sS'hike1608'
p5037
S'Red Town Trail to Wildside Trail'
p5038
sS'hike1609'
p5039
S'Sunburst and Porpoise Point Loop'
p5040
sS'hike1604'
p5041
S'Lost Creek Ridge Trail'
p5042
sS'hike1605'
p5043
S'Purcell Mountain Trail'
p5044
sS'hike1606'
p5045
S'Stinger, Once Upon a Time and Rabbit Role'
p5046
sS'hike1607'
p5047
S'Bowl and Pitcher Viewpoint and Trail 100'
p5048
sS'hike1600'
p5049
S'Waterworks Gardens Trail'
p5050
sS'hike1601'
p5051
S'Manchester State Park Loop'
p5052
sS'hike1602'
p5053
S'Horseshoe Ridge Trail'
p5054
sS'hike1603'
p5055
S'Jolly Mountain Lookout Trail #1307'
p5056
sS'hike132'
p5057
S'Heliotrope Ridge Trail'
p5058
sS'hike133'
p5059
S'McClellan Butte Trail'
p5060
sS'hike2120'
p5061
S'Spencer Butte Trail'
p5062
sS'hike2121'
p5063
S'Steamboat Mountain Trail'
p5064
sS'hike2122'
p5065
S'Madrone Trail'
p5066
sS'hike2123'
p5067
S'Cougar Canyon'
p5068
sS'hike2124'
p5069
S'Sherman Pass Scenic Byway'
p5070
sS'hike2125'
p5071
S'Echo Lake Loop '
p5072
sS'hike2126'
p5073
S'Fourth Crossing Trail'
p5074
sS'hike2127'
p5075
S'Bedal Creek Trail'
p5076
sS'hike2128'
p5077
S'Kettles Trail '
p5078
sS'hike2129'
p5079
S'Cameron Creek via Three Forks Trail'
p5080
sS'hike1110'
p5081
S'Waptus Lake via Waptus River Trail'
p5082
sS'hike1111'
p5083
S'East Bank and Desolation Trail '
p5084
sS'hike1112'
p5085
S'Scenic Beach State Park'
p5086
sS'hike1113'
p5087
S'Mine Road Trail'
p5088
sS'hike1114'
p5089
S'Bald Knob - CCC Cabin Trail'
p5090
sS'hike1115'
p5091
S'Bear Gap to Bullion Basin'
p5092
sS'hike1116'
p5093
S'Mount St. Helens Loop Trail from Windy Ridge'
p5094
sS'hike1117'
p5095
S'Shadow of the Sentinels Trail'
p5096
sS'hike1118'
p5097
S'Big Lava Bed Trail via PCT'
p5098
sS'hike1119'
p5099
S'Preston-Snoqualmie Trail'
p5100
sS'hike529'
p5101
S'Gray Wolf Trail'
p5102
sS'hike528'
p5103
S'Paradise Inn to Panorama Point-Snow Hike'
p5104
sS'hike949'
p5105
S'Blue Mountain Logging Road - South'
p5106
sS'hike948'
p5107
S'North Fork Sauk Falls Trail'
p5108
sS'hike522'
p5109
S'Trail of the Shadows Trail'
p5110
sS'hike945'
p5111
S'Stagman Ridge Trail'
p5112
sS'hike944'
p5113
S'Olympic Discovery Trail'
p5114
sS'hike947'
p5115
S'Thomas Lake Trail'
p5116
sS'hike946'
p5117
S'Salmo-Priest Loop'
p5118
sS'hike941'
p5119
S'Mount Zion'
p5120
sS'hike940'
p5121
S'Vancouver Lake'
p5122
sS'hike943'
p5123
S'State Capitol and Central Olympia'
p5124
sS'hike942'
p5125
S'Aldrich Butte Trail Via Pacific Crest Trail'
p5126
sS'hike2234'
p5127
S'Chewelah Mountain Trail'
p5128
sS'hike2235'
p5129
S'Middle Fork Snolqualmie River Trail'
p5130
sS'hike2236'
p5131
S'Riverview Playfield Trail'
p5132
sS'hike2237'
p5133
S'Home Lake via Upper Big Quilcene, Upper Dungeness, Constance Pass'
p5134
sS'hike2230'
p5135
S'Black Jack Ridge Trail'
p5136
sS'hike2231'
p5137
S'Mount Challenger: Challenger Glacier Route'
p5138
sS'hike2232'
p5139
S'Cascading Terraces Nature Trail'
p5140
sS'hike2233'
p5141
S'Coal Mine and West Access Trail'
p5142
sS'hike2238'
p5143
S'Blazed Ridge and Bear Creek Loop'
p5144
sS'hike2239'
p5145
S'Blue Lake Buttes Trail (to Blue Lake)'
p5146
sS'hike1024'
p5147
S'Squak Mountain East Ridge'
p5148
sS'hike1025'
p5149
S'Winter Block via Birdhouse Trail'
p5150
sS'hike1026'
p5151
S'Toutle River Trail'
p5152
sS'hike1027'
p5153
S'East Lake Sammamish Trail'
p5154
sS'hike1020'
p5155
S'Trillium Trail'
p5156
sS'hike1021'
p5157
S'Lake Elizabeth Trail'
p5158
sS'hike1022'
p5159
S'Foothills Trail: South Prairie to Puyallup'
p5160
sS'hike1023'
p5161
S'Deceiver Trail'
p5162
sS'hike1849'
p5163
S'Buck Mountain Loop Trail'
p5164
sS'hike1028'
p5165
S'Baldy Mountain'
p5166
sS'hike1029'
p5167
S'Monogram Lake Trail'
p5168
sS'hike1442'
p5169
S'Junction Lake via East Crater Trail'
p5170
sS'hike2348'
p5171
S'Gypsy Peak via Sullivan Creek Road'
p5172
sS'hike2490'
p5173
S"Budu Henry's Ridge Loop"
p5174
sS'hike2491'
p5175
S'Broken Tree Trail'
p5176
sS'hike2340'
p5177
S'Frozen Trail '
p5178
sS'hike2341'
p5179
S'Pierce Mountain Way Trail'
p5180
sS'hike2342'
p5181
S'Belfair and Howell Lake OHV Loop'
p5182
sS'hike2343'
p5183
S'Basecamp Loop'
p5184
sS'hike2344'
p5185
S'Bald Knob via Trail 131 '
p5186
sS'hike961'
p5187
S'Spanaway Lake Trail'
p5188
sS'hike2346'
p5189
S'North Fork Skykomish Trail'
p5190
sS'hike2347'
p5191
S'Flagg Mountain Loop'
p5192
sS'hike128'
p5193
S'Sauk Mountain Trail'
p5194
sS'hike1339'
p5195
S'Cougar Mountain Loop Trail'
p5196
sS'hike899'
p5197
S'White Pass Pilot Ridge Loop Trail'
p5198
sS'hike2493'
p5199
S"Borrow Pit, North Trail and Jack's Trail Loop"
p5200
sS'hike1330'
p5201
S'Glacier Peak'
p5202
sS'hike892'
p5203
S'Coal Creek Falls '
p5204
sS'hike891'
p5205
S'Candy Mountain'
p5206
sS'hike890'
p5207
S'Bothell Landing Trail'
p5208
sS'hike897'
p5209
S'Tinkham Peak (Tinkham East Boot) Trail'
p5210
sS'hike896'
p5211
S'Gibbs Lake Trail'
p5212
sS'hike895'
p5213
S'Vista Ridge Trail'
p5214
sS'hike894'
p5215
S'Dead Horse Creek Trail'
p5216
sS'hike2496'
p5217
S'Little Bald Mountain OHV Loop'
p5218
sS'hike419'
p5219
S'Foothills Trail: Puyallup to South Prairie'
p5220
sS'hike418'
p5221
S'Glenrose Cliff Trails '
p5222
sS'hike417'
p5223
S'Nolte State Park Deep Lake'
p5224
sS'hike416'
p5225
S'Mount Zion Trail'
p5226
sS'hike415'
p5227
S'Battle Ground Lake Loop Trail'
p5228
sS'hike964'
p5229
S"West View Trail to Devil's Butte"
p5230
sS'hike413'
p5231
S'Josephine Lake View Trail'
p5232
sS'hike412'
p5233
S'PCT: WA Section J - Snoqualmie Pass to Stevens Pass'
p5234
sS'hike411'
p5235
S'Lake Isabel Trail'
p5236
sS'hike410'
p5237
S'Ingalls Creek Trail to Lake Ingalls'
p5238
sS'hike2645'
p5239
S'Walker Valley 31 and BR-38 OHV Trail'
p5240
sS'hike2644'
p5241
S'Cowboy Mountain [CLOSED]'
p5242
sS'hike2647'
p5243
S'Alder Ridge OHV Trail '
p5244
sS'hike2646'
p5245
S'Kaner Flat Trail #676'
p5246
sS'hike2641'
p5247
S'Walker Valley OHV Trail Loop '
p5248
sS'hike2640'
p5249
S'Mount Molly and Capitol Forest OHV Loop'
p5250
sS'hike2643'
p5251
S'Capital Forest and Divide Trail OHV Loop'
p5252
sS'hike2642'
p5253
S'Capital Forest and Peaks OHV Trail'
p5254
sS'hike2649'
p5255
S'Salal Loop'
p5256
sS'hike2648'
p5257
S'Off The Grid Cahill  [PRIVATE PROPERTY]'
p5258
sS'hike303'
p5259
S'Stimpson Nature Preserve'
p5260
sS'hike302'
p5261
S'Lake Constance Trail'
p5262
sS'hike301'
p5263
S'Flapjack Lakes Trail'
p5264
sS'hike300'
p5265
S'Starvation Ridge and Warren Lake Trail '
p5266
sS'hike307'
p5267
S'Normandy Beach Trail'
p5268
sS'hike306'
p5269
S'High Lakes Loop Trail'
p5270
sS'hike305'
p5271
S'Thornton Lakes Trail'
p5272
sS'hike304'
p5273
S'Kamiak Butte Trail'
p5274
sS'hike2046'
p5275
S"O'Neill Pass To Lake La Crosse Loop"
p5276
sS'hike308'
p5277
S'Spectacle Lake'
p5278
sS'hike1846'
p5279
S'Stevens Pass Scenic Byway'
p5280
sS'hike1847'
p5281
S'Cyrus Gates Overlook to Lost Lake Trail via Ridge Trail'
p5282
sS'hike1844'
p5283
S'Ravensdale'
p5284
sS'hike1845'
p5285
S'Quartz Creek Trail #5 and #5b'
p5286
sS'hike1842'
p5287
S'Tumwater Hill Park Trail '
p5288
sS'hike1843'
p5289
S'Fay Peak Trail'
p5290
sS'hike1840'
p5291
S'Orange Gate Park Loop'
p5292
sS'hike1841'
p5293
S'Nannie Peak Trail'
p5294
sS'hike523'
p5295
S'Twanoh Trail'
p5296
sS'hike848'
p5297
S'Squak Mountain Road to Bullitt Gorge Trail Loop'
p5298
sS'hike521'
p5299
S'Indian Heavan Trail to Lake Wapiki'
p5300
sS'hike520'
p5301
S'Easton Glacier via Railroad Grade Trail'
p5302
sS'hike527'
p5303
S'Millersylvania Northwest Loop'
p5304
sS'hike526'
p5305
S'Grassy Knoll Trail'
p5306
sS'hike1848'
p5307
S'The Winthrop Trail'
p5308
sS'hike849'
p5309
S'Rocky Brook Falls Trail'
p5310
sS'hike2258'
p5311
S'Quartz Creek'
p5312
sS'hike2259'
p5313
S'Floyd M. Thornton Nature Trail'
p5314
sS'hike2256'
p5315
S'Marmot Lake and Tuck Lake'
p5316
sS'hike2257'
p5317
S'Putney Woods Loop'
p5318
sS'hike2553'
p5319
S'Saxon OHV Trail'
p5320
s.