(dp0
S'hike1598'
p1
S'Jolly Mountain Lookout Trail #1307'
p2
sS'hike1599'
p3
S'Lost Creek Ridge Trail'
p4
sS'hike1594'
p5
S'Mystic Lake via Carbon River and Wonderland Trails'
p6
sS'hike1595'
p7
S'Waterworks Gardens Trail'
p8
sS'hike1596'
p9
S'Manchester State Park Loop'
p10
sS'hike1597'
p11
S'Horseshoe Ridge Trail'
p12
sS'hike1590'
p13
S'Big Tree Ridge, Red Cedars, Surprise Creek, Precipice Top and Military Ridge Trail Loop'
p14
sS'hike1591'
p15
S'Whitman Mission'
p16
sS'hike1592'
p17
S'Poe Mountain Trail'
p18
sS'hike1593'
p19
S'Mount Constitution From Cascade Lake'
p20
sS'hike637'
p21
S'Moments in Time Trail'
p22
sS'hike636'
p23
S'Wallace Falls and Wallace Lake Loop'
p24
sS'hike635'
p25
S'Lanham Lake Trail'
p26
sS'hike634'
p27
S'Coal Creek and Primrose Trail Loop from Lakemont Blvd'
p28
sS'hike633'
p29
S'Porter Creek Falls'
p30
sS'hike632'
p31
S'Teneriffe Falls Loop via the Mount Teneriffe Trail'
p32
sS'hike631'
p33
S'North Head Discovery Trail'
p34
sS'hike630'
p35
S'Cowiche Canyon Trail'
p36
sS'hike2318'
p37
S'Summit Lake and Grace Lakes Trail [CLOSED]'
p38
sS'hike639'
p39
S'Southwest Park Trail'
p40
sS'hike638'
p41
S'Little Annapurna'
p42
sS'hike136'
p43
S'Bench and Snow Lakes Trail'
p44
sS'hike559'
p45
S'Elwha River Trail'
p46
sS'hike1938'
p47
S'Skagit Nature Trail Loop'
p48
sS'hike1939'
p49
S'Umtanum Ridge Road'
p50
sS'hike1936'
p51
S'Cowiche Canyon Wine Trail'
p52
sS'hike1937'
p53
S'Pioneer Square Walking Tour'
p54
sS'hike1934'
p55
S'Trail 101 to Rimrock Drive'
p56
sS'hike1935'
p57
S'West Cady Ridge Trail to Bench Mark Mountain'
p58
sS'hike1932'
p59
S'Lake Meridian via Soos Creek Trail'
p60
sS'hike1933'
p61
S'Rugged Ridge to Indian Pass Trail'
p62
sS'hike1930'
p63
S'Cook Hill Loop'
p64
sS'hike1931'
p65
S'Tower Mountain Forest Loop via Iller Creek Trailhead'
p66
sS'hike564'
p67
S'Skyline, Glacier Vista, Upper Skyline and Golden Gate Loop'
p68
sS'hike130'
p69
S'Mount Defiance and Mason Lake via Ira Spring Memorial Trail, Old Mason Lake Trail, and Mount Defiance Ridge Trail'
p70
sS'hike131'
p71
S'Greenwater Lakes Trail'
p72
sS'hike2009'
p73
S'Big Cedar Trail to Flying Eagle Trail Loop'
p74
sS'hike2008'
p75
S"Granny's, Sacred Ridge, Farm and Upper Loop Trail"
p76
sS'hike2007'
p77
S"O'Neill Pass To Lake La Crosse Loop"
p78
sS'hike2006'
p79
S'Ring Road Trail'
p80
sS'hike2005'
p81
S'Little Mountain, West Loop and Huff-N-Puff'
p82
sS'hike2004'
p83
S'Trail 25 to Trail 100'
p84
sS'hike2003'
p85
S'Lake Pondilla Loop'
p86
sS'hike2002'
p87
S'Lake Louise Loop '
p88
sS'hike2001'
p89
S'Table Mountain via Aldrich Butte [PRIVATE PROPERTY]'
p90
sS'hike2000'
p91
S'Lewis and Clark Columbia River Shoreline Short Loop'
p92
sS'hike1619'
p93
S'Deadhouse Creek Trail to Golden Gate Trail Loop'
p94
sS'hike1618'
p95
S'Dead Horse Canyon: Wild Plant Walk'
p96
sS'hike1617'
p97
S'Elk Ridge, Hermit, Sherwood'
p98
sS'hike1616'
p99
S'Tamanous Trail #27'
p100
sS'hike1615'
p101
S'Bridle Crest Trail'
p102
sS'hike1614'
p103
S'Dixie Peak via Teneriffe Trail'
p104
sS'hike1613'
p105
S'South Indian Island Trail'
p106
sS'hike1612'
p107
S'Happy Lake Ridge Trail'
p108
sS'hike1611'
p109
S'Gray Wolf Pass'
p110
sS'hike1610'
p111
S'Section Line, Nook and Bus Trail '
p112
sS'hike872'
p113
S'Peshastin Pinnacles Loop Trail'
p114
sS'hike2133'
p115
S'Ruby Creek Trail'
p116
sS'hike2132'
p117
S'Rattlesnake Trail 1114'
p118
sS'hike2131'
p119
S'Olympus Trail to Heritage Trail and Waterline Trail '
p120
sS'hike2130'
p121
S"Tuffy's Trail"
p122
sS'hike2137'
p123
S'Chewuch River Trail to Four Point Lake'
p124
sS'hike2136'
p125
S'Lily Point Loop'
p126
sS'hike2135'
p127
S'Purple Creek Trail'
p128
sS'hike2134'
p129
S'Kepple Peninsula Interpretive Trail'
p130
sS'hike2139'
p131
S'Yellow Lake Loop'
p132
sS'hike2138'
p133
S'Blue Lake Trail # 604'
p134
sS'hike1103'
p135
S'Griff Creek Trail'
p136
sS'hike1102'
p137
S'Trap Lake Trail'
p138
sS'hike1101'
p139
S'May Valley Short Loop'
p140
sS'hike1100'
p141
S'Mount Molly via Waddell Basin West Trail'
p142
sS'hike1107'
p143
S'Heather Lake Trail #1526'
p144
sS'hike1106'
p145
S'Centennial Snowshoe Hut via Mount Kit Carson Loop Road'
p146
sS'hike1105'
p147
S'Purcell Falls Trail'
p148
sS'hike1104'
p149
S'Lower Dungeness Trail'
p150
sS'hike1109'
p151
S'East Bank and Desolation Trail '
p152
sS'hike1108'
p153
S'Waptus Lake via Waptus River Trail'
p154
sS'hike958'
p155
S'Weatherwax Trail'
p156
sS'hike959'
p157
S'Spanaway Lake Trail'
p158
sS'hike952'
p159
S'Tonga Ridge Trail'
p160
sS'hike953'
p161
S'West Tiger #1'
p162
sS'hike950'
p163
S'West, Old Naches, and Land of the Giants Loop'
p164
sS'hike951'
p165
S'Lake Youngs'
p166
sS'hike956'
p167
S'South Wedge Mountain Trail'
p168
sS'hike957'
p169
S'Black Canyon Trail'
p170
sS'hike954'
p171
S'May Creek Trail from Lake Boren Park'
p172
sS'hike955'
p173
S'Boulder Lake Trail  '
p174
sS'hike2227'
p175
S'Lower Falls and Woodburn Falls via Lake to Lake Trail'
p176
sS'hike2226'
p177
S'Geophysical Nordic Ski and Mtn Bike Trail'
p178
sS'hike2225'
p179
S'Whale Watch Site Trail'
p180
sS'hike2224'
p181
S'Walla Walla River'
p182
sS'hike2223'
p183
S'7 Peaks of East and South Tiger Mountains'
p184
sS'hike2222'
p185
S'North Canyon Trail to Joe Watt Trail Loop'
p186
sS'hike2221'
p187
S'Cougar Mountain via S Tommy and Tyee Ridge Trail'
p188
sS'hike2220'
p189
S'Padden Parkway Trail'
p190
sS'hike1080'
p191
S'Elk Mountain Trail Loop'
p192
sS'hike2229'
p193
S'Adventure and High School Trail Loop'
p194
sS'hike2228'
p195
S'West Duwamish Greenbelt and Douglas Fir Spur Trail'
p196
sS'hike1037'
p197
S"Piper's Creek and South Ridge Trail"
p198
sS'hike1036'
p199
S'Cedar River'
p200
sS'hike1035'
p201
S'Tradition Lake, Around the Lake and Bus Trail Loop'
p202
sS'hike1034'
p203
S'Olympic Discovery Trail: Port Angeles Waterfront'
p204
sS'hike1033'
p205
S'Anderson Lake Trail'
p206
sS'hike1032'
p207
S'Airport Trail'
p208
sS'hike1031'
p209
S'Little Huckleberry Trail'
p210
sS'hike1030'
p211
S'Equine Loop from Margaret KcKenny Campground via McKenny Trail'
p212
sS'hike1086'
p213
S'James T. Slavin Conservation Area Loop'
p214
sS'hike1039'
p215
S'Northwest Trek Wildlife Park Loop'
p216
sS'hike1038'
p217
S'Barnes Creek Trail'
p218
sS'hike1084'
p219
S'Snoqualmie Valley Trail: Three Forks to Rattlesnake Lake'
p220
sS'hike1085'
p221
S'Railroad Trail'
p222
sS'hike888'
p223
S'Bothell Landing Trail'
p224
sS'hike889'
p225
S'Candy Mountain'
p226
sS'hike1329'
p227
S'Copper Glance Lake Trail'
p228
sS'hike1328'
p229
S'Glacier Peak'
p230
sS'hike880'
p231
S'Hoh River Trail to Hoh Lake Trail'
p232
sS'hike1322'
p233
S'Neiderprum Trail to Whitehorse Mountain'
p234
sS'hike1321'
p235
S'Cathedral Pass and Deception Pass Loop '
p236
sS'hike883'
p237
S'Carbon Trail to Bearhead Trail'
p238
sS'hike884'
p239
S'Wenatchee Crest Trail'
p240
sS'hike1326'
p241
S'Chuckanut Drive'
p242
sS'hike886'
p243
S'Joseph Whidbey State Park Trails'
p244
sS'hike887'
p245
S'Priest Point'
p246
sS'hike408'
p247
S'Golden Gate Trail'
p248
sS'hike409'
p249
S'Ingalls Creek Trail to Lake Ingalls'
p250
sS'hike404'
p251
S'Heather Meadows and Artists Point Trail'
p252
sS'hike405'
p253
S'Oyster Dome from Samish Overlook'
p254
sS'hike406'
p255
S'Carkeek Park Salmon'
p256
sS'hike407'
p257
S'Mount Pugh Trail'
p258
sS'hike400'
p259
S'Church Mountain Trail'
p260
sS'hike401'
p261
S'Spine Line, Ravine Run, White Horse, and Boundary Trails Loop'
p262
sS'hike402'
p263
S'Sunrise Rim Trail Loop and Mount Fremont Lookout'
p264
sS'hike403'
p265
S'Olympic Coast South Trail'
p266
sS'hike310'
p267
S'Grand Forest Park Trail'
p268
sS'hike311'
p269
S'Table Mountain Trail'
p270
sS'hike312'
p271
S'Salmon Creek Trail'
p272
sS'hike313'
p273
S'Norway Pass and Mount Margaret Via Boundary Trail'
p274
sS'hike314'
p275
S'Paradise Glacier Caves via Skyline Trail Spur'
p276
sS'hike315'
p277
S'Silver Peak Trail'
p278
sS'hike316'
p279
S'Baker Lake Trail'
p280
sS'hike317'
p281
S'Clara Lake and Marion Lake'
p282
sS'hike318'
p283
S'Washington Park Trail'
p284
sS'hike319'
p285
S'Palisades Trail (#1198)'
p286
sS'hike1859'
p287
S'Alaska Lake via Gold Creek Trail '
p288
sS'hike1858'
p289
S'Nestor Peak Trail'
p290
sS'hike1851'
p291
S'Badger Mountain CSS Loop'
p292
sS'hike1850'
p293
S'Sehome Hill Lookout Tower Loop'
p294
sS'hike1853'
p295
S'Fallen Leaf Lake'
p296
sS'hike1852'
p297
S'Washougal Waterfront Loop'
p298
sS'hike1855'
p299
S'Lighthouse Keepers Trail'
p300
sS'hike1854'
p301
S'Domke Lake Trail'
p302
sS'hike1857'
p303
S'Yakima Wine and Fruit Challenge'
p304
sS'hike1856'
p305
S'Boot, Knee Knocker, and Sherwood Loop'
p306
sS'hike538'
p307
S'Owen Beach Trail'
p308
sS'hike539'
p309
S'Bluff Mountain Trail'
p310
sS'hike530'
p311
S'Upper Wildcat Lake Trail'
p312
sS'hike531'
p313
S'Goat Mountain Trail'
p314
sS'hike532'
p315
S'Boulder Garden Loop Trail'
p316
sS'hike533'
p317
S'Blue Mountain Trail'
p318
sS'hike534'
p319
S'Perry Creek Trail'
p320
sS'hike535'
p321
S'Lake Lillian Trail'
p322
sS'hike536'
p323
S'Horseshoe Lake Trail'
p324
sS'hike537'
p325
S'Upper and Lower Twin Falls via Twin Falls Trail'
p326
sS'hike1331'
p327
S'Priest Point East Loop'
p328
sS'hike1589'
p329
S'Kettle Falls and Jungle Hill Trail'
p330
sS'hike1588'
p331
S'Lewis River Trail'
p332
sS'hike1587'
p333
S'Beaver Lake Park Loop'
p334
sS'hike1586'
p335
S'Summit Springs Trail #173 (Snass Creek)'
p336
sS'hike1585'
p337
S'Boundary West End Trail to Johnson Ridge Observatory'
p338
sS'hike1584'
p339
S'Gilbert Peak and Warm Lake Loop'
p340
sS'hike1583'
p341
S'Evergreen Farm Loop'
p342
sS'hike1582'
p343
S"Sam's River Trail"
p344
sS'hike1581'
p345
S'St Edward Grotto Trail'
p346
sS'hike1580'
p347
S'Tahoma Creek Suspension Bridge to Emerald Ridge Loop'
p348
sS'hike624'
p349
S'Upper Dungeness Trail to Constance Pass trail Junction'
p350
sS'hike625'
p351
S'Dosewallips State Park Trail'
p352
sS'hike626'
p353
S'Duckabush River to Lacrosse Pass Trail'
p354
sS'hike627'
p355
S'Grand Park Trail past Lake Eleanor'
p356
sS'hike620'
p357
S'Moraine Trail'
p358
sS'hike621'
p359
S'Esmeralda Basin Loop Trail'
p360
sS'hike622'
p361
S'Ladder Creek Falls Trail'
p362
sS'hike623'
p363
S'Saltwater State Park Loop'
p364
sS'hike628'
p365
S'Deer Park Road'
p366
sS'hike629'
p367
S'Commencement Bay Trail'
p368
sS'hike1333'
p369
S'Kamiak Butte Primative Trail'
p370
sS'hike1334'
p371
S'Cypress Island: Pelican Trail'
p372
sS'hike1921'
p373
S'Bear Ridge Trail to Coal Creek Falls and Cave Hole Loop'
p374
sS'hike1920'
p375
S'Sqebeqsed Trail'
p376
sS'hike1923'
p377
S'Snoqualmie River: Fall City to Tolt River Mouth'
p378
sS'hike1922'
p379
S'Tibbetts Marsh Loop via Bear Ridge Trail'
p380
sS'hike1925'
p381
S'Trail #126, #118, #109 and #108 Loop '
p382
sS'hike1924'
p383
S'Colockum Road'
p384
sS'hike1927'
p385
S'June Lake Trail to Loowit Falls'
p386
sS'hike1926'
p387
S'Pilchuck Tree Farm Loop from Bracken Trailhead'
p388
sS'hike1929'
p389
S'Blythe Lake and Coulee Trail'
p390
sS'hike1928'
p391
S'Old Loop and Rhodie Trail'
p392
sS'hike1336'
p393
S'Falls Creek and Quinault Loop Trail'
p394
sS'hike2032'
p395
S'Tiger Middle Summit'
p396
sS'hike2033'
p397
S'Squilchuck Trail'
p398
sS'hike2030'
p399
S'Tahoma One Drop Monasteries'
p400
sS'hike2031'
p401
S'Methow Valley Community Trail'
p402
sS'hike2036'
p403
S'Mission Peak Via Marion Lake'
p404
sS'hike2037'
p405
S'Twin Bridges Trail '
p406
sS'hike2034'
p407
S'Howard Lake via PCT'
p408
sS'hike2035'
p409
S'Tribulation to Revival to Exodus Loop'
p410
sS'hike2038'
p411
S'188, Grinder, Techmo and Landtrust Loop '
p412
sS'hike2039'
p413
S'Walk - N - Roll and Horse Trail Loop'
p414
sS'hike1622'
p415
S'Rattlesnake Trail'
p416
sS'hike1623'
p417
S'The Columbia River Mouth and Long Beach Peninsula Scenic Drive'
p418
sS'hike1620'
p419
S'Evans Creek Preserve Short Loop'
p420
sS'hike1621'
p421
S'Spine Line and Boundary Trails Loop'
p422
sS'hike1626'
p423
S'Klickitat Trail'
p424
sS'hike1627'
p425
S'Dry Gulch Big Loop'
p426
sS'hike1624'
p427
S'Anti Aircraft Ridge Trail to Klondike Swamp Loop'
p428
sS'hike1625'
p429
S'Bear Ridge to Shangri La Trail to West Tibbetts Creek Loop'
p430
sS'hike1628'
p431
S'Spiral Butte Trail'
p432
sS'hike1629'
p433
S'Mount Angeles via Switchback Trail'
p434
sS'hike2106'
p435
S'18th Street to Main Vein Loop'
p436
sS'hike2107'
p437
S'Green River: Auburn to Kent, Middle Reach'
p438
sS'hike2104'
p439
S'River View Quarry Road to Quarry Trail Loop'
p440
sS'hike2105'
p441
S'Newcastle East Cross Town Trail'
p442
sS'hike2102'
p443
S'Cypress Island Airfield Trail'
p444
sS'hike2103'
p445
S'Battle Point Trail'
p446
sS'hike2100'
p447
S'Old Man Pass Loop'
p448
sS'hike2101'
p449
S'Trail 102: South Trail Green Loop'
p450
sS'hike2108'
p451
S'Florence Robinson Park'
p452
sS'hike2109'
p453
S'Bear Lake via East Crest Trail'
p454
sS'hike1136'
p455
S'Round Lake Loop via Lake to Lake Trail'
p456
sS'hike1137'
p457
S'Keechelus Lake via the John Wayne Trail'
p458
sS'hike1134'
p459
S'Mirabeau Trail and Spokane River Centennial Trail Loop'
p460
sS'hike1135'
p461
S'Taneum Creek Trail'
p462
sS'hike1132'
p463
S'Walupt Lake Trail'
p464
sS'hike1133'
p465
S'Twin Sisters Trail and Tumac Mountain'
p466
sS'hike1130'
p467
S'Sage Hills Loop'
p468
sS'hike1131'
p469
S'Upper Dungeness Trail to Handy Camp'
p470
sS'hike1138'
p471
S'Hurricane Hill'
p472
sS'hike1139'
p473
S'Wolf Creek Trail'
p474
sS'hike2218'
p475
S'Mount Erie Rock Climbing Sunshine Wall'
p476
sS'hike2219'
p477
S'Basin Lake via Norse Peak Trail, Goat Lake Trail, and PCT'
p478
sS'hike2212'
p479
S'The Rendezvous Mountain - Heifer Hut Ski Tour'
p480
sS'hike2213'
p481
S'Mount Adams Short Loop'
p482
sS'hike2210'
p483
S'Goose Prairie Trail'
p484
sS'hike2211'
p485
S'Forest Park, Saddle Back and Summit West Trail'
p486
sS'hike2216'
p487
S'Slough Trail'
p488
sS'hike2217'
p489
S'Pacific Way Trail'
p490
sS'hike2214'
p491
S'Grandy Lake and Logging Road Trail'
p492
sS'hike2215'
p493
S'Blackhorse Lake Boardwalk'
p494
sS'hike1008'
p495
S'Panjab Trail'
p496
sS'hike1009'
p497
S'North Fork Sauk Trail'
p498
sS'hike1002'
p499
S'Gold Creek Trail'
p500
sS'hike1003'
p501
S'Carne Mountain Trail'
p502
sS'hike1000'
p503
S'Lily Basin Trail'
p504
sS'hike1001'
p505
S'Jetty Island Trail'
p506
sS'hike1006'
p507
S'Turtleback Mountain to Orcas Knob'
p508
sS'hike1007'
p509
S'1000 Puddles Trail'
p510
sS'hike1004'
p511
S'Catherine Creek Trail (020)'
p512
sS'hike1005'
p513
S'Yelm Tenino Trail'
p514
sS'hike541'
p515
S'Spider Gap - Buck Creek Pass Loop'
p516
sS'hike540'
p517
S'Green Mountain Trail'
p518
sS'hike543'
p519
S'Salmon-Morgan Creeks Trail'
p520
sS'hike542'
p521
S'Turtleback Mountain South Trail '
p522
sS'hike1318'
p523
S'Fragrance Lake Extended Loop'
p524
sS'hike1319'
p525
S'Three Corners Rock'
p526
sS'hike1316'
p527
S'Agnes Gorge Trail'
p528
sS'hike1317'
p529
S'Fossil Trail'
p530
sS'hike1314'
p531
S'Olympic National Park Traverse: Hoh to Quinault'
p532
sS'hike1315'
p533
S'Langfield Falls Trail'
p534
sS'hike1312'
p535
S'Dumbbell Lake Loop'
p536
sS'hike1313'
p537
S'Trail 121: Waterfall Loop'
p538
sS'hike1310'
p539
S'Kalaloch Nature Trail'
p540
sS'hike1311'
p541
S'Mount Stuart'
p542
sS'hike439'
p543
S'Lake Stuart and Colchuck Lake Trail'
p544
sS'hike438'
p545
S'Tatoosh Ridge Trail'
p546
sS'hike547'
p547
S'Red Town and Wildside Trails'
p548
sS'hike431'
p549
S'Banner Forest Heritage Park Loop'
p550
sS'hike430'
p551
S'Capitol Lake Trail'
p552
sS'hike433'
p553
S'Spruce Nature Trail'
p554
sS'hike432'
p555
S'Starway Trail'
p556
sS'hike435'
p557
S'Observation Peak Trail'
p558
sS'hike434'
p559
S'Rainy Lake Trail'
p560
sS'hike437'
p561
S'Van Trump Park Trail to Comet Falls'
p562
sS'hike436'
p563
S'Kaleetan Peak Trail '
p564
sS'hike549'
p565
S'Magnuson Park Waterfront Trail'
p566
sS'hike548'
p567
S'Frozen Lake'
p568
sS'hike981'
p569
S'Big Huckleberry Mountain'
p570
sS'hike980'
p571
S'Kalaloch to Browns Point Trail'
p572
sS'hike983'
p573
S'Pratt Lake Trail to Melakwa Lake Trail to Loop'
p574
sS'hike982'
p575
S'Snake Lake Loop Trail'
p576
sS'hike329'
p577
S'Greider Lakes Trail'
p578
sS'hike328'
p579
S'Sleeping Beauty Trail'
p580
sS'hike987'
p581
S'Green Mountain via Gold Creek and Wildcat Trails'
p582
sS'hike986'
p583
S'Ravenna Park Loop Trail'
p584
sS'hike325'
p585
S'South Tiger Mountain Loop'
p586
sS'hike988'
p587
S'Antoine Peak Summit Loop from East Trailhead'
p588
sS'hike327'
p589
S'McLane Creek Woods Trail'
p590
sS'hike326'
p591
S'Bead Lake Trail'
p592
sS'hike321'
p593
S'Hamilton Mountain Trail'
p594
sS'hike320'
p595
S'Table Mountain Trail via Pacific Crest Trail'
p596
sS'hike323'
p597
S'Clear Creek Trail'
p598
sS'hike322'
p599
S'Upper Lodge to Artist Point Trail'
p600
sS'hike505'
p601
S'Marymere Falls Trail from Lake Crescent Lodge'
p602
sS'hike504'
p603
S'Dog Mountain Out and Back Route '
p604
sS'hike507'
p605
S'Grand Ridge Park Trail'
p606
sS'hike506'
p607
S'Spider Meadow Trail'
p608
sS'hike501'
p609
S'Skyscraper Mountain via Wonderland Trail'
p610
sS'hike500'
p611
S'Lake Sylvia Trail'
p612
sS'hike503'
p613
S'Lewisville Park Trail'
p614
sS'hike502'
p615
S'Spider Lake Trail'
p616
sS'hike1824'
p617
S'Tucannon River Trail'
p618
sS'hike1825'
p619
S'Grade Creek to Cooper Ridge'
p620
sS'hike1826'
p621
S'New Panther Lake Trail'
p622
sS'hike1827'
p623
S'Lower Elkspur and Upper Elkspur Loop'
p624
sS'hike509'
p625
S'Mima Mounds Trail'
p626
sS'hike508'
p627
S'Shi Shi to Ozette River Beach Trail'
p628
sS'hike1822'
p629
S'Banks Lake Trail'
p630
sS'hike1823'
p631
S'I-90 Trail to the Lake to Lake Trail'
p632
sS'hike189'
p633
S'Trail 25 and Centennial Trail'
p634
sS'hike188'
p635
S'Granite Lakes Trail'
p636
sS'hike181'
p637
S'Mount Adams South Climb Trail'
p638
sS'hike180'
p639
S"Dirty Harry's Balcony via Birdhouse Trail"
p640
sS'hike183'
p641
S'Sunrise Ridge Trail to Mount Angeles'
p642
sS'hike182'
p643
S'Olympic Hot Springs Trail'
p644
sS'hike185'
p645
S"Clark's Creek Trail "
p646
sS'hike184'
p647
S'Wallace Lake Via Woody Trail and Greg Ball Trail'
p648
sS'hike187'
p649
S'Rialto Beach Trail'
p650
sS'hike186'
p651
S'Robe Canyon Historic Trail'
p652
sS'hike611'
p653
S'Bear Creek Mountain'
p654
sS'hike610'
p655
S'Tiger Mountain: Around the Lake Trail'
p656
sS'hike613'
p657
S'Owyhigh Lakes Trail'
p658
sS'hike612'
p659
S'Miller Peninsula and Thompson Spit Trail'
p660
sS'hike615'
p661
S'Green Mountain via Davis and Gold Creek Trails'
p662
sS'hike614'
p663
S'Butte Camp Trail'
p664
sS'hike617'
p665
S'Cable Line Trail to West Tiger #3'
p666
sS'hike616'
p667
S'Sheep Lake and Sourdough Gap Trail'
p668
sS'hike619'
p669
S'Windy Ridge Trail'
p670
sS'hike618'
p671
S'Lake Washington North Trail to South Canyon Trail to Orchard Loop'
p672
sS'hike909'
p673
S'Day Mountain and Mount Kit Carson Trail'
p674
sS'hike908'
p675
S'Lakemont Trail'
p676
sS'hike1486'
p677
S'East Tiger Mountain'
p678
sS'hike1487'
p679
S'Maury Island Viewpoint Trail'
p680
sS'hike1484'
p681
S'Big Gulch Trail via Harbour Pointe'
p682
sS'hike1485'
p683
S'Anti-Aircraft Ridge Trail to Cougar Mountain and Coyote Creek Trail'
p684
sS'hike1482'
p685
S'Spokane Lower Falls Overlook'
p686
sS'hike1483'
p687
S'North Beach and Hidden Valley Loop'
p688
sS'hike1480'
p689
S'Holly and Bluff Loop'
p690
sS'hike1481'
p691
S'Polallie Ridge Trail'
p692
sS'hike1958'
p693
S'Teneriffe, Blowdown and Si Loop'
p694
sS'hike1959'
p695
S'Tokul East Loop'
p696
sS'hike1488'
p697
S'Tull Canyon Trail via Tubal Cain Trail'
p698
sS'hike1489'
p699
S'Wilderness Peak and Squak Mountain Loop'
p700
sS'hike2270'
p701
S'Coho Preserve Trail '
p702
sS'hike2271'
p703
S'Cedar Lake Primitive Trail via Grey Wolf River'
p704
sS'hike1260'
p705
S'Wonderland Trail: Mowich Lake Campground to Ipsut Creek Campground'
p706
sS'hike2273'
p707
S'Dog Mountain [PRIVATE PROPERTY]'
p708
sS'hike1266'
p709
S'Marymoor Connector Trail'
p710
sS'hike2275'
p711
S'Bygone Byways Interpretive Trail'
p712
sS'hike2276'
p713
S'David Douglas Park Trail'
p714
sS'hike1265'
p715
S'Dry Creek Trail'
p716
sS'hike1558'
p717
S'Faraway Rock via Reflection Lakes'
p718
sS'hike1559'
p719
S'Wallula Gap Overlook '
p720
sS'hike1550'
p721
S'Long Island Trails'
p722
sS'hike1551'
p723
S"Central Peak, West Peak, and Debbie's View Loop"
p724
sS'hike1552'
p725
S'Green Diamond Trail'
p726
sS'hike1553'
p727
S'Mad River Trail'
p728
sS'hike1554'
p729
S'Sand Lake and Deer Lake Trail'
p730
sS'hike1555'
p731
S'Queets River Road'
p732
sS'hike1556'
p733
S'Deep Lake and Lake Vicente'
p734
sS'hike1557'
p735
S'Cama Beach Marine View Loop and Cranberry Lake'
p736
sS'hike2025'
p737
S'Lewis River East Fork from Daybreak Park'
p738
sS'hike2024'
p739
S'Badger Valley Trail to Grand Pass Trail Loop'
p740
sS'hike2027'
p741
S'Lundin Peak View and Red Mountain via Old Commonwealth Trail'
p742
sS'hike2026'
p743
S'Lewis & Clark Trail State Park Nature Loop'
p744
sS'hike2021'
p745
S'China Creek Trail'
p746
sS'hike2020'
p747
S'Pear Lake via Top Lake Trail'
p748
sS'hike2023'
p749
S'Corral Pass Campground to Hidden Lake'
p750
sS'hike2022'
p751
S'Northwest Timber Trail to Preston Railroad Grade and East Tiger Summit to Main Tiger Mountain Road'
p752
sS'hike2029'
p753
S'Trail 25'
p754
sS'hike2028'
p755
S'Leech Lake to Tacoma Pass'
p756
sS'hike1635'
p757
S'Thunder Creek, Fourth of July, and Panther Creek Trail'
p758
sS'hike1634'
p759
S'Rat Pac Trail'
p760
sS'hike1637'
p761
S'Spencer Spit Trail'
p762
sS'hike1636'
p763
S'Naches Trail'
p764
sS'hike1631'
p765
S'North, Wetland, Big Loop and Big Tree Loop'
p766
sS'hike1630'
p767
S'Devils Gulch Trail'
p768
sS'hike1633'
p769
S'Mineral Rock Trail'
p770
sS'hike1632'
p771
S'Lake Sammamish Loop'
p772
sS'hike1639'
p773
S'Bagley Seam Trail'
p774
sS'hike1638'
p775
S'Mount Spokane'
p776
sS'hike2119'
p777
S'Honey Creek Open Space'
p778
sS'hike2118'
p779
S'Boundary Trails: Elk Pass to Johnston Ridge Observatory'
p780
sS'hike2111'
p781
S'White River Trail'
p782
sS'hike2110'
p783
S'William Cannon Trail'
p784
sS'hike2113'
p785
S'360 Park Ticket to Ride MTB Loop'
p786
sS'hike2112'
p787
S'Rock Shelter Trail'
p788
sS'hike2115'
p789
S'Mt Adams via Divide Camp Trail #112 and PCT'
p790
sS'hike2114'
p791
S'Mount Pickett via Fortman\xe2\x80\x99s Trail'
p792
sS'hike2117'
p793
S'Blue Gate to Old Timber to Wolf Ridge to Beaver Loop'
p794
sS'hike2116'
p795
S'Raven Trail'
p796
sS'hike1129'
p797
S'Trillium Trail Loop'
p798
sS'hike1128'
p799
S'Beaver Lake Park Trail'
p800
sS'hike1121'
p801
S'Ruby Mountain Summit via Fourth of July and Thunder Creek Trail '
p802
sS'hike1120'
p803
S'Cedar River Trail-East End'
p804
sS'hike1123'
p805
S'Dosweallips Road to Constance Pass Trail'
p806
sS'hike1122'
p807
S'Falls Creek via Quinault Loop Trail'
p808
sS'hike1125'
p809
S'Cathedral Rock Trail'
p810
sS'hike1124'
p811
S'Windy Pass via the PCT'
p812
sS'hike1127'
p813
S'Hozomeen Lake Trail'
p814
sS'hike1126'
p815
S'Kanaskat-Palmer Loop'
p816
sS'hike2209'
p817
S'Marine Loop Trail'
p818
sS'hike2208'
p819
S'Celebration Park Trail'
p820
sS'hike2205'
p821
S'Sand Creek and Devils Gulch OHV Trail '
p822
sS'hike2204'
p823
S'Seaquest #1, #1A, #8 #2 Loop'
p824
sS'hike2207'
p825
S'Evergreen State College Trail'
p826
sS'hike2206'
p827
S'Ephemeral to Big Leaf Trail Loop'
p828
sS'hike2201'
p829
S'Roche Harbor Lake Loop'
p830
sS'hike2200'
p831
S'Crowell Ridge Trail #515'
p832
sS'hike2203'
p833
S'Surprise Creek Trail'
p834
sS'hike2202'
p835
S'Ranch Trail'
p836
sS'hike1019'
p837
S'Lake Elizabeth Trail'
p838
sS'hike1018'
p839
S'Trillium Trail'
p840
sS'hike1015'
p841
S'South Beach and Hidden Valley Loop Trail'
p842
sS'hike1014'
p843
S'Castle Rock'
p844
sS'hike1017'
p845
S'Phillip Arnold Park (The Tapeworm and Parasite Trails)'
p846
sS'hike1016'
p847
S'Klickitat River Trail'
p848
sS'hike1011'
p849
S'Tieton Nature Trail'
p850
sS'hike1010'
p851
S'Golden Gardens Trail'
p852
sS'hike1013'
p853
S'Cherry Creek Falls Trail [PRIVATE PROPERTY]'
p854
sS'hike1012'
p855
S'Rattlesnake Lake Trail'
p856
sS'hike692'
p857
S'Merritt Lake Trail'
p858
sS'hike1301'
p859
S'Spokane River Walk'
p860
sS'hike1300'
p861
S'Falls Creek Trail Winter Route'
p862
sS'hike1303'
p863
S'Merrill Lake Campground'
p864
sS'hike1302'
p865
S'Wildside Trail to Shy Bear Trail to Cave Hole Trail '
p866
sS'hike1305'
p867
S'Irely Lake Trail'
p868
sS'hike1304'
p869
S'Spada Lake Culmback Dam Trail'
p870
sS'hike1307'
p871
S'Holder Ridge, Road A, Road F and Whiskey Still Loop'
p872
sS'hike1306'
p873
S'Hog Lake Loop'
p874
sS'hike1309'
p875
S'Licorice Fern Trail'
p876
sS'hike1308'
p877
S'Steptoe Butte'
p878
sS'hike338'
p879
S'Centennial Trail'
p880
sS'hike339'
p881
S'Mercer Slough Nature Park'
p882
sS'hike998'
p883
S'Alger Alps'
p884
sS'hike999'
p885
S'Tin Mine Trail and Davis Trail Loop'
p886
sS'hike996'
p887
S'Fish Lake Trail'
p888
sS'hike333'
p889
S'Alki Trail'
p890
sS'hike330'
p891
S'Pinnacle Lake Trail'
p892
sS'hike995'
p893
S'Zig Zag Lake Trail'
p894
sS'hike336'
p895
S"Herman's Peak"
p896
sS'hike337'
p897
S'Chanterelle Trail'
p898
sS'hike334'
p899
S'Lodge Lake Trail'
p900
sS'hike335'
p901
S'Chenuis Falls Trail'
p902
sS'hike512'
p903
S'Hyas Lake Trail'
p904
sS'hike513'
p905
S'Racehorse Falls Trail'
p906
sS'hike510'
p907
S'Hex Mountain Trail'
p908
sS'hike511'
p909
S'Padilla Bay Trail'
p910
sS'hike516'
p911
S'Beacon Hill Trail'
p912
sS'hike517'
p913
S'Easy Pass Trail'
p914
sS'hike514'
p915
S'Mount Washington'
p916
sS'hike515'
p917
S'Hugo Peak Trail'
p918
sS'hike1837'
p919
S'Buck Mountain Loop Trail'
p920
sS'hike1836'
p921
S'The Winthrop Trail'
p922
sS'hike518'
p923
S'Black and White Lakes Primitive Trail'
p924
sS'hike1834'
p925
S'Stevens Pass Scenic Byway'
p926
sS'hike1833'
p927
S'Quartz Creek Trail #5 and #5b'
p928
sS'hike1832'
p929
S'Ravensdale'
p930
sS'hike1831'
p931
S'Fay Peak Trail'
p932
sS'hike1830'
p933
S'Tumwater Hill Park Trail '
p934
sS'hike196'
p935
S'Coldwater Lake Trail'
p936
sS'hike197'
p937
S'Ellis Cove Trail'
p938
sS'hike194'
p939
S'Bowl and Pitcher Loop Trail'
p940
sS'hike195'
p941
S'Tiger Mountain Trail: Preston Railroad Grade to Silent Swamp and Joyride to Northwest Timber'
p942
sS'hike192'
p943
S'Seward Park Perimeter Loop'
p944
sS'hike193'
p945
S'Lake Stuart Trail'
p946
sS'hike190'
p947
S'Cascade Pass and Sahale Arm Trail'
p948
sS'hike191'
p949
S'Rocks of Sharon Trail'
p950
sS'hike198'
p951
S'Hidden Falls via Tarbell Trail '
p952
sS'hike199'
p953
S'Japanese Gulch Loop Trail'
p954
sS'hike426'
p955
S'Shriner Peak Lookout Trail'
p956
sS'hike427'
p957
S'Lower Falls Recreation Area Campground'
p958
sS'hike424'
p959
S'Illahee Preserve Loop Trail'
p960
sS'hike425'
p961
S'Manastash Ridge Trail'
p962
sS'hike422'
p963
S'West Tiger #3'
p964
sS'hike423'
p965
S'Goat Creek Trail'
p966
sS'hike420'
p967
S'Bare Mountain Trail'
p968
sS'hike421'
p969
S'Copper Creek Trail'
p970
sS'hike428'
p971
S'Lower South Fork Skokomish Trail'
p972
sS'hike429'
p973
S'Little Mountain Park Loop'
p974
sS'hike332'
p975
S'Evans Creek Preserve Trail'
p976
sS'hike608'
p977
S'Saltese Uplands Loop'
p978
sS'hike997'
p979
S'Beach Trail 2'
p980
sS'hike606'
p981
S'Titlow Park'
p982
sS'hike607'
p983
S'Lake Ann Trail'
p984
sS'hike604'
p985
S'Fourth of July Creek Trail to Icicle Ridge'
p986
sS'hike605'
p987
S'Beacon Hill Loop from Shields Park Trailhead'
p988
sS'hike602'
p989
S'Mount Forgotten Meadows Trail'
p990
sS'hike994'
p991
S'PCT: WA Section I - Highway 12 to Snoqualmie Pass'
p992
sS'hike600'
p993
S'Trail of the Cedars Nature Walk  '
p994
sS'hike601'
p995
S'Madcap Falls Trail'
p996
sS'hike331'
p997
S'Cutthroat Lake and Cutthroat Pass'
p998
sS'hike992'
p999
S'North Fork of the Sol Duc Trail'
p1000
sS'hike993'
p1001
S'Tacoma Narrows Bridge'
p1002
sS'hike990'
p1003
S'Spade Lake Trail'
p1004
sS'hike991'
p1005
S'Shangri La Trail to West Tibbetts Creek Trail and Tibbetts Marsh'
p1006
sS'hike1499'
p1007
S'Seep Lakes Wildlife Area Trails'
p1008
sS'hike1498'
p1009
S'Lower Coal Creek Trail'
p1010
sS'hike1491'
p1011
S'Conrad Meadows Trail'
p1012
sS'hike1490'
p1013
S'Ironstone Mountain Trail'
p1014
sS'hike1493'
p1015
S'Monte Carlo Trail'
p1016
sS'hike1492'
p1017
S'Skagit River Delta Trail'
p1018
sS'hike1495'
p1019
S'Pioneer Park'
p1020
sS'hike1494'
p1021
S'Leadbetter Point Trail'
p1022
sS'hike1497'
p1023
S'Kloochman Rock Climb'
p1024
sS'hike1496'
p1025
S'Harper Park Trail'
p1026
sS'hike1947'
p1027
S'Nature Trail, Cairn, and Sidekick Loop'
p1028
sS'hike1946'
p1029
S'Tokul Walking Trail'
p1030
sS'hike1945'
p1031
S'Three Way Peak'
p1032
sS'hike1944'
p1033
S'La Center Bottoms'
p1034
sS'hike1943'
p1035
S'Lemei Lake Trail via East Crater Trail'
p1036
sS'hike1942'
p1037
S'Pacific Crest Trail from Panther Creek'
p1038
sS'hike1941'
p1039
S'Bovies Meadow Trail'
p1040
sS'hike1940'
p1041
S'Wildflower Loop Trail'
p1042
sS'hike1440'
p1043
S'Junction Lake via East Crater Trail'
p1044
sS'hike1949'
p1045
S'Blackhorse Lake Hiking Trail'
p1046
sS'hike1948'
p1047
S'Kalama Marina and River Walk'
p1048
sS'hike1441'
p1049
S'Scatter Lake Trail'
p1050
sS'hike1839'
p1051
S'Placid Lake Trail'
p1052
sS'hike1446'
p1053
S'Woods Creek Watchable Wildlife Trail'
p1054
sS'hike1838'
p1055
S'Damfino Lakes Trail to Excelsior Peak'
p1056
sS'hike1447'
p1057
S'Middle Trail and Beaver Ponds Trail Loop '
p1058
sS'hike163'
p1059
S'Cal Magnusson Trail'
p1060
sS'hike1444'
p1061
S'Plummer and Beaver Pond Trail'
p1062
sS'hike162'
p1063
S'Cascade Pass Trail to Cottonwood Camp'
p1064
sS'hike1445'
p1065
S'Middle Point Trail to Ski Bluewood'
p1066
sS'hike693'
p1067
S'Blake Island State Park Trails'
p1068
sS'hike519'
p1069
S'Easton Glacier via Railroad Grade Trail'
p1070
sS'hike695'
p1071
S'Patterson Mountain Trail'
p1072
sS'hike694'
p1073
S'South Beach Trail'
p1074
sS'hike165'
p1075
S'Gold Creek Pond Trail'
p1076
sS'hike164'
p1077
S'Melmont Ghost Town via Foothills Trail'
p1078
sS'hike1549'
p1079
S'Red Mountain via Pacific Crest and Indian Race Track Loop'
p1080
sS'hike1548'
p1081
S'Huntoon Trail and Douglas Fir Trail Loop'
p1082
sS'hike1543'
p1083
S'Little Ranger Peak Trail'
p1084
sS'hike1542'
p1085
S'Klonaqua Lakes'
p1086
sS'hike1541'
p1087
S'Shorthorn Trail'
p1088
sS'hike1540'
p1089
S'Banner Forest Mountain Bike Loop'
p1090
sS'hike1547'
p1091
S'Sultan Basin Trails'
p1092
sS'hike1546'
p1093
S'Mount Bonaparte Trail'
p1094
sS'hike1545'
p1095
S'Terrell Marsh Trail'
p1096
sS'hike1544'
p1097
S'Similkameen Trail'
p1098
sS'hike2168'
p1099
S'Cascade Lake Lagoon'
p1100
sS'hike2169'
p1101
S"Grandma's Cove"
p1102
sS'hike2164'
p1103
S'Coal Mine and West Access Trail'
p1104
sS'hike2165'
p1105
S'Riverview Playfield Trail'
p1106
sS'hike2166'
p1107
S'Blazed Ridge and Bear Creek Loop'
p1108
sS'hike2167'
p1109
S'Vashon Beach Walk'
p1110
sS'hike2160'
p1111
S'Equestrian Loop'
p1112
sS'hike2161'
p1113
S'May Creek Loop'
p1114
sS'hike2162'
p1115
S'Rimrock Drive'
p1116
sS'hike2163'
p1117
S'Black Jack Ridge Trail'
p1118
sS'hike1158'
p1119
S'Teddy Bear Cove via Interurban Trail '
p1120
sS'hike1159'
p1121
S'Mount Aix Trail'
p1122
sS'hike1154'
p1123
S'Wonderland Trail Loop'
p1124
sS'hike1155'
p1125
S'Pinnacle Peak Full Loop'
p1126
sS'hike1156'
p1127
S'Indian Bar Trail'
p1128
sS'hike1157'
p1129
S'Six Summits Trail'
p1130
sS'hike1150'
p1131
S'Nordic Pass Trail'
p1132
sS'hike1151'
p1133
S'Squaw Lake Via Cathedral Pass Trail'
p1134
sS'hike1152'
p1135
S'Hansville Greenway Trail'
p1136
sS'hike1153'
p1137
S'Seven Mile Loop'
p1138
sS'hike1798'
p1139
S'Uplands Loop: Short Draw, Summit and Turtle Gulch Trails'
p1140
sS'hike1799'
p1141
S'West Tiger #1 via Preston and Tiger Mountain Trail Loop'
p1142
sS'hike1792'
p1143
S'Golden Lakes Loop'
p1144
sS'hike1793'
p1145
S'Sand Lake Trail'
p1146
sS'hike1790'
p1147
S'Three Peaks Trail to Lost Lake'
p1148
sS'hike1791'
p1149
S'Swamp Lake Trail'
p1150
sS'hike1796'
p1151
S'Military Road Trail'
p1152
sS'hike1797'
p1153
S"Mount Rainier Overlook via River and Katie's Trail"
p1154
sS'hike1794'
p1155
S'Ravenna Creek Trail'
p1156
sS'hike1795'
p1157
S'Green River Trail: Tukwila Section'
p1158
sS'hike2304'
p1159
S'Big Rock Trail [CLOSED / PRIVATE PROPERTY]'
p1160
sS'hike2305'
p1161
S'Lopez Hill Loop'
p1162
sS'hike2306'
p1163
S'Maple Leaf Resevoir Park'
p1164
sS'hike2307'
p1165
S'kaniksu Road'
p1166
sS'hike2300'
p1167
S'Gravel Pit via Prairie Road'
p1168
sS'hike2301'
p1169
S'Imus Creek Trail'
p1170
sS'hike859'
p1171
S'Loop Trail via West Emerson Street Entrance'
p1172
sS'hike858'
p1173
S'Beacon Hill Loop from Camp Sekani Trailhead'
p1174
sS'hike857'
p1175
S'Northrup Canyon'
p1176
sS'hike856'
p1177
S'Coleman Glacier Via Heliotrope Ridge Trail'
p1178
sS'hike855'
p1179
S'Goat Marsh'
p1180
sS'hike854'
p1181
S'Blanchard Hill Loop'
p1182
sS'hike853'
p1183
S'Baker Hot Springs'
p1184
sS'hike852'
p1185
S'Suntop Trail'
p1186
sS'hike851'
p1187
S'Chinook Trail: Section One'
p1188
sS'hike850'
p1189
S'Iceberg Point Trail'
p1190
sS'hike1374'
p1191
S'Shady Lane Trail'
p1192
sS'hike1375'
p1193
S'Sares Head'
p1194
sS'hike1376'
p1195
S'North Rim Trail to Rock Candy Mountain East Trail'
p1196
sS'hike1377'
p1197
S'Mount Erie and Whistle Lake Loop'
p1198
sS'hike1370'
p1199
S'West Lake Mills Trail'
p1200
sS'hike1371'
p1201
S'Peek-A-Boo Lake Trail'
p1202
sS'hike1372'
p1203
S'Pratt Lake Trail via Mason Lake Trail'
p1204
sS'hike1373'
p1205
S'Dishman Hills Pond Loop Trail'
p1206
sS'hike1378'
p1207
S'North Beach Park to Glass Beach'
p1208
sS'hike1379'
p1209
S'Green River Trail'
p1210
sS'hike295'
p1211
S'Sheep Lake Trail'
p1212
sS'hike294'
p1213
S'Thunder Mountain Lakes Trail'
p1214
sS'hike297'
p1215
S'Sammamish River Trail'
p1216
sS'hike296'
p1217
S'Whistle Lake Trail'
p1218
sS'hike291'
p1219
S'Red Mountain via Old Commonwealth Trail'
p1220
sS'hike290'
p1221
S"Heart O' the Forest Trail"
p1222
sS'hike293'
p1223
S'Boulder Cave Trail'
p1224
sS'hike292'
p1225
S'Pete Lake'
p1226
sS'hike299'
p1227
S'West Tiger # 3 via Cable Line Trail Loop'
p1228
sS'hike298'
p1229
S'Gillette Lake'
p1230
sS'hike1297'
p1231
S'Lower Elkspur and Beaver Creek Loop'
p1232
sS'hike1208'
p1233
S'Shipwreck Coast'
p1234
sS'hike1209'
p1235
S'Observation Peak via Observation Trail #132'
p1236
sS'hike1200'
p1237
S'Shark Reef Recreation Area'
p1238
sS'hike1201'
p1239
S'Evergreen Beach Trail'
p1240
sS'hike1202'
p1241
S'Long View Peak Trail'
p1242
sS'hike1203'
p1243
S'Fort Cascades Trail'
p1244
sS'hike1204'
p1245
S'Mainline Trail'
p1246
sS'hike1205'
p1247
S'Norway Pass Trail Out-and-Back'
p1248
sS'hike1206'
p1249
S'Main Fork Dosewallips River Trail'
p1250
sS'hike1207'
p1251
S'Lower Falls via Lake to Lake Trail'
p1252
sS'hike1802'
p1253
S'Juniper Dunes Wilderness Area'
p1254
sS'hike1803'
p1255
S'Maiden Peak from Deer Park Campground'
p1256
sS'hike1800'
p1257
S'Gee Point Trail'
p1258
sS'hike1801'
p1259
S'Jones Island'
p1260
sS'hike1806'
p1261
S'Red Bluff Trail (#533)'
p1262
sS'hike1807'
p1263
S'Trout Loop Trail'
p1264
sS'hike1804'
p1265
S'Juanita Beach Loop'
p1266
sS'hike1805'
p1267
S'Driveway Butte Trail'
p1268
sS'hike1808'
p1269
S'Greenbelt Walkway Trail'
p1270
sS'hike1809'
p1271
S'Westport Lighthouse Trail'
p1272
sS'hike1295'
p1273
S'Shadow Mountain Loop Trail'
p1274
sS'hike565'
p1275
S'Lake Lenore Caves'
p1276
sS'hike453'
p1277
S'Des Moines Creek Trail'
p1278
sS'hike452'
p1279
S'Flaming Geyser State Park Trail'
p1280
sS'hike451'
p1281
S'Lily and Lizard Lakes Loop Trail'
p1282
sS'hike450'
p1283
S'Boundary Trail to Coldwater Peak'
p1284
sS'hike457'
p1285
S'Chuckanut Mountain'
p1286
sS'hike456'
p1287
S'Iron Creek Falls Trail'
p1288
sS'hike455'
p1289
S'Bellevue Botanical Park and Wilburton Hill Park'
p1290
sS'hike454'
p1291
S'Frenchman Coulee'
p1292
sS'hike459'
p1293
S'Humes Ranch Loop Trail'
p1294
sS'hike458'
p1295
S'Cascade Pass Trail'
p1296
sS'hike1457'
p1297
S'Steam Hoist Trail'
p1298
sS'hike609'
p1299
S'Mount Muller Trail'
p1300
sS'hike679'
p1301
S'Pass Lake Loop Trail to Ginnet Trail Loop'
p1302
sS'hike678'
p1303
S'Grand Lake via Badger Valley Trail'
p1304
sS'hike673'
p1305
S'Mazama Ridge Trail to Faraway Rock'
p1306
sS'hike672'
p1307
S'Gladys Divide Primitive Trail'
p1308
sS'hike671'
p1309
S'Tolt-MacDonald Overlook'
p1310
sS'hike670'
p1311
S'Fallsview Canyon Trail'
p1312
sS'hike677'
p1313
S'Bullitt Access Loop'
p1314
sS'hike676'
p1315
S'Round Lake and Camas Potholes Falls via Lacmas Creek'
p1316
sS'hike675'
p1317
S'Shoreview and Boeing Creek Loop'
p1318
sS'hike674'
p1319
S'Puget Park Trail'
p1320
sS'hike603'
p1321
S'Old Snowy Mountain via Snowgrass Trail'
p1322
sS'hike569'
p1323
S'Bagley Creek Loop Trail'
p1324
sS'hike568'
p1325
S'Hannegan Peak Trail'
p1326
sS'hike1978'
p1327
S'Bunker Hill Trail  '
p1328
sS'hike1979'
p1329
S'Westside Road and South Puyallup Trail '
p1330
sS'hike1972'
p1331
S'Coupeville Coast to Coast '
p1332
sS'hike1973'
p1333
S'Kirkland Waterfront'
p1334
sS'hike1970'
p1335
S"Heli's Pond Loop"
p1336
sS'hike1971'
p1337
S'Lynnwood Golf Course Walk'
p1338
sS'hike1976'
p1339
S'Piper\xe2\x80\x99s Creek and North Traverse Trail Loop '
p1340
sS'hike1977'
p1341
S'Robinson Canyon Loop'
p1342
sS'hike1974'
p1343
S'Crown Point Vista'
p1344
sS'hike1975'
p1345
S'Perkins Pond Nature Trail'
p1346
sS'hike707'
p1347
S"Mount Daniel and Peggy's Pond via Cathedral Pass Trail"
p1348
sS'hike706'
p1349
S'Easton Ridge Trail'
p1350
sS'hike705'
p1351
S'Harmony Trail'
p1352
sS'hike704'
p1353
S'Jim Martinson Exercise Trail'
p1354
sS'hike703'
p1355
S'Point No Point Lighthouse and Park Trail'
p1356
sS'hike702'
p1357
S'Grand Prospect Via Rattlesnake Mountain Trail'
p1358
sS'hike701'
p1359
S'Obstruction Pass Trail'
p1360
sS'hike700'
p1361
S'Round Mountain Trail'
p1362
sS'hike709'
p1363
S'Olallie Lake via Pratt Lake Trail'
p1364
sS'hike708'
p1365
S'Maury Island Natural Area Loop'
p1366
sS'hike1578'
p1367
S'Squire Creek Trail'
p1368
sS'hike1579'
p1369
S'Lake Samammish Kayak'
p1370
sS'hike1576'
p1371
S'Copper Ridge Trail To Copper Lake'
p1372
sS'hike1577'
p1373
S'Little Divide Loop'
p1374
sS'hike1574'
p1375
S'Tunnel Creek Trail to Hope Lake'
p1376
sS'hike1575'
p1377
S'Narbeck Sanctuary Boardwalk Loop'
p1378
sS'hike1572'
p1379
S'Devils Gulch'
p1380
sS'hike1573'
p1381
S'King County Interurban Trail'
p1382
sS'hike1570'
p1383
S'Rocky Top to Cowiche Mountain'
p1384
sS'hike1571'
p1385
S'Victor Falls Trail'
p1386
sS'hike2179'
p1387
S'Putney Woods Loop'
p1388
sS'hike2178'
p1389
S'Pompey Peak via Forest Road #2304'
p1390
sS'hike2177'
p1391
S'Silent Creek Trail and Deep Creek Trail'
p1392
sS'hike2176'
p1393
S'Beach Walk and Frog Pond Trail'
p1394
sS'hike2175'
p1395
S'Old School to Jackleg to Mainline Loop'
p1396
sS'hike2174'
p1397
S'Sentinel Mountain OHV Loop'
p1398
sS'hike2173'
p1399
S'Vance Creek Bridge [PRIVATE PROPERTY]'
p1400
sS'hike2172'
p1401
S'Canal Lake'
p1402
sS'hike2171'
p1403
S'Bird Mountain Trail'
p1404
sS'hike2170'
p1405
S'Nine Mile Dam Overlook via Centennial Trail'
p1406
sS'hike1149'
p1407
S'Kelcema Lake Trail'
p1408
sS'hike1148'
p1409
S'Trail of the Deer and Old Growth Forest Trail Loop'
p1410
sS'hike1147'
p1411
S'Ranger Hole Trail'
p1412
sS'hike1146'
p1413
S'John MacDonald Park Mountain Bike Trails Loop'
p1414
sS'hike1145'
p1415
S'North Twin: West Ridge'
p1416
sS'hike1144'
p1417
S'Shannon Ridge Trail'
p1418
sS'hike1143'
p1419
S'360 Project Main Trail'
p1420
sS'hike1142'
p1421
S'Flying EagleTrail to Beaver Loop and Big Cedar Loop Trail'
p1422
sS'hike1141'
p1423
S'Juanita Bay Park'
p1424
sS'hike1140'
p1425
S'Fishtrap Lake'
p1426
sS'hike1789'
p1427
S'Cowlitz Divide Trail'
p1428
sS'hike1788'
p1429
S'Meta Lake Trail'
p1430
sS'hike1785'
p1431
S'Clallam Bay to Neah Bay Scenic Drive'
p1432
sS'hike1784'
p1433
S'Moss Lake Loop'
p1434
sS'hike1787'
p1435
S'Happy Creek Falls'
p1436
sS'hike1786'
p1437
S'Klondike Swamp Trail'
p1438
sS'hike1781'
p1439
S'Meander Meadow Kodak Peak Trail'
p1440
sS'hike1780'
p1441
S'Dalles Ridge Trail Via Noble Knob Trail'
p1442
sS'hike1783'
p1443
S"Friend's Landing Trail"
p1444
sS'hike1782'
p1445
S'Carne Mountain Basin'
p1446
sS'hike1323'
p1447
S'Larry Scott Trail'
p1448
sS'hike881'
p1449
S'Plummer Peak via Pinnacle Peak Trail'
p1450
sS'hike882'
p1451
S'Birth of a Lake Trail'
p1452
sS'hike1320'
p1453
S'Vanson Peak Trail Via Goat Creek Trail Loop'
p1454
sS'hike1327'
p1455
S'Lake Edna via Chatter Creek Trail'
p1456
sS'hike885'
p1457
S'Evans Creek OHV Loop '
p1458
sS'hike1325'
p1459
S'Aurora Ridge Trail'
p1460
sS'hike1324'
p1461
S'Council Bluff Trail'
p1462
sS'hike98'
p1463
S'Iron Goat Trail'
p1464
sS'hike99'
p1465
S'Mount Dickerman Trail'
p1466
sS'hike94'
p1467
S'Park Butte Lookout Trail '
p1468
sS'hike95'
p1469
S"Margaret's Way Trail"
p1470
sS'hike96'
p1471
S'Fragrance Lake Trail'
p1472
sS'hike97'
p1473
S'Iller Creek Conservation Area Trail'
p1474
sS'hike90'
p1475
S'Wind Mountain Trail'
p1476
sS'hike91'
p1477
S'Lake to Lake Trail, Red Tape Trail, Palmer Trail to Round Lake Loop'
p1478
sS'hike92'
p1479
S'Diablo Lake Trail'
p1480
sS'hike93'
p1481
S'Palouse Falls Trail'
p1482
sS'hike2317'
p1483
S'Off The Grid Cahill  [PRIVATE PROPERTY]'
p1484
sS'hike2316'
p1485
S'Loch Eileen Trail [CLOSED]'
p1486
sS'hike2315'
p1487
S'Three Corner Rock Trail [CLOSED]'
p1488
sS'hike2314'
p1489
S'Warm Beach Trail [PRIVATE PROPERTY]'
p1490
sS'hike2313'
p1491
S'Pioneer Trails [PRIVATE PROPERTY]'
p1492
sS'hike2312'
p1493
S'Wenas OHV Loop'
p1494
sS'hike2311'
p1495
S'Rock Candy Mountain and Wet Cap Forest OHV Loop'
p1496
sS'hike2310'
p1497
S'Canyon Lake Trail [PRIVATE PROPERTY]'
p1498
sS'hike844'
p1499
S'Pipeline Loop to the 360 Viewpoint'
p1500
sS'hike845'
p1501
S'Grasshopper Pass via the PCT'
p1502
sS'hike846'
p1503
S'Squak Mountain Road to Bullitt Gorge Trail Loop'
p1504
sS'hike847'
p1505
S'Rocky Brook Falls Trail'
p1506
sS'hike840'
p1507
S'Goat Peak Lookout Trail'
p1508
sS'hike841'
p1509
S'Ipsut Creek Campground via Carbon River Trail '
p1510
sS'hike842'
p1511
S'Pyramid Lake Trail'
p1512
sS'hike843'
p1513
S'Lake George Trail'
p1514
sS'hike1367'
p1515
S'Upper Wheeler Reservior'
p1516
sS'hike1366'
p1517
S'Bainbridge Island Waterfront Trail'
p1518
sS'hike1365'
p1519
S'Cady Ridge Trail'
p1520
sS'hike1364'
p1521
S'Mount Carrie: High Divide Trail Route'
p1522
sS'hike1363'
p1523
S'Mount Spokane Summit - Saddle Junction Trail'
p1524
sS'hike1362'
p1525
S'Paddy-Go-Easy Pass Trail'
p1526
sS'hike1361'
p1527
S'Black Lake'
p1528
sS'hike1360'
p1529
S'360 Project MTB Loop'
p1530
sS'hike1369'
p1531
S'Main Trail and Pipeline Trail Loop'
p1532
sS'hike1368'
p1533
S'Sunrise Peak Trail'
p1534
sS'hike282'
p1535
S'Malachite Lake via West Fork Foss Lakes Trail'
p1536
sS'hike283'
p1537
S'Silver Lake Way Trail'
p1538
sS'hike280'
p1539
S'Quinault River Pony Bridge Trail'
p1540
sS'hike281'
p1541
S'Kendall Peak Lakes Trail'
p1542
sS'hike286'
p1543
S'North Siouxon Creek to Black Hole Falls'
p1544
sS'hike287'
p1545
S'Skookum Flats Trail'
p1546
sS'hike284'
p1547
S'McDonald Mountain Trail'
p1548
sS'hike285'
p1549
S'De Leo Wall Trail'
p1550
sS'hike288'
p1551
S'Mud Mountain Rim Trail'
p1552
sS'hike289'
p1553
S"Trillium Trail and Siler's Mill Trail"
p1554
sS'hike1219'
p1555
S'West Tiger 3, Talus Rocks, Section Line and Bus Trail Loop'
p1556
sS'hike1218'
p1557
S'Round Lake Via Lost Creek Ridge Trail'
p1558
sS'hike1213'
p1559
S'Rainbow Falls State Park Loop Trail'
p1560
sS'hike1212'
p1561
S'The Mount Spokane Loop Summer Route'
p1562
sS'hike1211'
p1563
S'Camas Potholes and Waterfall Loop via Lake to Lake Trail'
p1564
sS'hike1210'
p1565
S'Curly Creek Falls Via Lewis River Trail'
p1566
sS'hike1217'
p1567
S'Augspurger Mountain Trail'
p1568
sS'hike1216'
p1569
S'Kennedy Falls Trail '
p1570
sS'hike1215'
p1571
S'Heritage Park Trail'
p1572
sS'hike1214'
p1573
S'Lake Dorothy, Bear Lake, Deer Lake, Snoqualmie Lake via Dorothy Lake Trail'
p1574
sS'hike1815'
p1575
S'Stetattle Trail'
p1576
sS'hike1814'
p1577
S'McNary Wildlife Nature Loop'
p1578
sS'hike1817'
p1579
S'Chico Trail and South Loop'
p1580
sS'hike1816'
p1581
S'Downtown Park Loop'
p1582
sS'hike1811'
p1583
S'Port Angeles Waterfront'
p1584
sS'hike1810'
p1585
S'Possession Point State Park Loop'
p1586
sS'hike1813'
p1587
S'BPA Trail'
p1588
sS'hike1812'
p1589
S'PCT:  Smith Brook to Stevens Pass'
p1590
sS'hike1819'
p1591
S'Anti-Aircraft Ridge Trail and Tibbetts Marsh Trail'
p1592
sS'hike1818'
p1593
S'Mount Shuksan Sulphide Glacier'
p1594
sS'hike76'
p1595
S'Mount Townsend Trail'
p1596
sS'hike77'
p1597
S"Harry's Ridge Trail"
p1598
sS'hike74'
p1599
S'Boulder River Trail'
p1600
sS'hike75'
p1601
S'Mailbox Peak (Old) Trail'
p1602
sS'hike72'
p1603
S'Ruby Beach'
p1604
sS'hike73'
p1605
S'Mount Fremont Lookout Trail'
p1606
sS'hike70'
p1607
S'Meadowdale Beach Trails'
p1608
sS'hike71'
p1609
S'Teneriffe Falls via Mount Si Trailhead'
p1610
sS'hike78'
p1611
S'Blue Lake Trail'
p1612
sS'hike79'
p1613
S'Falls Creek Trail Loop'
p1614
sS'hike440'
p1615
S'Granite Falls (Fish Ladder) Trail'
p1616
sS'hike441'
p1617
S'Waughop Lake Loop '
p1618
sS'hike442'
p1619
S'Deer Lake Trail'
p1620
sS'hike443'
p1621
S'Dege Peak Trail'
p1622
sS'hike444'
p1623
S'Penrose Point State Park Trail'
p1624
sS'hike445'
p1625
S'Kubota Garden Natural Area Trails'
p1626
sS'hike446'
p1627
S'Lookout Mountain'
p1628
sS'hike447'
p1629
S'Echo Lake via Greenwater Trail'
p1630
sS'hike448'
p1631
S'Gazzam Lake Park Trail'
p1632
sS'hike449'
p1633
S'Mima Falls Loop'
p1634
sS'hike668'
p1635
S'Cape Disappointment Lighthouse Trail'
p1636
sS'hike669'
p1637
S'Trail of Two Forests Trail '
p1638
sS'hike1443'
p1639
S'Pend Oreille Pathfinder Loop'
p1640
sS'hike660'
p1641
S'Cedar Falls Trail'
p1642
sS'hike661'
p1643
S'Third Beach to Hoh River'
p1644
sS'hike662'
p1645
S'Cora Lake Trail'
p1646
sS'hike663'
p1647
S'Tolt Pipeline Trail'
p1648
sS'hike664'
p1649
S'Blue Lake and Dock Butte Trail'
p1650
sS'hike665'
p1651
S'Mount Baker Standard Summit Route'
p1652
sS'hike666'
p1653
S'Lava Canyon Suspension Bridge'
p1654
sS'hike667'
p1655
S'Ancient Groves Nature Trail'
p1656
sS'hike1969'
p1657
S'Dege Peak and Frozen Lake via Sourdough Ridge Trail'
p1658
sS'hike1968'
p1659
S'Mismash Loop'
p1660
sS'hike1965'
p1661
S'Pinecliff Trail Loop'
p1662
sS'hike1964'
p1663
S'Mineral Creek Trail'
p1664
sS'hike1967'
p1665
S'Seaquest #8, #5, #6, #7 Loop'
p1666
sS'hike1966'
p1667
S'Road 6310: Jumpoff Ridge Trail'
p1668
sS'hike1961'
p1669
S'South Bessemer Mountain Trail'
p1670
sS'hike1960'
p1671
S'Baldy Pass'
p1672
sS'hike1963'
p1673
S'Beal Hill Loop'
p1674
sS'hike1962'
p1675
S'Pipeline, Temple Pond and Quarry Loop '
p1676
sS'hike714'
p1677
S'Big Tree Ridge Trail'
p1678
sS'hike715'
p1679
S'Cushman Trail'
p1680
sS'hike716'
p1681
S'Hood Canal and Theler Wetlands Trails'
p1682
sS'hike717'
p1683
S'Fletcher Canyon Trail'
p1684
sS'hike710'
p1685
S'Talapus Lake via Pratt Lake Trail'
p1686
sS'hike711'
p1687
S'Erie Mountain Via Whistle Lake Trail'
p1688
sS'hike712'
p1689
S'North Fork Skokomish River Trail'
p1690
sS'hike713'
p1691
S'Weldon Wagon Road Trail'
p1692
sS'hike718'
p1693
S'Lower Big Quilcene Trail'
p1694
sS'hike719'
p1695
S'Soda Peaks Lake Trail West'
p1696
sS'hike1561'
p1697
S'Drive to the Top of Mount Spokane'
p1698
sS'hike1560'
p1699
S'Elbow Lake Trail'
p1700
sS'hike1563'
p1701
S'Snoqualmie Falls Viewpoint via Preston-Snoqualmie Trail '
p1702
sS'hike1562'
p1703
S'Valhalla Lake Via Pacific Crest Trail'
p1704
sS'hike1565'
p1705
S'Sand Point Trail to North Coast Beach Travelway'
p1706
sS'hike1564'
p1707
S'Issaquah Highlands Loop'
p1708
sS'hike1567'
p1709
S'Cave B Waterfall Trail'
p1710
sS'hike1566'
p1711
S'Five Mile Drive'
p1712
sS'hike1569'
p1713
S'Mimzie Loop'
p1714
sS'hike1568'
p1715
S'Saddle Rock to Green Shack'
p1716
sS'hike2142'
p1717
S'Muddy Meadows Trail'
p1718
sS'hike2143'
p1719
S'Trail 25 and 410 Loop'
p1720
sS'hike2140'
p1721
S'Ray Trail'
p1722
sS'hike2141'
p1723
S'Goat Mountain and Green River Loop Trail'
p1724
sS'hike2146'
p1725
S'Squak Mountain Connector Trail'
p1726
sS'hike2147'
p1727
S'Big Flat '
p1728
sS'hike2144'
p1729
S'Harvey Creek'
p1730
sS'hike2145'
p1731
S'Newcastle Highlands to De Leo Wall Loop'
p1732
sS'hike2148'
p1733
S'Capitol Forest Loop from Mima Falls Trailhead'
p1734
sS'hike2149'
p1735
S'Mount Maude via Phelps Creek Trail'
p1736
sS'hike1172'
p1737
S'Waughop Lake Trail'
p1738
sS'hike1173'
p1739
S'Riverside State Park Rattlesnake Trail'
p1740
sS'hike1170'
p1741
S'Sauk Lake Trail'
p1742
sS'hike1171'
p1743
S'Big Creek Falls Trail'
p1744
sS'hike1176'
p1745
S'Upper South Fork Skokomish Trail'
p1746
sS'hike1177'
p1747
S'Lost Lake Trail, Woodpecker Trail, Erratic Trail, Windfall Trail Loop'
p1748
sS'hike1174'
p1749
S'De Roux Trail'
p1750
sS'hike1175'
p1751
S'Point of the Arches Trail'
p1752
sS'hike1178'
p1753
S'Deception Crags  Trail'
p1754
sS'hike1179'
p1755
S'Swan Creek Canyon Rim Trail'
p1756
sS'hike1770'
p1757
S'Glacier Basin to Burroughs Mountain to Wonderland Trail Loop'
p1758
sS'hike1771'
p1759
S'Quartz Creek Big Trees Trail'
p1760
sS'hike1772'
p1761
S'Rowland Loop'
p1762
sS'hike1773'
p1763
S'Mainline, Southern Traverse and Cedar Run Loop'
p1764
sS'hike1774'
p1765
S'Bulitt Access Trail to Summit'
p1766
sS'hike1775'
p1767
S'White Pass Scenic Byway'
p1768
sS'hike1776'
p1769
S'Cassidy Creek'
p1770
sS'hike1777'
p1771
S'Crab Creek'
p1772
sS'hike1778'
p1773
S'Wenatchee River (Whitewater)'
p1774
sS'hike1779'
p1775
S'Badger Mountain from East 210 PR NE'
p1776
sS'hike2094'
p1777
S'Quarry Trails Loop'
p1778
sS'hike2095'
p1779
S'Rasar State Park to Skagit River Woods Loop'
p1780
sS'hike2096'
p1781
S'Newberry Hill Lower Loop to Upper Loop'
p1782
sS'hike2097'
p1783
S'Red Hill Trail'
p1784
sS'hike2090'
p1785
S'Rat Trap Pass'
p1786
sS'hike2091'
p1787
S'Mildred Point via Comet Falls-Van Trump and Wonderland Trail'
p1788
sS'hike2092'
p1789
S'High Log Trail '
p1790
sS'hike2093'
p1791
S'Mount Si and Mount Teneriffe Loop'
p1792
sS'hike2098'
p1793
S'Fort Lewis Area 23 Loop'
p1794
sS'hike2099'
p1795
S'Lewis & Clark Discovery Greenway to Renaissance Trail'
p1796
sS'hike1684'
p1797
S'Green Dots Trails at Whiskey Dick OHV Trail'
p1798
sS'hike1685'
p1799
S'Peshastin Mill Trail'
p1800
sS'hike1686'
p1801
S'Sasse Mountain Trail (#1340)'
p1802
sS'hike1687'
p1803
S'Noble Knob Northern Approach'
p1804
sS'hike1680'
p1805
S'Military Road, Coal Creek Falls, Wildside Trail'
p1806
sS'hike1681'
p1807
S'Fuzzy Top Trail'
p1808
sS'hike1682'
p1809
S'Ewing Cove Trail'
p1810
sS'hike1683'
p1811
S'Goat Island Mountain Trail'
p1812
sS'hike1688'
p1813
S'Silver King Via Silver Creek Trail'
p1814
sS'hike1689'
p1815
S'Klondike Swamp Loop'
p1816
sS'hike89'
p1817
S'Mount Walker'
p1818
sS'hike88'
p1819
S'Green Mountain Lookout via Gold Creek Trail'
p1820
sS'hike83'
p1821
S'Silver Star Mountain via Grouse Vista Trail'
p1822
sS'hike82'
p1823
S'Bandera Mountain Summit'
p1824
sS'hike81'
p1825
S'Point Defiance Park Outer Loop'
p1826
sS'hike80'
p1827
S'Staircase Rapids Loop'
p1828
sS'hike87'
p1829
S'Skyline Divide Trail'
p1830
sS'hike86'
p1831
S'Icicle Ridge Trail (#1570)'
p1832
sS'hike85'
p1833
S'Lime Kiln Trail'
p1834
sS'hike84'
p1835
S'Icicle Gorge Trail'
p1836
sS'hike2320'
p1837
S'Tower Mountain from South Corkery Road [PRIVATE PROPERTY]'
p1838
sS'hike2321'
p1839
S'Waterside Path  [CLOSED]'
p1840
sS'hike879'
p1841
S'Bon Jon Pass OHV Route'
p1842
sS'hike878'
p1843
S'Snoqualmie Valley Trail and Snoqualmie Valley Trail Extension'
p1844
sS'hike1358'
p1845
S'Whitaker Peak and Shy Bear Loop Trail to Doughty Falls'
p1846
sS'hike1359'
p1847
S'West Fork Dosewallips River Trail'
p1848
sS'hike1352'
p1849
S'Twisp Pass Trail'
p1850
sS'hike870'
p1851
S'Waughop Lake MTB Course'
p1852
sS'hike1350'
p1853
S'Stubblefield Lake Loop'
p1854
sS'hike1351'
p1855
S'Happy Creek Forest Walk Trail'
p1856
sS'hike875'
p1857
S'Saratoga Woods Trail'
p1858
sS'hike874'
p1859
S'Lake to Lake Trail Loop via Lacamas Creek'
p1860
sS'hike877'
p1861
S'Lake Washington North, Beach and Seminary Trail Loop'
p1862
sS'hike1355'
p1863
S'Poodle Dog Pass Silver Lake Trail'
p1864
sS'hike1198'
p1865
S'Ohanapecosh and Stafford Falls Trail'
p1866
sS'hike1199'
p1867
S'Spirit of America Trail'
p1868
sS'hike1190'
p1869
S'Ridge Loop Trail '
p1870
sS'hike1191'
p1871
S'Sharpe Park Loop'
p1872
sS'hike1192'
p1873
S'Mountain Lake'
p1874
sS'hike1193'
p1875
S'Central Whidbey Island: Coupeville and Fort Casey'
p1876
sS'hike1194'
p1877
S'Smithbrook Trail'
p1878
sS'hike1195'
p1879
S'Spokane River Centennial Trail and 25 Loop'
p1880
sS'hike1196'
p1881
S'Foulweather Bluff Preserve Trail'
p1882
sS'hike1197'
p1883
S'Mount Si via Teneriffe Connector'
p1884
sS'hike279'
p1885
S'Whipple Creek Park Loop Trail'
p1886
sS'hike278'
p1887
S'Burke-Gilman Trail: Ballard Bridge to Bothell'
p1888
sS'hike277'
p1889
S'Green Mountain via Wildcat Trail'
p1890
sS'hike276'
p1891
S'Painted Rocks Nature Trail'
p1892
sS'hike275'
p1893
S'Keekwulee Falls via Denny Creek Trail'
p1894
sS'hike274'
p1895
S'Winchester Mountain Trail'
p1896
sS'hike273'
p1897
S'Anderson Landing Trail'
p1898
sS'hike272'
p1899
S'Woodard Bay Natural Resources Conservation Area Loop Trail'
p1900
sS'hike271'
p1901
S'Snoqualmie Mountain'
p1902
sS'hike270'
p1903
S"Sauer's Mountain"
p1904
sS'hike1228'
p1905
S'Salmon Creek Trail and Greenway Loop'
p1906
sS'hike1229'
p1907
S'Silver Creek Trail #258'
p1908
sS'hike1226'
p1909
S'Cascade Trail'
p1910
sS'hike1227'
p1911
S'Mink Lake Trail to Blackwood Lake'
p1912
sS'hike1224'
p1913
S'Llandover Woods '
p1914
sS'hike1225'
p1915
S'Eight Mile Trail'
p1916
sS'hike1222'
p1917
S'Little Cranberry Lake Inner Loop'
p1918
sS'hike1223'
p1919
S'Dash Point State Park Mountain Bike Trails'
p1920
sS'hike1220'
p1921
S'Columbia Plateau Trail to Fish Lake'
p1922
sS'hike1221'
p1923
S'Lower Green River Trail Kent to Tukwila'
p1924
sS'hike1293'
p1925
S'Brownie Trail'
p1926
sS'hike1292'
p1927
S'Sequalitchew Loop'
p1928
sS'hike1291'
p1929
S'Farrel-McWhirter Park / Juel Park'
p1930
sS'hike389'
p1931
S'Obstruction Point - Deer Park Trail'
p1932
sS'hike388'
p1933
S'Snow Lake Trail to Source Lake Spur Trail'
p1934
sS'hike383'
p1935
S'Lake Wilderness'
p1936
sS'hike382'
p1937
S'Red Top Lookout Trail'
p1938
sS'hike381'
p1939
S'Taylor River Trail'
p1940
sS'hike380'
p1941
S'Skyline Lake Trail'
p1942
sS'hike387'
p1943
S'Lake Padden Singletrack'
p1944
sS'hike386'
p1945
S'Hidden Lake Trail'
p1946
sS'hike385'
p1947
S'Pike Place Market'
p1948
sS'hike384'
p1949
S'Tipsoo Lake to Dewey Lake Loop'
p1950
sS'hike65'
p1951
S'Barclay Lake Trail'
p1952
sS'hike64'
p1953
S'Heybrook Lookout Trail'
p1954
sS'hike67'
p1955
S'High Divide - Seven Lakes Basin Loop'
p1956
sS'hike66'
p1957
S"Silver Star and Ed's Trail Loop"
p1958
sS'hike61'
p1959
S'Summit Lake Trail'
p1960
sS'hike60'
p1961
S'Snow Lake, Gem Lake, Upper Wildcat Lake'
p1962
sS'hike63'
p1963
S'Lake Ingalls'
p1964
sS'hike62'
p1965
S'Coyote Wall Loop Trail'
p1966
sS'hike1294'
p1967
S'Florence Peak Trail'
p1968
sS'hike69'
p1969
S'Sequalitchew Creek Trail'
p1970
sS'hike68'
p1971
S'Chain Lakes Loop Trail'
p1972
sS'hike871'
p1973
S'Oregon Butte Trail'
p1974
sS'hike479'
p1975
S'Rattlesnake Ledges to East Peak'
p1976
sS'hike478'
p1977
S'Overland OHV Loop Trail'
p1978
sS'hike1353'
p1979
S"May's Creek Trail "
p1980
sS'hike475'
p1981
S'Duthie Mountain Bike Park Loop'
p1982
sS'hike474'
p1983
S'Horseshoe Bend Trail'
p1984
sS'hike477'
p1985
S'Necklace Valley Trail'
p1986
sS'hike476'
p1987
S'Squak Mountain Fireplace Trail'
p1988
sS'hike471'
p1989
S'Crystal Peak Trail'
p1990
sS'hike470'
p1991
S'Mount Si via Old Si Trail'
p1992
sS'hike473'
p1993
S'Indian Heaven Trail'
p1994
sS'hike472'
p1995
S'Excelsior Pass Trail'
p1996
sS'hike655'
p1997
S'Indian Painted Rock and Knothead Valley Loop'
p1998
sS'hike126'
p1999
S'Lena Lake Trail to Upper Lena Lake Trail'
p2000
sS'hike125'
p2001
S'Madison Falls Trail'
p2002
sS'hike124'
p2003
S'Talus Rocks Loop'
p2004
sS'hike123'
p2005
S'Eightmile Lake Trail'
p2006
sS'hike122'
p2007
S'The Wonderland Trail'
p2008
sS'hike121'
p2009
S'Red Town and Cave Hole Trail Loop '
p2010
sS'hike120'
p2011
S'Lighthouse Point via Bowman Bay/Rosario Beach Trail'
p2012
sS'hike1356'
p2013
S'Wawawai Canyon'
p2014
sS'hike659'
p2015
S'Little Cranberry Lake Outer Loop'
p2016
sS'hike658'
p2017
S'Cispus Pass Loop Trail'
p2018
sS'hike129'
p2019
S'Pinnacle Peak Saddle Trail'
p2020
sS'hike1357'
p2021
S'Crater Lakes Trail'
p2022
sS'hike497'
p2023
S'Cougar Trails Loop'
p2024
sS'hike496'
p2025
S'West Hylebos Wetlands Trail'
p2026
sS'hike495'
p2027
S'Foothills Trail: Orting to Buckley'
p2028
sS'hike494'
p2029
S'Paradise Glacier Trail'
p2030
sS'hike493'
p2031
S'Gibbons Creek Wildlife Art Trail'
p2032
sS'hike492'
p2033
S'Dalles Mountain Trail'
p2034
sS'hike491'
p2035
S'Colonel Bob Trail'
p2036
sS'hike490'
p2037
S'Dewey Lake Trail'
p2038
sS'hike876'
p2039
S'Mountain Loop Highway'
p2040
sS'hike499'
p2041
S'Noble Knob Trail'
p2042
sS'hike498'
p2043
S'Bear Lake Trail'
p2044
sS'hike1052'
p2045
S'Lost Lake and Ridge Trail Loop'
p2046
sS'hike1990'
p2047
S'Paris Creek Trail'
p2048
sS'hike1991'
p2049
S'Rotary Bark Park Off-Leash Trail'
p2050
sS'hike1992'
p2051
S'South Asotin Trail'
p2052
sS'hike1993'
p2053
S'Dry Gulch Short Route'
p2054
sS'hike1994'
p2055
S'Putnam Loop'
p2056
sS'hike1995'
p2057
S'Warren G. Magnuson Park Loop'
p2058
sS'hike1996'
p2059
S'Chamna Natural Preserve Trail'
p2060
sS'hike1997'
p2061
S'China Lake Loop'
p2062
sS'hike1998'
p2063
S'Downey Creek Trail'
p2064
sS'hike1999'
p2065
S'Bayview, Suzuki and Whiskey Hill Loop '
p2066
sS'hike721'
p2067
S'Fort Flagler Trail'
p2068
sS'hike720'
p2069
S'Mountain Lake and Twin Lakes Trail'
p2070
sS'hike723'
p2071
S'Bresemann Forest Trail'
p2072
sS'hike722'
p2073
S'Dirtybox Peak'
p2074
sS'hike725'
p2075
S'Davis Peak Lookout Trail'
p2076
sS'hike724'
p2077
S'Lime Kiln Point State Park Trails'
p2078
sS'hike727'
p2079
S'Coulon Beach Park Trails'
p2080
sS'hike726'
p2081
S'Twin Lakes Trail'
p2082
sS'hike729'
p2083
S'Ross Dam Trail'
p2084
sS'hike728'
p2085
S'Twin Peaks'
p2086
sS'hike1514'
p2087
S'Damfino Lakes Trail'
p2088
sS'hike1515'
p2089
S'Clear Lost Trail'
p2090
sS'hike1516'
p2091
S'Hall Mountain Trail'
p2092
sS'hike1517'
p2093
S'Yakima Rim Loop Trail'
p2094
sS'hike1510'
p2095
S'Copalis River Spit Trail'
p2096
sS'hike1511'
p2097
S'Xanadu Trail'
p2098
sS'hike1512'
p2099
S'Triangle Pass OHV Road'
p2100
sS'hike1513'
p2101
S'Old Ranch Road and Little Maui Trail Loop'
p2102
sS'hike1518'
p2103
S'Thompson Lake Trail '
p2104
sS'hike1519'
p2105
S'Chiwaukum Creek Trail'
p2106
sS'hike1428'
p2107
S'Seattle Center'
p2108
sS'hike1429'
p2109
S'Bells View Overlook Trail'
p2110
sS'hike1420'
p2111
S'Lower Tuscohatchie Lake '
p2112
sS'hike1421'
p2113
S'Tomyhoi Peak'
p2114
sS'hike1422'
p2115
S'Lake Ethel Trail'
p2116
sS'hike1423'
p2117
S'Pilchuck Trail '
p2118
sS'hike1424'
p2119
S'Lewis Butte'
p2120
sS'hike1425'
p2121
S'East Fork Trail #139'
p2122
sS'hike1426'
p2123
S'Bird Meadow Trail to Bird Lake Trail'
p2124
sS'hike1427'
p2125
S'CCC Road Trail via Blowout Creek Trailhead'
p2126
sS'hike1271'
p2127
S'Lemei Trail to Lemei Rock'
p2128
sS'hike2155'
p2129
S'Wenatchee Ridge'
p2130
sS'hike2154'
p2131
S'Nisqually State Park Trail'
p2132
sS'hike2157'
p2133
S'Otto Preserve Loop'
p2134
sS'hike2156'
p2135
S"Kautz to Longmire via Indian Henry's Hunting Ground"
p2136
sS'hike2151'
p2137
S'Agate Bay Preserve Loop'
p2138
sS'hike2150'
p2139
S'Stewart Memorial Park Trail'
p2140
sS'hike2153'
p2141
S'Swinomish Channel Loop via Knudson Lane'
p2142
sS'hike2152'
p2143
S'Tiger Mountain MTB Loop: Northwest Timber, The Legend, Joyride, East Tiger, Master Link'
p2144
sS'hike2159'
p2145
S'Lower River Run to Upper River Run Trail'
p2146
sS'hike2158'
p2147
S'360 Project Horse and Pedestrian Loop'
p2148
sS'hike1270'
p2149
S'Lake Swano Trail'
p2150
sS'hike1165'
p2151
S'Kloshe Nanitch Trail'
p2152
sS'hike1164'
p2153
S'Mima Falls Trail and McKenny Trail Loop from Margaret McKenny Campground'
p2154
sS'hike1167'
p2155
S'Art Walk Trail'
p2156
sS'hike1166'
p2157
S'Boundary Trail to Log Jam Trail Loop'
p2158
sS'hike1161'
p2159
S'Little Kachess Trail'
p2160
sS'hike1160'
p2161
S'Ellen Davis Trail'
p2162
sS'hike1163'
p2163
S'Volunteer Park Loop'
p2164
sS'hike1162'
p2165
S'Snoqualmie Valley Trail'
p2166
sS'hike1169'
p2167
S'Fragrance Lake via Two Dollar Trail from Cleator Road'
p2168
sS'hike1168'
p2169
S'Koenemann Lake Trail'
p2170
sS'hike1763'
p2171
S'Mission Ridge Trail'
p2172
sS'hike1762'
p2173
S'Point Whitehorn Trail '
p2174
sS'hike1761'
p2175
S'South Little Mountain Lollipop '
p2176
sS'hike1760'
p2177
S'Lakemont Loop Trail'
p2178
sS'hike1767'
p2179
S'Three Forks Snoqualmie River Trail'
p2180
sS'hike1766'
p2181
S'Hoodsport Trail Loop'
p2182
sS'hike1765'
p2183
S'Bluebird Hiking Trail'
p2184
sS'hike1764'
p2185
S'Selah Cliffs Preserve Trail'
p2186
sS'hike1769'
p2187
S'Cowlitz River Trail'
p2188
sS'hike1768'
p2189
S'Colman Park to Seward Park'
p2190
sS'hike1272'
p2191
S'Round the Mountain Trail'
p2192
sS'hike2087'
p2193
S'134, 118, 10, 123 and 108 Trail Loop '
p2194
sS'hike1095'
p2195
S'Tronsen Ridge Trail'
p2196
sS'hike2085'
p2197
S'Perimeter, Holton Wetland and Ravine Drop Off Trail '
p2198
sS'hike2084'
p2199
S'Mounument Creek Trail from Lost River to Pistol Pass'
p2200
sS'hike2083'
p2201
S'Coyote Wall Long Loop'
p2202
sS'hike2082'
p2203
S'Crescent Beach Trail'
p2204
sS'hike2081'
p2205
S'River View Quarry Road Loop '
p2206
sS'hike1094'
p2207
S'Interurban Trail and Fragrance Lake'
p2208
sS'hike1097'
p2209
S'Everett: Spencer Island'
p2210
sS'hike2089'
p2211
S'Old Wagon Trail'
p2212
sS'hike2088'
p2213
S'Ridge Loop to Old Indian Loop'
p2214
sS'hike1697'
p2215
S'Terrace Trail'
p2216
sS'hike1696'
p2217
S'Three Forks Trail'
p2218
sS'hike1695'
p2219
S'Dry Gulch Loop'
p2220
sS'hike1694'
p2221
S'Muir Snowfield Ski Tour'
p2222
sS'hike1693'
p2223
S'Turtleback Mountain Loop'
p2224
sS'hike1692'
p2225
S'South Skookum Trail'
p2226
sS'hike1691'
p2227
S'Fort Ward Upper Loop via Ridge Trail'
p2228
sS'hike1690'
p2229
S'Cultus Creek Trail'
p2230
sS'hike1091'
p2231
S'Camp Long Trails'
p2232
sS'hike1699'
p2233
S'Emmons Moraine Trail'
p2234
sS'hike1698'
p2235
S'Independence Pass Interpretive Trail'
p2236
sS'hike1093'
p2237
S'North Fork Quinault Trail'
p2238
sS'hike1092'
p2239
S'Mill Butte Trail'
p2240
sS'hike866'
p2241
S'Hannegan Pass Trail'
p2242
sS'hike867'
p2243
S'Saltese Uplands Trail'
p2244
sS'hike864'
p2245
S'Baker Lake East Bank to Noisy Creek Trail'
p2246
sS'hike865'
p2247
S'Lake Sacajawea Park Trail'
p2248
sS'hike862'
p2249
S'Iron Horse Trail from Olallie State Park to Rattlesnake Lake'
p2250
sS'hike863'
p2251
S'Tommy Thompson Trail'
p2252
sS'hike860'
p2253
S'Indian Henrys Hunting Ground Trail to Mirror Lakes'
p2254
sS'hike861'
p2255
S'West Tiger #1 Via Preston Trail'
p2256
sS'hike868'
p2257
S'Layser Cave Trail'
p2258
sS'hike869'
p2259
S'Snoqualmie Lake via Taylor River Trail'
p2260
sS'hike1349'
p2261
S'Ebey Slough Trail'
p2262
sS'hike1348'
p2263
S'Twin Lakes to Silesia Creek Trail'
p2264
sS'hike1345'
p2265
S'Gazzam Lake and Veterane Open Space Preserves'
p2266
sS'hike1344'
p2267
S'Kennedy Creek Falls from Old Olympic Highway'
p2268
sS'hike1347'
p2269
S'Baldy Trail'
p2270
sS'hike1346'
p2271
S'Chatter Creek Trail'
p2272
sS'hike1341'
p2273
S'Larch Lake from High Camp via North Fork Chiwaukum and McCue Ridge Trail'
p2274
sS'hike1340'
p2275
S'Sunrise Lake Trail'
p2276
sS'hike1343'
p2277
S'Pear Lake Trail'
p2278
sS'hike1342'
p2279
S'High Camp Trail'
p2280
sS'hike1189'
p2281
S'Tennant Lake Trail'
p2282
sS'hike1188'
p2283
S'English Pond, Red Barn, and Easy 8 Loop Trail'
p2284
sS'hike1183'
p2285
S'Little Quilcene Trail (historical)'
p2286
sS'hike1182'
p2287
S'Marten Lake Trail'
p2288
sS'hike1181'
p2289
S'French Cabin Creek'
p2290
sS'hike1180'
p2291
S'Spokane Falls Trail'
p2292
sS'hike1187'
p2293
S'Spokane River Centennial Trail'
p2294
sS'hike1186'
p2295
S'Soos Creek Trail via Boulevard Lane Park'
p2296
sS'hike1185'
p2297
S'Falls View Trail'
p2298
sS'hike1184'
p2299
S'Sacagawea Heritage Trail'
p2300
sS'hike268'
p2301
S'Myrtle Falls Viewpoint via Skyline Trail'
p2302
sS'hike269'
p2303
S'Dosewallips Steam Donkey Trail'
p2304
sS'hike264'
p2305
S'Saddlerock Trail'
p2306
sS'hike265'
p2307
S'Deep Creek Loop Trail'
p2308
sS'hike266'
p2309
S'Umtanum Creek Falls Trail'
p2310
sS'hike267'
p2311
S'Nathan Chapman Memorial Trail'
p2312
sS'hike260'
p2313
S'Whatcom Creek Trail Loop'
p2314
sS'hike261'
p2315
S'Mount Constitution Loop Trail'
p2316
sS'hike262'
p2317
S'Crystal Mountain Trail'
p2318
sS'hike263'
p2319
S"Cave Hole, Coal Creek Falls, Quarry, and Fred's Railroad Trail Loop"
p2320
sS'hike1231'
p2321
S'Tradition Plateau Loop'
p2322
sS'hike1230'
p2323
S'Quartzite Mountain'
p2324
sS'hike1233'
p2325
S'Kiket Trail'
p2326
sS'hike1232'
p2327
S'Big Beaver Trail to Beaver Pass'
p2328
sS'hike1235'
p2329
S'Coal Lake Trail to North Lake'
p2330
sS'hike1234'
p2331
S'Larch Mountain via Tarbell Trail'
p2332
sS'hike1237'
p2333
S'Sheep Canyon Trail'
p2334
sS'hike1236'
p2335
S'Trout Lake, Copper Lake, Lake Malachite'
p2336
sS'hike1239'
p2337
S'Chehalis River Sloughs Trail'
p2338
sS'hike1238'
p2339
S'Vista Loop via Entry Road'
p2340
sS'hike398'
p2341
S'Gobblers Knob/Lake George Trail'
p2342
sS'hike399'
p2343
S'Eagle Peak Trail'
p2344
sS'hike390'
p2345
S'Second Beach at Low Tide Loop'
p2346
sS'hike391'
p2347
S'Cowiche Canyon Uplands'
p2348
sS'hike392'
p2349
S'Picture Lake Path'
p2350
sS'hike393'
p2351
S'Loowit Falls Trail'
p2352
sS'hike394'
p2353
S'Four Cedars Outer Loop'
p2354
sS'hike395'
p2355
S'Spoon Creek Falls Trail'
p2356
sS'hike396'
p2357
S'Three Summits Loop Trail'
p2358
sS'hike397'
p2359
S'Thunder Creek Trail'
p2360
sS'hike50'
p2361
S'Mount Washington Trail'
p2362
sS'hike51'
p2363
S'Coal Creek Trail'
p2364
sS'hike52'
p2365
S'Talapus and Olallie Lakes via Olallie Lake Trail'
p2366
sS'hike53'
p2367
S'High Rock Lookout Trail'
p2368
sS'hike54'
p2369
S'Kendall Katwalk Trail'
p2370
sS'hike55'
p2371
S'Hoh River Trail'
p2372
sS'hike56'
p2373
S'Lewis River Falls Trail'
p2374
sS'hike57'
p2375
S'Naches Peak Loop Trail'
p2376
sS'hike58'
p2377
S'Cape Flattery Trail'
p2378
sS'hike59'
p2379
S'Gothic Basin Trail'
p2380
sS'hike468'
p2381
S'Zig Zag Trail'
p2382
sS'hike469'
p2383
S'Sourdough Gap (past Sheep Lake)'
p2384
sS'hike462'
p2385
S'Three Fingers via Goat Flats Trail'
p2386
sS'hike463'
p2387
S'Cedar River Trail'
p2388
sS'hike460'
p2389
S'Holder Ridge Trail'
p2390
sS'hike461'
p2391
S'Cape Disappointment Lighthouse Loop Trail'
p2392
sS'hike466'
p2393
S'Chehalis Western Trail'
p2394
sS'hike467'
p2395
S'Third Beach Trail to Taylor Point'
p2396
sS'hike464'
p2397
S'Green Mountain via Gold Creek Trail'
p2398
sS'hike465'
p2399
S'Lake Christine Trail to Mt Beljica'
p2400
sS'hike642'
p2401
S'Thorp Mountain Trail'
p2402
sS'hike643'
p2403
S'Mount Margaret Trail'
p2404
sS'hike640'
p2405
S'Dusty Lake Trail'
p2406
sS'hike641'
p2407
S'Bertha May and Granite Lakes Trail'
p2408
sS'hike646'
p2409
S'PCT: WA Section H - Cascade Locks to Highway 12 (White Pass)'
p2410
sS'hike647'
p2411
S'Paul Peak Trail'
p2412
sS'hike644'
p2413
S'Foster Island Trail'
p2414
sS'hike645'
p2415
S'PCT: WA Section K - Stevens Pass to Rainy Pass'
p2416
sS'hike648'
p2417
S'Glacier Basin Via Monte Cristo Trail'
p2418
sS'hike649'
p2419
S'Lowell Riverfront Trail'
p2420
sS'hike138'
p2421
S'Woodburn Falls and Round Lake via Lake to Lake Trail'
p2422
sS'hike139'
p2423
S'Marmot Lake and Jade Lake'
p2424
sS'hike484'
p2425
S'Lakeshore Trail and Wonderland Trail to Ipsut Pass'
p2426
sS'hike485'
p2427
S'Barlow Point Trail'
p2428
sS'hike486'
p2429
S'Old Sauk River Trail'
p2430
sS'hike487'
p2431
S"Dirty Harry's Peak via Birdhouse Trail"
p2432
sS'hike480'
p2433
S'Weowna Park Loop Trail'
p2434
sS'hike481'
p2435
S'Dirtyface Peak Trail'
p2436
sS'hike482'
p2437
S'Cougar Mountain Indian Trail'
p2438
sS'hike483'
p2439
S'Lucia Falls Regional Park'
p2440
sS'hike488'
p2441
S'Loowit Loop Trail'
p2442
sS'hike489'
p2443
S'High Drive Parkway Trail'
p2444
sS'hike1983'
p2445
S'Canyon Lake and Ridge'
p2446
sS'hike1982'
p2447
S'Franklin Ghost Town Trail  [PRIVATE PROPERTY]'
p2448
sS'hike1981'
p2449
S'Glacier Peak: Sitkum Glacier'
p2450
sS'hike1980'
p2451
S'Raging Ridge, Invictus, Return Policy Loop'
p2452
sS'hike1987'
p2453
S'False Summit, Lookout Tower, and Mountain Lake Loop'
p2454
sS'hike1986'
p2455
S'Copper Creek Hut via Rainier Vista Trail '
p2456
sS'hike1985'
p2457
S'Tucannon River Scenic Drive'
p2458
sS'hike1984'
p2459
S'Lopez Hill'
p2460
sS'hike1989'
p2461
S'Welcome Pass from Damfino Lakes via High Divide Trail'
p2462
sS'hike1988'
p2463
S'Boulder Lake Trail'
p2464
sS'hike738'
p2465
S'Windy Ridge and Plains of Abraham Loop '
p2466
sS'hike739'
p2467
S'Rosario Head Trail'
p2468
sS'hike736'
p2469
S'East Tiger Mountain Summit Trail'
p2470
sS'hike737'
p2471
S'Berkeley Park Trail'
p2472
sS'hike734'
p2473
S'Umtanum Creek Canyon Trail'
p2474
sS'hike735'
p2475
S'White Bluffs North Slope Trail'
p2476
sS'hike732'
p2477
S'Old Loop Road Trail'
p2478
sS'hike733'
p2479
S'Cascade Falls Trail'
p2480
sS'hike730'
p2481
S'Shoe Lake Via Pacific Crest Trail'
p2482
sS'hike731'
p2483
S'Nooksack Falls Trail '
p2484
sS'hike1507'
p2485
S'Rock Trail'
p2486
sS'hike1506'
p2487
S'Reade Hill Trail'
p2488
sS'hike1505'
p2489
S'Deadfall Trail'
p2490
sS'hike1504'
p2491
S'Pretzel Tree Trail'
p2492
sS'hike1503'
p2493
S'Fort Ward Hill Trail Loop to Blakely Harbor'
p2494
sS'hike1502'
p2495
S'Juniper Ridge Trail'
p2496
sS'hike1501'
p2497
S'Road 1 Sno-Park Trail'
p2498
sS'hike1500'
p2499
S'Old Market Street Trail'
p2500
sS'hike1509'
p2501
S'Whitehorse Trail '
p2502
sS'hike1508'
p2503
S'Grass Lake Nature Park Trail'
p2504
sS'hike1263'
p2505
S'Church Creek - Satsop Lakes Trail'
p2506
sS'hike822'
p2507
S'Discovery Park Extended Loop Trail'
p2508
sS'hike823'
p2509
S'Swauk Forest Discovery Trail'
p2510
sS'hike820'
p2511
S'Longs Pass Trail'
p2512
sS'hike1439'
p2513
S'Skagit Wildlife Area'
p2514
sS'hike1438'
p2515
S'Echo Point Trail'
p2516
sS'hike1433'
p2517
S'Elbow Peak Via Yellow Hill Trail'
p2518
sS'hike826'
p2519
S'Juniper Peak Summit Trail'
p2520
sS'hike1431'
p2521
S'Cashmere Mountain'
p2522
sS'hike1430'
p2523
S'Crystal Mountain Loop Trail'
p2524
sS'hike1437'
p2525
S'Greenleaf Falls Trail Via Pacific Crest Trail'
p2526
sS'hike1436'
p2527
S'Scarborough Hill Trail'
p2528
sS'hike1435'
p2529
S'East Fork Lena Creek via The Brothers Trail #821'
p2530
sS'hike1434'
p2531
S'Cameron Pass Trail'
p2532
sS'hike824'
p2533
S'Elk Lake Trail'
p2534
sS'hike825'
p2535
S'Tunnel Creek Trail'
p2536
sS'hike1261'
p2537
S'Elwha Overlook Trail'
p2538
sS'hike1756'
p2539
S'Green Mountain via Sitka Spruce Trail'
p2540
sS'hike1757'
p2541
S'Mount Rainier Eastside Trail'
p2542
sS'hike1754'
p2543
S'Clark Creek Loop Trail'
p2544
sS'hike1755'
p2545
S'Lake Margaret via Icicle Creek and Wildhorse Trail'
p2546
sS'hike1752'
p2547
S"South Ridge, Hillside, Brick Road and Piper's Creek Trail "
p2548
sS'hike1753'
p2549
S'Slide Mountain Fossil Beds'
p2550
sS'hike1750'
p2551
S'Green Giant Buttress: Dreamer and Giant Tears Route'
p2552
sS'hike1751'
p2553
S'Foggy Dew Creek, Merchants Basin, and Sunrise Lake Loop Trail '
p2554
sS'hike1758'
p2555
S'White Chuck Bench Trail'
p2556
sS'hike1759'
p2557
S'Rocky Creek Conservation Area Trails'
p2558
sS'hike1267'
p2559
S'Lynndale Park Woods Trail'
p2560
sS'hike127'
p2561
S'Mount Saint Helens via Worm Flows Trail'
p2562
sS'hike654'
p2563
S'Guye Peak Trail'
p2564
sS'hike657'
p2565
S'Guemes Mountain'
p2566
sS'hike893'
p2567
S'Vista Ridge Trail'
p2568
sS'hike656'
p2569
S'Hoh River Trail to Blue Glacier Trail'
p2570
sS'hike651'
p2571
S'Wilderness Creek Trail'
p2572
sS'hike1264'
p2573
S'Hyak Creek Trail'
p2574
sS'hike650'
p2575
S'Takhlakh Lake and Meadows Trail'
p2576
sS'hike653'
p2577
S"Debbie's View via May Valley Loop and West Peak Trail"
p2578
sS'hike652'
p2579
S"Devil's Dome Loop"
p2580
sS'hike813'
p2581
S'Notch Pass Trail'
p2582
sS'hike812'
p2583
S'Monte Cristo Trail to Silver Lake Trail'
p2584
sS'hike811'
p2585
S'Burroughs Mountain Loop Via Glacier Basin'
p2586
sS'hike810'
p2587
S"Poulsbo's Fish Park Trail"
p2588
sS'hike817'
p2589
S'Island Lake Trail'
p2590
sS'hike816'
p2591
S'PSE Powerline Trail'
p2592
sS'hike815'
p2593
S'Indian, Shy Bear and Quarry Loop'
p2594
sS'hike814'
p2595
S'Willapa Hills Trail'
p2596
sS'hike819'
p2597
S'Mount Finlayson Trail'
p2598
sS'hike818'
p2599
S'Glass Beach'
p2600
sS'hike2188'
p2601
S"Dirty Harry's Trail [CLOSED]"
p2602
sS'hike2189'
p2603
S'Jakles Lagoon '
p2604
sS'hike2186'
p2605
S'Mount Kit Carson Loop Road, Trail 140 and Trail 110 Loop'
p2606
sS'hike2187'
p2607
S'Fire Trail'
p2608
sS'hike2184'
p2609
S'Butte Creek Sitka Spruce Grove Trail'
p2610
sS'hike2185'
p2611
S'188th and Fir Hill Trail Loop'
p2612
sS'hike2182'
p2613
S'Skagit Riverwalk'
p2614
sS'hike2183'
p2615
S'Odessa Craters Trail'
p2616
sS'hike2180'
p2617
S'Quartz Creek'
p2618
sS'hike2181'
p2619
S'Floyd M. Thornton Nature Trail'
p2620
sS'hike259'
p2621
S'Surprise Creek Trail to Surprise and Glacier Lakes '
p2622
sS'hike258'
p2623
S'Tubal Cain Trail'
p2624
sS'hike558'
p2625
S'Crawford Oaks Trailhead'
p2626
sS'hike251'
p2627
S'Lake Dorothy Trail'
p2628
sS'hike250'
p2629
S'Echo Peak Loop Trail'
p2630
sS'hike253'
p2631
S'Ptarmigan Ridge Trail'
p2632
sS'hike252'
p2633
S'Soos Creek Trail'
p2634
sS'hike255'
p2635
S'June Lake Trail'
p2636
sS'hike254'
p2637
S'Kelly Butte Trail #1031'
p2638
sS'hike257'
p2639
S'Lovers Lane Trail'
p2640
sS'hike256'
p2641
S'PJ Lake Trail'
p2642
sS'hike554'
p2643
S'Wagonwheel Lake Trail'
p2644
sS'hike555'
p2645
S'Meet Cutter to River Trail Loop'
p2646
sS'hike929'
p2647
S'Ski Hill Trail'
p2648
sS'hike928'
p2649
S'Olympic Resource Trails'
p2650
sS'hike927'
p2651
S'Augspurger Mountain: Dog and Cat Trail '
p2652
sS'hike926'
p2653
S'Little Spokane River: Waikiki Springs trail'
p2654
sS'hike925'
p2655
S'Denny Creek Road to Franklin Falls Trail 1036'
p2656
sS'hike924'
p2657
S'Rock Creek Escure Ranch Trail'
p2658
sS'hike923'
p2659
S'Trout Lake via West Fork Foss Lakes Trail'
p2660
sS'hike922'
p2661
S'McKay Marsh Trail'
p2662
sS'hike921'
p2663
S'Nannie Ridge Trail'
p2664
sS'hike920'
p2665
S'Hikers Hut Loop'
p2666
sS'hike1244'
p2667
S"Marshall's Hill Trail"
p2668
sS'hike1245'
p2669
S'Lake Sundown Trail'
p2670
sS'hike1246'
p2671
S'Cutthroat Lake via the PCT'
p2672
sS'hike1247'
p2673
S'Howard Amon Park'
p2674
sS'hike1240'
p2675
S'Cattle Point - San Juan Island'
p2676
sS'hike1241'
p2677
S'Beach House, Stump House, Big Maple, and Plateau Loop'
p2678
sS'hike1242'
p2679
S'Surprise Lake Trail'
p2680
sS'hike1243'
p2681
S'Indian Racetrack Trail to Red Mountain Lookout'
p2682
sS'hike1248'
p2683
S'Dog Mountain Inner Loop'
p2684
sS'hike1249'
p2685
S'Mount Spokane July-Oct Hike'
p2686
sS'hike1262'
p2687
S'Beaver Lake Trail'
p2688
sS'hike309'
p2689
S'Goldmyer Hot Springs Trail'
p2690
sS'hike49'
p2691
S'Spray Park Trail'
p2692
sS'hike48'
p2693
S'Lower Lena Lake Trail'
p2694
sS'hike47'
p2695
S'Burroughs Mountain Loop Trail '
p2696
sS'hike46'
p2697
S'Cape Horn Loop Trail'
p2698
sS'hike45'
p2699
S'Melakwa Lake via Denny Creek Trail'
p2700
sS'hike44'
p2701
S'Mount Saint Helens Summit via Ptarmigan Trail'
p2702
sS'hike43'
p2703
S'Camp Muir Route Via Skyline Trail'
p2704
sS'hike42'
p2705
S'Comet and Christine Falls'
p2706
sS'hike41'
p2707
S'Liberty Lake Loop Trail'
p2708
sS'hike40'
p2709
S'Marymere Falls Trail'
p2710
sS'hike101'
p2711
S'Enchanted Valley Chalet via East Fork Quinault River Trail'
p2712
sS'hike100'
p2713
S'Spruce Railroad Trail: Lake Crescent'
p2714
sS'hike103'
p2715
S'Squak Mountain Road Southeast to May Valley Loop Trail '
p2716
sS'hike102'
p2717
S'Silver Falls Trail'
p2718
sS'hike105'
p2719
S'Lake Washinton Watertower, South Ridge, Beach and North Trail Loop'
p2720
sS'hike104'
p2721
S'Teneriffe Falls and Mount Teneriffe Loop'
p2722
sS'hike107'
p2723
S'Narada Falls Trail'
p2724
sS'hike106'
p2725
S'Lower Falls Creek Trail '
p2726
sS'hike109'
p2727
S'Whittaker Wilderness Peak Trail'
p2728
sS'hike108'
p2729
S'Green Lake Loop Trail'
p2730
sS'hike873'
p2731
S'Mount Margaret to Mount Saint Helens'
p2732
sS'hike1354'
p2733
S'Reflection Lake to Narada Falls via Wonderland Trail'
p2734
sS'hike749'
p2735
S'Grand Park Trail'
p2736
sS'hike748'
p2737
S'Tipsoo Lake to American Ridge'
p2738
sS'hike743'
p2739
S'Lewis and Clark Discovery Greenway Trail'
p2740
sS'hike742'
p2741
S'Independence Lake Trail'
p2742
sS'hike741'
p2743
S'Puyallup Riverwalk Trail'
p2744
sS'hike740'
p2745
S'McLane School Forest Trail'
p2746
sS'hike747'
p2747
S'Eldorado Peak East Ridge Trail'
p2748
sS'hike746'
p2749
S'High Divide and Seven Lakes Basin'
p2750
sS'hike745'
p2751
S'Cooper River Trail'
p2752
sS'hike744'
p2753
S'Cape Flattery Tribal Scenic Byway'
p2754
sS'hike2302'
p2755
S'Saint Martins Mineral Hot Springs [PRIVATE PROPERTY]'
p2756
sS'hike2303'
p2757
S'Hope and Mig Lakes via PCT'
p2758
sS'hike1275'
p2759
S'Narbeck Sanctuary Perimeter Trail'
p2760
sS'hike1274'
p2761
S'Union Creek Trail'
p2762
sS'hike1277'
p2763
S'Mount Higgins'
p2764
sS'hike1276'
p2765
S'Redondo Beach Boardwalk'
p2766
sS'hike2308'
p2767
S'Ludlow Falls [PRIVATE PROPERTY]'
p2768
sS'hike2309'
p2769
S'Darrington Access Road Trail'
p2770
sS'hike1538'
p2771
S'Mount Spokane Trail 100 to Smith Gap'
p2772
sS'hike1539'
p2773
S'Burley Mountain Trail'
p2774
sS'hike1273'
p2775
S'Frater Lake Trail'
p2776
sS'hike1532'
p2777
S'Grist Mill Loop'
p2778
sS'hike1533'
p2779
S'Snoqualmie Point Park'
p2780
sS'hike1530'
p2781
S'Schriebers Meadow via Park Butte Trail 603'
p2782
sS'hike1531'
p2783
S'Sumas Mountain, P-1000, and P-1200 OHV Trail'
p2784
sS'hike1536'
p2785
S'Rabbit Trail to Echo Point to Three Lakes Trail Loop'
p2786
sS'hike1537'
p2787
S'Phelps Creek Trail to Lyman Lake'
p2788
sS'hike1534'
p2789
S'Rainier View Trail'
p2790
sS'hike1535'
p2791
S'Bear Ridge Trail'
p2792
sS'hike1408'
p2793
S'May Valley to Squak Mountain Road Loop '
p2794
sS'hike1409'
p2795
S'Nooksack Cirque Trail'
p2796
sS'hike1406'
p2797
S'Slide Lake Trail'
p2798
sS'hike1407'
p2799
S'Heart Lake Loop'
p2800
sS'hike1404'
p2801
S'Lava Canyon Trail [CLOSED]'
p2802
sS'hike1405'
p2803
S'Mount Baldy via Domerie Divide Trail'
p2804
sS'hike1402'
p2805
S'Old Mine Trail'
p2806
sS'hike1403'
p2807
S'CCC Trail'
p2808
sS'hike1400'
p2809
S'Talus Bridge Trail'
p2810
sS'hike1401'
p2811
S'Columbia Mountain  (Kettle Crest North)'
p2812
sS'hike821'
p2813
S'Deception Creek Trail'
p2814
sS'hike1749'
p2815
S'Squak Mountain Connector Trail to Wilderness Creek'
p2816
sS'hike1748'
p2817
S'Forest Lake Via Huckleberry Creek and Sourdough Ridge Trails'
p2818
sS'hike1741'
p2819
S'Bloedel Reserve Loop'
p2820
sS'hike1740'
p2821
S'Smith Creek Butte Trail'
p2822
sS'hike1743'
p2823
S'Lake Union Waterfront Walkway: Northwest Seaport'
p2824
sS'hike1742'
p2825
S'Kopachuck Nature Loop'
p2826
sS'hike1745'
p2827
S'Slavin Pond Trail'
p2828
sS'hike1744'
p2829
S'Shellrock Lake Trail'
p2830
sS'hike1747'
p2831
S'Snohomish River Sloughs'
p2832
sS'hike1746'
p2833
S'Bogachiel River and Ira Springs Wetland Loop'
p2834
sS'hike827'
p2835
S'Carkeek Park via Pipers Creek Trail'
p2836
sS'hike800'
p2837
S'Damon Point State Park Trail'
p2838
sS'hike801'
p2839
S'Bennington Lake Trail'
p2840
sS'hike802'
p2841
S'Swamp, Ruths Kees Big Tree and Bus Trail Loop'
p2842
sS'hike803'
p2843
S'Ring Hill Forest Trail System'
p2844
sS'hike804'
p2845
S'Dash Point State Park Loop via Beach Trail'
p2846
sS'hike805'
p2847
S'Sugarloaf Mountain Trail'
p2848
sS'hike806'
p2849
S'Yakima Rim Trail '
p2850
sS'hike807'
p2851
S'Coal Creek to Primrose Trail'
p2852
sS'hike808'
p2853
S'Four Stream Trail'
p2854
sS'hike809'
p2855
S'Heather Park via Lake Angeles Trail'
p2856
sS'hike2191'
p2857
S'Bluff Lake Trail'
p2858
sS'hike2190'
p2859
S'Trustland Trails'
p2860
sS'hike2193'
p2861
S'Ridgefield National Wildlife Refuge [CLOSED]'
p2862
sS'hike2192'
p2863
S'Wildhorse Creek Trail #1592'
p2864
sS'hike2195'
p2865
S'Rock Hill Loop'
p2866
sS'hike2194'
p2867
S'May Creek, De Leo, and China Creek Loop'
p2868
sS'hike2197'
p2869
S'National Forest Development Road 3075'
p2870
sS'hike2196'
p2871
S'Mission Peak Loop'
p2872
sS'hike2199'
p2873
S'Lower River Run and Jacks Loop '
p2874
sS'hike2198'
p2875
S'Larch and Rock Candy Peaks'
p2876
sS'hike938'
p2877
S'Vancouver Lake'
p2878
sS'hike939'
p2879
S'Mount Zion'
p2880
sS'hike934'
p2881
S'Emerald Ridge Trail'
p2882
sS'hike935'
p2883
S'Bumping Lake Trail'
p2884
sS'hike936'
p2885
S'Camano Island State Park Trail'
p2886
sS'hike937'
p2887
S'Deschutes Falls'
p2888
sS'hike930'
p2889
S'Arboretum Waterfront Trail'
p2890
sS'hike931'
p2891
S'Wilderness Cliffs Trail via Squak Mountain Connector Trail'
p2892
sS'hike932'
p2893
S'Hurricane Hill Nature Trail to Little River Trail'
p2894
sS'hike933'
p2895
S'Mount Persis West Ridge Trail'
p2896
sS'hike1257'
p2897
S'Holmberg Conservation Area Loop'
p2898
sS'hike1256'
p2899
S'Ridley Creek Trail'
p2900
sS'hike1255'
p2901
S'Grouse Vista, Indian Pits, Silver Star Mountain, Eds Trail, Sturgeon Trail, Tarbel Trail'
p2902
sS'hike1254'
p2903
S"Saint George's Trail to Little Spokane River"
p2904
sS'hike1253'
p2905
S'Porpoise Point Trail'
p2906
sS'hike1252'
p2907
S'Trapper Creek and Observation Peak Loop '
p2908
sS'hike1251'
p2909
S'Sullivan Lake'
p2910
sS'hike1250'
p2911
S"Cave Hole, Fred's Railroad, Quarry, Indian and Red Town Loop"
p2912
sS'hike1259'
p2913
S'Elliott Creek Trail'
p2914
sS'hike1258'
p2915
S'Cranberry Lake'
p2916
sS'hike38'
p2917
S'Beacon Rock Trail'
p2918
sS'hike39'
p2919
S'Bridal Veil Falls Trail'
p2920
sS'hike32'
p2921
S'Ape Cave Trail'
p2922
sS'hike33'
p2923
S'Goat Lake Trail'
p2924
sS'hike30'
p2925
S'Little Mashel Falls Trail'
p2926
sS'hike31'
p2927
S'Mason Lake via Ira Spring Memorial Trail'
p2928
sS'hike36'
p2929
S'Big Four Ice Caves Trail'
p2930
sS'hike37'
p2931
S'Hoh Rain Forest Hall of Moss'
p2932
sS'hike34'
p2933
S'Mount Storm King'
p2934
sS'hike35'
p2935
S'Sol Duc Falls Nature Trail'
p2936
sS'hike246'
p2937
S'Bells Mountain Trail'
p2938
sS'hike247'
p2939
S'Antoine Peak via Emerald Necklace'
p2940
sS'hike244'
p2941
S'Minotaur Lake Trail'
p2942
sS'hike245'
p2943
S'Deception Falls Interpretive Trail'
p2944
sS'hike242'
p2945
S'Heybrook Ridge'
p2946
sS'hike243'
p2947
S'Mount Catherine (#1348)'
p2948
sS'hike240'
p2949
S'Spirit Falls Trail'
p2950
sS'hike241'
p2951
S'Quinault Rain Forest Nature Trail'
p2952
sS'hike248'
p2953
S'Tradition Lake Loop Trail'
p2954
sS'hike249'
p2955
S'Mirror Lake Trail'
p2956
sS'hike118'
p2957
S'Nisqually Estuary Boardwalk and Twin Barns Trail'
p2958
sS'hike119'
p2959
S'Dash Point Trail'
p2960
sS'hike116'
p2961
S'Upper Big Quilcene Trail via Marmot Pass'
p2962
sS'hike117'
p2963
S'Siouxon Trail: Upper Siouxon Trailhead'
p2964
sS'hike114'
p2965
S'Ozette Triangle Trail'
p2966
sS'hike115'
p2967
S'Grove of the Patriarchs Nature Trail'
p2968
sS'hike112'
p2969
S'Tuck and Robin Lakes'
p2970
sS'hike113'
p2971
S'Summer Land Trail'
p2972
sS'hike110'
p2973
S'Beckler Peak '
p2974
sS'hike111'
p2975
S'Mima Falls Trail'
p2976
sS'hike984'
p2977
S'Desolation Peak Trail via Ross Lake'
p2978
sS'hike1954'
p2979
S'Big Cedar to Old Timber to Bobcat Run Loop'
p2980
sS'hike758'
p2981
S'Scott Paul Trail Loop'
p2982
sS'hike759'
p2983
S'East Fork of the Lewis River Trail: Hantwick Road Trailhead'
p2984
sS'hike1454'
p2985
S'Cougar Divide'
p2986
sS'hike750'
p2987
S"Enchanted Valley LaCrosse Basin O'Neill Pass Loop Trail"
p2988
sS'hike751'
p2989
S'Little Mashel Falls Trail via Bud Blancher Trail'
p2990
sS'hike752'
p2991
S'West Elwha River Trail'
p2992
sS'hike753'
p2993
S'Whittier Ridge Lakes Trail'
p2994
sS'hike754'
p2995
S'Washington Pass Overlook Trail'
p2996
sS'hike755'
p2997
S'Summit Ridge Loop'
p2998
sS'hike756'
p2999
S"Hood's Head Trail"
p3000
sS'hike757'
p3001
S'Walker Valley OHV Trail'
p3002
sS'hike1456'
p3003
S'Sunrise Mine Trail'
p3004
sS'hike1451'
p3005
S'Lewis & Clark Interpertive Loop'
p3006
sS'hike1955'
p3007
S"O'Neil Pass via North Fork of Skokomish Trail"
p3008
sS'hike1450'
p3009
S'Ahtanum Ridge Loop'
p3010
sS'hike1453'
p3011
S'Pacific Crest Trail: Chinook Pass to White Pass'
p3012
sS'hike1452'
p3013
S'Chanterelle Trail and Wickersham Truck Road Loop'
p3014
sS'hike1529'
p3015
S'Rainbow Canyon Trail'
p3016
sS'hike1528'
p3017
S'Wright Park'
p3018
sS'hike1525'
p3019
S'Little Giant Pass'
p3020
sS'hike1524'
p3021
S'Blowdown Mountain'
p3022
sS'hike1527'
p3023
S'Canyon Crest Trail to Rat Creek Ridge Trail'
p3024
sS'hike1526'
p3025
S'Whistle Punk Trail'
p3026
sS'hike1521'
p3027
S'Mill Creek Truck Trail'
p3028
sS'hike1520'
p3029
S'Coal Mine Loop'
p3030
sS'hike1523'
p3031
S'Bill Chipman Palouse Trail: Pullman to Moscow'
p3032
sS'hike1522'
p3033
S'Wenatchee Confluence Trail'
p3034
sS'hike1411'
p3035
S'Mirror Lake to Pacific Crest Trail '
p3036
sS'hike1410'
p3037
S'Sky Country to Harvey Manning Loop'
p3038
sS'hike1413'
p3039
S'Lake Caroline and Windy Pass'
p3040
sS'hike1412'
p3041
S'Little Summit from Mountain Lake'
p3042
sS'hike1415'
p3043
S'Teneriffe Talus Loop'
p3044
sS'hike1414'
p3045
S'Cougar Mt Squak Mt Connector to Doughty Falls'
p3046
sS'hike1417'
p3047
S'Kettles Recreation Area to Fort Ebey Loop'
p3048
sS'hike1416'
p3049
S'Sultan River Canyon Trail'
p3050
sS'hike1419'
p3051
S'Buck Creek to High Pass'
p3052
sS'hike1418'
p3053
S'John Wayne Pioneer Trail: Ellensburg to Lake Easton'
p3054
sS'hike1738'
p3055
S'Beach Trail'
p3056
sS'hike1739'
p3057
S"Nature Trail, Little Mountain and Lower Surfer's Way"
p3058
sS'hike1734'
p3059
S'South Point Trail'
p3060
sS'hike1735'
p3061
S'Esmeralda Basin Trail'
p3062
sS'hike1736'
p3063
S'Canyon Creek and Mink Lake Loop Trail'
p3064
sS'hike1737'
p3065
S'Chain Lakes and Bulls Tooth Loop Trail'
p3066
sS'hike1730'
p3067
S'Wynoochee Pass Trail'
p3068
sS'hike1731'
p3069
S'Thirteenmile Hiking Trail'
p3070
sS'hike1732'
p3071
S'West Tiger #3 via Cable Line and Nook Trail Loop'
p3072
sS'hike1733'
p3073
S'Dalles Campground Trail'
p3074
sS'hike2292'
p3075
S'Little Bald Mountain OHV Loop'
p3076
sS'hike2293'
p3077
S'Little Creek to Old Timber to Bobcat Run Loop'
p3078
sS'hike2290'
p3079
S"Budu Henry's Ridge Loop"
p3080
sS'hike2291'
p3081
S'Broken Tree Trail'
p3082
sS'hike2296'
p3083
S'Crow Creek and Little Bald Mountain OHV Loop'
p3084
sS'hike2297'
p3085
S' Chamna Trail'
p3086
sS'hike2294'
p3087
S"South Connector, Down South and Taylor's Trail"
p3088
sS'hike2295'
p3089
S'Westcrest Park South Loop'
p3090
sS'hike2298'
p3091
S'Lost Lake, Sqebeqsed Trail, Andrews Bay Trail, Woodpecker Trail'
p3092
sS'hike2299'
p3093
S'Green Mountain Trail [PRIVATE PROPERTY]'
p3094
sS'hike2050'
p3095
S'Sunrise Rock Trail'
p3096
sS'hike2051'
p3097
S'Alger Truck Trail'
p3098
sS'hike2052'
p3099
S'Frink Park Loop'
p3100
sS'hike2053'
p3101
S'Cold Creek to Forest Road 9070'
p3102
sS'hike2054'
p3103
S'Putney Woods and Metcalf Trail'
p3104
sS'hike2055'
p3105
S'Winchester Wasteway'
p3106
sS'hike2056'
p3107
S'Arboretum Perimeter Trail'
p3108
sS'hike2057'
p3109
S'Lacmas Creek to Camino Potholes via Lake to Lake Trail'
p3110
sS'hike2058'
p3111
S'English Boom Trail'
p3112
sS'hike2059'
p3113
S'Springboard Trail #149'
p3114
sS'hike1088'
p3115
S'Whistle Lake from Mount Erie'
p3116
sS'hike1089'
p3117
S'Bethel Ridge OHV Trail'
p3118
sS'hike1640'
p3119
S'Stafford Creek / Standup Creek Loop'
p3120
sS'hike1641'
p3121
S'Pine Lake'
p3122
sS'hike1642'
p3123
S'Mount Spokane from Hairpin Turn Parking Trailhead'
p3124
sS'hike1643'
p3125
S'Bayview and Mimzie Trail '
p3126
sS'hike1644'
p3127
S'Traditinal Lake to Wetlands Trail Loop'
p3128
sS'hike1645'
p3129
S'Kiwa Trail'
p3130
sS'hike1646'
p3131
S'Marsh Interpretive Trail'
p3132
sS'hike1647'
p3133
S'Royal Basin - Royal Lake'
p3134
sS'hike1648'
p3135
S'Glacier Vista via Avalanche Lily, DeadHorse Creek and Skyline Trail '
p3136
sS'hike1649'
p3137
S'Government Meadow to Arch Rock'
p3138
sS'hike1290'
p3139
S"Enchanted Valley with O'Neil Pass Loop and Anderson Glacier Trek"
p3140
sS'hike839'
p3141
S'Dock Butte Trail'
p3142
sS'hike838'
p3143
S'Spruce Nature Trail and Hall of Mosses Loop'
p3144
sS'hike835'
p3145
S'McCormick Forest Park Loop'
p3146
sS'hike834'
p3147
S'Beaver Lake Hike Trail'
p3148
sS'hike837'
p3149
S'Baker River Trail'
p3150
sS'hike836'
p3151
S'North Beach Trail'
p3152
sS'hike831'
p3153
S'Pine Bluff Loop'
p3154
sS'hike830'
p3155
S'Cross Kirkland Corridor'
p3156
sS'hike833'
p3157
S'Moss Lake Trail'
p3158
sS'hike832'
p3159
S'Fourth of July Pass via Panther Creek Trail'
p3160
sS'hike1396'
p3161
S'Maddox Creek Trail'
p3162
sS'hike1397'
p3163
S'Selah Butte Trail'
p3164
sS'hike1394'
p3165
S'Ginkgo Petrified Forest Interpretive Trail'
p3166
sS'hike1395'
p3167
S'Yodelin Ski Tour'
p3168
sS'hike1392'
p3169
S'Ben Burr Trail'
p3170
sS'hike1393'
p3171
S'Beach, Fern Alley and Outbound Loop'
p3172
sS'hike1390'
p3173
S'Tiffany Mountain Trail'
p3174
sS'hike1391'
p3175
S'Geneva Pond Loop'
p3176
sS'hike1398'
p3177
S'East Tiger: Silent Swamp Trail'
p3178
sS'hike1399'
p3179
S'Mesatchee Creek Trail'
p3180
sS'hike2278'
p3181
S'Deer Fern to Rhodie Hill to Old Loop Road to Fire Loop'
p3182
sS'hike2279'
p3183
S'Marco Polo Lake Trail'
p3184
sS'hike1268'
p3185
S"Fred's Railroad and Wilderness Peak Loop"
p3186
sS'hike1269'
p3187
S'Tipsoo Lake Loop'
p3188
sS'hike901'
p3189
S'Picnic Point Park'
p3190
sS'hike900'
p3191
S'Young Hill Trail'
p3192
sS'hike903'
p3193
S'Clayton Beach Trail'
p3194
sS'hike902'
p3195
S'Glacier Lake Trail'
p3196
sS'hike905'
p3197
S'Larch Mountain MTB Trail'
p3198
sS'hike904'
p3199
S'Icicle Creek Trail'
p3200
sS'hike907'
p3201
S'Antoine Peak East Loop'
p3202
sS'hike906'
p3203
S'Harstine Island State Park Trail'
p3204
sS'hike1068'
p3205
S'Tahuya Lookout OHV Loop '
p3206
sS'hike1069'
p3207
S'Necklace Valley and Tank Lakes'
p3208
sS'hike1060'
p3209
S'Buck Creek Trail'
p3210
sS'hike1061'
p3211
S'Box Canyon Trail'
p3212
sS'hike1062'
p3213
S'Gorge Creek Falls Trail'
p3214
sS'hike1063'
p3215
S'Kautz Creek Trail to Mirror Lakes'
p3216
sS'hike1064'
p3217
S'Washougal River Greenway Trail'
p3218
sS'hike1065'
p3219
S'Amabilis Mountain Trail'
p3220
sS'hike1066'
p3221
S'Maple Glade Nature Trail'
p3222
sS'hike1067'
p3223
S'Poo Poo Point, West Tiger and TMT Loop'
p3224
sS'hike349'
p3225
S'Index Town Wall Trail'
p3226
sS'hike348'
p3227
S'Cirque Rim Nature Trail'
p3228
sS'hike347'
p3229
S'Rimrock Conservation Area Palisades Park Loop Trail'
p3230
sS'hike346'
p3231
S'Cutthroat Lakes Via Walt Baily Trail'
p3232
sS'hike345'
p3233
S'Sourdough Ridge Nature Trail'
p3234
sS'hike344'
p3235
S'Big Gulch Trail'
p3236
sS'hike343'
p3237
S'Lila Lake Trail'
p3238
sS'hike342'
p3239
S'Deception Pass Bridge and Beach Trail'
p3240
sS'hike341'
p3241
S'Badger Mountain Trail'
p3242
sS'hike340'
p3243
S'Boardman Lake Trail'
p3244
sS'hike29'
p3245
S'Snoqualmie Falls Trail'
p3246
sS'hike28'
p3247
S'Hidden Lake Lookout Trail'
p3248
sS'hike21'
p3249
S'Blanca Lake Trail'
p3250
sS'hike20'
p3251
S'Dog Mountain Trail'
p3252
sS'hike23'
p3253
S'Discovery Park and Lighthouse Loop Trail'
p3254
sS'hike22'
p3255
S'The Enchantments Trail'
p3256
sS'hike25'
p3257
S'Maple Pass Trail'
p3258
sS'hike24'
p3259
S'Oyster Dome Trail'
p3260
sS'hike27'
p3261
S'Granite Mountain Trail'
p3262
sS'hike26'
p3263
S'Mailbox Peak (New) Trail'
p3264
sS'hike233'
p3265
S'Carbon Glacier Trail'
p3266
sS'hike232'
p3267
S'Tumwater Falls Trail'
p3268
sS'hike231'
p3269
S'Siouxon Trail: Siouxon Trailhead'
p3270
sS'hike230'
p3271
S'Far Country Lookout and Longview Peak Cougar Mountain Loop Trail'
p3272
sS'hike237'
p3273
S'Wonderland Trail to Panhandle Gap'
p3274
sS'hike236'
p3275
S'Hardy Falls and Pool of the Winds Falls via Hamilton Mountain Trail'
p3276
sS'hike235'
p3277
S'The Quillayute Needles Second Beach Trail'
p3278
sS'hike234'
p3279
S'Glacier View Trail (#267)'
p3280
sS'hike570'
p3281
S'Johnston Ridge Observatory Walk'
p3282
sS'hike239'
p3283
S'Hummocks Trail'
p3284
sS'hike238'
p3285
S'Rachel Lake Trail'
p3286
sS'hike571'
p3287
S'John Wayne Pioneer Trail: North Bend to Lake Easton'
p3288
sS'hike699'
p3289
S'Evergreen Lookout Trail'
p3290
sS'hike698'
p3291
S'Huntoon Point Via Artist Point Trail'
p3292
sS'hike169'
p3293
S'Dishman Hills Natural Area Trail'
p3294
sS'hike168'
p3295
S'Sourdough Mountain Trail'
p3296
sS'hike691'
p3297
S'Iron Bear Trail #1351'
p3298
sS'hike690'
p3299
S'Northhead Lighthouse Loop Trail'
p3300
sS'hike161'
p3301
S'Packwood Lake Trail'
p3302
sS'hike160'
p3303
S'Nook Trail to West Tiger Three Trail'
p3304
sS'hike167'
p3305
S'Thunder Knob Trail'
p3306
sS'hike166'
p3307
S'Putvin Trail to Lake of the Angels'
p3308
sS'hike697'
p3309
S'Snoquera Falls'
p3310
sS'hike696'
p3311
S'Mica Peak'
p3312
sS'hike578'
p3313
S'Back of Pinnacle Peak'
p3314
sS'hike579'
p3315
S'Deer Ridge Trail'
p3316
sS'hike589'
p3317
S'Langus River Front Trail'
p3318
sS'hike588'
p3319
S'Horsethief Butte Trail'
p3320
sS'hike585'
p3321
S'Gold Mine Trail'
p3322
sS'hike584'
p3323
S'Tonga Ridge and Mount Sawyer'
p3324
sS'hike587'
p3325
S'Silver Peak via Cold Creek and Pacific Crest Trail'
p3326
sS'hike586'
p3327
S'Middle Tiger Trail'
p3328
sS'hike581'
p3329
S'Steamboat Rock Trail'
p3330
sS'hike580'
p3331
S'Striped Peak Trail'
p3332
sS'hike583'
p3333
S'O. O. Denny County Park Loop Trail'
p3334
sS'hike582'
p3335
S'North Creek Trail'
p3336
sS'hike765'
p3337
S'High Pass Trail'
p3338
sS'hike764'
p3339
S'Mt. Spokane State Park'
p3340
sS'hike767'
p3341
S'Lacamas Lake Heritage Trail'
p3342
sS'hike766'
p3343
S'South Bay Trail'
p3344
sS'hike761'
p3345
S'Iverson Railroad and Northwest Timber Trails'
p3346
sS'hike760'
p3347
S'Manastash Lake Trail'
p3348
sS'hike763'
p3349
S'Cape Disappointment to Breakers Trail'
p3350
sS'hike762'
p3351
S'Oyster Dome Loop'
p3352
sS'hike769'
p3353
S'Gold Creek Trail to Joe Lake'
p3354
sS'hike768'
p3355
S'Lake Hills Lake to Lake Trail'
p3356
sS'hike567'
p3357
S'Chelan Butte Trail'
p3358
sS'hike566'
p3359
S'Cascade Lake Trail'
p3360
sS'hike1888'
p3361
S'Point Defiance Park Inner Loop'
p3362
sS'hike1889'
p3363
S'Emmons Glacier Summit via Glacier Basin Trail'
p3364
sS'hike563'
p3365
S'LBA Park Loop Trail'
p3366
sS'hike562'
p3367
S'Lighthouse Point and Lottie Point Loop Trail'
p3368
sS'hike561'
p3369
S'Mount McCausland Trail'
p3370
sS'hike560'
p3371
S"Alta Mountain South Ridge Climber's Trail"
p3372
sS'hike1882'
p3373
S'Fullbright Park to Ahtanum Ridge'
p3374
sS'hike1883'
p3375
S'Sunrise Backcountry Camp Loop'
p3376
sS'hike1880'
p3377
S'Baldy Trail (historical) Via Gray Wolf Trail'
p3378
sS'hike1881'
p3379
S'Olympic Discovery Trail Adventure Route (OAT)'
p3380
sS'hike1886'
p3381
S'Foothills Trail: Fairfax Bridge to Carbonado'
p3382
sS'hike1887'
p3383
S'Oil City Trail'
p3384
sS'hike1884'
p3385
S'WA 520 Trail'
p3386
sS'hike1885'
p3387
S'McTavish Trail '
p3388
sS'hike1455'
p3389
S'Dry Gulch South Ridge and Rooster Comb Loop'
p3390
sS'hike1296'
p3391
S'Burnt Mountain and Ironestone Mountain Trail'
p3392
sS'hike1464'
p3393
S'River to Rock Trail'
p3394
sS'hike1465'
p3395
S'Miller Peak Trail '
p3396
sS'hike1466'
p3397
S'White Bluffs South Slope Trail'
p3398
sS'hike1467'
p3399
S'Teneriffe to Talus to Mount Si to Lower Teneriffe Connector Loop'
p3400
sS'hike1460'
p3401
S'Bell Point Loop Trail'
p3402
sS'hike1461'
p3403
S'Alta Lake Trail'
p3404
sS'hike1462'
p3405
S'Pine Lakes Loop Trail'
p3406
sS'hike1463'
p3407
S'Shinglemill Creek'
p3408
sS'hike1468'
p3409
S'Kopachuck State Park Trail'
p3410
sS'hike1469'
p3411
S'Garfield Ravine Trail'
p3412
sS'hike1729'
p3413
S'Hawk Creek Trail'
p3414
sS'hike1728'
p3415
S'Stampede Pass to Tacoma Pass via the PCT'
p3416
sS'hike1727'
p3417
S'Deer Creek Road'
p3418
sS'hike1726'
p3419
S'Coyote Creek to Klondike Swamp Trail'
p3420
sS'hike1725'
p3421
S'Union Bay Natural Area Loop'
p3422
sS'hike1724'
p3423
S'Bear Canyon'
p3424
sS'hike1723'
p3425
S'Oldgrowth Loop Trail'
p3426
sS'hike1722'
p3427
S'Queets River Trail'
p3428
sS'hike1721'
p3429
S'Truman Trail'
p3430
sS'hike1720'
p3431
S'Deer Creek Falls to Owyhigh Lakes Trail'
p3432
sS'hike2285'
p3433
S'Belfair Staging to Tahuya River Trail OHV Loop'
p3434
sS'hike2284'
p3435
S'Larch Mountain, Capitol Peak, and Waddell Creek Loop'
p3436
sS'hike2287'
p3437
S'Russell Ridge and Rimrock Lake OHV Loop'
p3438
sS'hike2286'
p3439
S'Clearcut Boulders'
p3440
sS'hike2281'
p3441
S'Peterson Lake Trail'
p3442
sS'hike2280'
p3443
S'Desert 100 OHV Loop'
p3444
sS'hike2283'
p3445
S"Upper and Lower Surfer's Way Loop"
p3446
sS'hike2282'
p3447
S'Golden Tiger Pathway'
p3448
sS'hike2289'
p3449
S'Oroville Grind'
p3450
sS'hike2288'
p3451
S'Leroy Haagen Memorial Park Loop'
p3452
sS'hike2043'
p3453
S'Tarbell and Thrillium'
p3454
sS'hike2042'
p3455
S'Sword Fern and Highline Trail'
p3456
sS'hike2041'
p3457
S'Shinglemill Creek Loop'
p3458
sS'hike2040'
p3459
S'Rainier Trail'
p3460
sS'hike2047'
p3461
S'Crofton Butte Trail'
p3462
sS'hike1090'
p3463
S'Stevens Creek Trail'
p3464
sS'hike2045'
p3465
S'Fifes Ridge Trail'
p3466
sS'hike2044'
p3467
S'Master Link and Predator Loop'
p3468
sS'hike2049'
p3469
S'Doe Falls Trail'
p3470
sS'hike2048'
p3471
S'Waterline Trail from Lake Boren Park'
p3472
sS'hike1099'
p3473
S'Strawberry Mountain Trail'
p3474
sS'hike1098'
p3475
S'Little Bear Trail: Bitterbrush Loop'
p3476
sS'hike1653'
p3477
S'Tree Frog Loop Trail'
p3478
sS'hike1652'
p3479
S'Fragrance Lake Two Dollar Trail Loop'
p3480
sS'hike1651'
p3481
S'River Loop to Sandifur Bridge'
p3482
sS'hike1650'
p3483
S'Beacon Hill Extended Loop via Esmeralda Trail'
p3484
sS'hike1657'
p3485
S'Koppen Mountain Trail'
p3486
sS'hike1656'
p3487
S'Sun Mountain via Sunnyside Trail'
p3488
sS'hike1655'
p3489
S'Welcome Pass, Excelsior Peak, and Damfino Lakes from Forest Service Road 3060 via High Divide Trail'
p3490
sS'hike1654'
p3491
S'Press Expedition Traverse'
p3492
sS'hike1659'
p3493
S'Chikamin Peak: South Slope'
p3494
sS'hike1658'
p3495
S'Umatilla Rock Hike'
p3496
sS'hike2319'
p3497
S'Oxbow Trail [CLOSED]'
p3498
sS'hike525'
p3499
S'Millersylvania Northwest Loop'
p3500
sS'hike1389'
p3501
S'Skagit River Trail'
p3502
sS'hike1388'
p3503
S'Skagit Tulip Fields'
p3504
sS'hike828'
p3505
S'Kelsey Creek Farm'
p3506
sS'hike829'
p3507
S'Hester Lake Trail'
p3508
sS'hike1381'
p3509
S'Sulphur Mountain Trail'
p3510
sS'hike1380'
p3511
S'Northern State Recreation Area Loop'
p3512
sS'hike1383'
p3513
S'Raven and Coyote Trail Loop'
p3514
sS'hike1382'
p3515
S'Hidden Lake Spur Via Palisades Lake Trail'
p3516
sS'hike1385'
p3517
S'Sherman Peak Loop Trail'
p3518
sS'hike1384'
p3519
S'Chetwoot Lake Trail via West Fork Foss Lakes Trail'
p3520
sS'hike1387'
p3521
S'McLellan Conservation Area'
p3522
sS'hike1386'
p3523
S'Swakane Wildlife Area'
p3524
sS'hike524'
p3525
S'Grassy Knoll Trail'
p3526
sS'hike916'
p3527
S'Ohanapecosh Hot Springs Trail'
p3528
sS'hike917'
p3529
S'High Point Trail'
p3530
sS'hike914'
p3531
S'North Head Trail'
p3532
sS'hike915'
p3533
S'PCT: WA Section L - Rainy Pass to Manning Park, BC'
p3534
sS'hike912'
p3535
S'Kachess Ridge Trail'
p3536
sS'hike913'
p3537
S'Point Wilson Trail'
p3538
sS'hike910'
p3539
S'Bogachiel River Trail'
p3540
sS'hike911'
p3541
S'Alaska Lake via Gold Creek Trail'
p3542
sS'hike918'
p3543
S'Tuscohatchie Lake Trail'
p3544
sS'hike919'
p3545
S'Clay Pit Trail'
p3546
sS'hike2269'
p3547
S'Lopez Island Loop'
p3548
sS'hike2268'
p3549
S'Sewerline and West Pond Loop '
p3550
sS'hike1279'
p3551
S'Chambers Creek Trail'
p3552
sS'hike1278'
p3553
S'Watmough Bay Trail'
p3554
sS'hike2263'
p3555
S'North Fork Nooksack Trail'
p3556
sS'hike2262'
p3557
S'Amabilis Mountain Loop'
p3558
sS'hike2261'
p3559
S'Quartz Creek, Manastash Creek, Frost Mountain, Taneum Creek, and Greek Creek OHV Loop'
p3560
sS'hike2260'
p3561
S'Northwest Timber to The Legend and (Lower) East Tiger '
p3562
sS'hike2267'
p3563
S'Golden Spike, SST, and Back Door Loop'
p3564
sS'hike2266'
p3565
S'Whispering Pines Loop'
p3566
sS'hike2265'
p3567
S'Trail 101: North Trail Red Loop'
p3568
sS'hike2264'
p3569
S'Green Gulch Trail'
p3570
sS'hike1079'
p3571
S'Fire and Ice Trail'
p3572
sS'hike1078'
p3573
S'Medical Lake Trail'
p3574
sS'hike1073'
p3575
S'Horseshoe Basin Via Boundary Trail'
p3576
sS'hike1072'
p3577
S'Lookout Mountain Trail'
p3578
sS'hike1071'
p3579
S'Shy Bear Trail'
p3580
sS'hike1070'
p3581
S'Hoodoo Canyon Trail'
p3582
sS'hike1077'
p3583
S'Evans Creek Preserve from Sahalee Way'
p3584
sS'hike1076'
p3585
S'Mount Si Loop'
p3586
sS'hike1075'
p3587
S'Iron Horse Trail: Washington Creek'
p3588
sS'hike1074'
p3589
S'Monte Cristo Trail to Gothic Basin Trail to Del Campo Peakh'
p3590
sS'hike358'
p3591
S'Ashland Lakes Trail'
p3592
sS'hike359'
p3593
S'Knothead Valley Loop'
p3594
sS'hike354'
p3595
S"Putrid Pete's Peak Trail"
p3596
sS'hike355'
p3597
S'South Coldwater Trail to Lakes Trail Loop'
p3598
sS'hike356'
p3599
S'Weeks Falls Interpretive Trail'
p3600
sS'hike357'
p3601
S'Lost Valley Trail and McKenny Trail Loop'
p3602
sS'hike350'
p3603
S'Blackbird Island Trail'
p3604
sS'hike351'
p3605
S'Lookout Mountain Forest Preserve'
p3606
sS'hike352'
p3607
S'Talapus Lake Trail'
p3608
sS'hike353'
p3609
S"Pete's Creek Trail to Colonel Bob Peak Trail"
p3610
sS'hike14'
p3611
S'Mailbox Peak Trail Loop'
p3612
sS'hike15'
p3613
S'Hurricane Hill via Hurricane Ridge'
p3614
sS'hike16'
p3615
S'Annette Lake Trail '
p3616
sS'hike17'
p3617
S'Mount Ellinor Trail '
p3618
sS'hike10'
p3619
S'Heather Lake Trail'
p3620
sS'hike11'
p3621
S'Colchuck Lake Trail'
p3622
sS'hike12'
p3623
S'Mount Pilchuck Trail'
p3624
sS'hike13'
p3625
S'Franklin Falls Trail 1036'
p3626
sS'hike18'
p3627
S'Hamilton Mountain and Rodney Falls Trail'
p3628
sS'hike19'
p3629
S'Skyline Trail'
p3630
sS'hike220'
p3631
S'Pinnacle Peak Loop Trail'
p3632
sS'hike221'
p3633
S'Snow Lakes Trail'
p3634
sS'hike222'
p3635
S'Navaho Peak'
p3636
sS'hike223'
p3637
S'Catherine Creek Trail (021)'
p3638
sS'hike224'
p3639
S'Dog Mountain Long Loop Trail'
p3640
sS'hike225'
p3641
S'Coyote Loop Trail'
p3642
sS'hike226'
p3643
S'Lighthouse Point and Lottie Point via Rosario Head Trail'
p3644
sS'hike227'
p3645
S'Pine and Cedar Lakes Trail'
p3646
sS'hike228'
p3647
S'Sugarloaf Mountain and Mount Erie Loop Trail'
p3648
sS'hike229'
p3649
S'Lower Big Quilcene to Notch Pass Trail Junction'
p3650
sS'hike178'
p3651
S'Reflection Lake to Narada Falls'
p3652
sS'hike179'
p3653
S'Pratt Lake Trail'
p3654
sS'hike170'
p3655
S'Quinault Loop Trail'
p3656
sS'hike171'
p3657
S'Swan Creek Trail'
p3658
sS'hike172'
p3659
S'Vesper Peak Trail'
p3660
sS'hike173'
p3661
S'Gem Lake via Snow Lake and High Lakes Trail'
p3662
sS'hike174'
p3663
S'Snoquera Falls Loop Trail'
p3664
sS'hike175'
p3665
S'Dungeness Spit Trail'
p3666
sS'hike176'
p3667
S'Upper Big Creek Loop Trail'
p3668
sS'hike177'
p3669
S'Dickerson Falls'
p3670
sS'hike598'
p3671
S'Lake Wenatchee Trail'
p3672
sS'hike599'
p3673
S'Evolution, Unemployment Line, and Atomic Dog Trail'
p3674
sS'hike592'
p3675
S'Mount Rainier Northern Loop Trail'
p3676
sS'hike593'
p3677
S'Rock Candy Mountain Trail'
p3678
sS'hike590'
p3679
S'Burke-Gilman Trail: West Lake Washington'
p3680
sS'hike591'
p3681
S'Historic Columbia River Gorge Highway'
p3682
sS'hike596'
p3683
S'Johnson Ridge Trail'
p3684
sS'hike597'
p3685
S'Tahoma Creek Suspension Bridge'
p3686
sS'hike594'
p3687
S'Glacier Vista Loop via Skyline Trail'
p3688
sS'hike595'
p3689
S'Twin Sisters Rock'
p3690
sS'hike772'
p3691
S'Port Gamble and Poulsbo'
p3692
sS'hike773'
p3693
S'Coal Mines Trail'
p3694
sS'hike770'
p3695
S'Lummi Peak Trail'
p3696
sS'hike771'
p3697
S'Lost Lake Trail'
p3698
sS'hike776'
p3699
S'Woodland Plateau Trail to Lloyd Trail Loop'
p3700
sS'hike777'
p3701
S'Teanaway Ridge Trail (#1364)'
p3702
sS'hike774'
p3703
S'Tamanous Trail to PCT & Gillette Lake'
p3704
sS'hike775'
p3705
S'Salsbury Point Trail'
p3706
sS'hike778'
p3707
S'Rock Trail to Lost Lake Loop'
p3708
sS'hike779'
p3709
S'Milton Interurban Trail'
p3710
sS'hike574'
p3711
S'Goat Peak'
p3712
sS'hike575'
p3713
S'Coal Creek Falls Trail'
p3714
sS'hike576'
p3715
S'Peabody Creek Trail'
p3716
sS'hike577'
p3717
S'Wapato Lake Trail'
p3718
sS'hike1899'
p3719
S'Snolqualmie Valley Trail'
p3720
sS'hike1898'
p3721
S'Dusty and Ancient Lakes via Gorge Oasis '
p3722
sS'hike572'
p3723
S"Devil's Spur"
p3724
sS'hike573'
p3725
S'Mowich Lake to Mystic Lake Trail'
p3726
sS'hike1895'
p3727
S'Klemgard County Park Loop'
p3728
sS'hike1894'
p3729
S'Wetland to Big Loop to North Loop'
p3730
sS'hike1897'
p3731
S'Hidden Cove Trail #4'
p3732
sS'hike1896'
p3733
S'Nimbus Knob, Goldback and Pond Loop Trail'
p3734
sS'hike1891'
p3735
S'Rattlesnake Hill'
p3736
sS'hike1890'
p3737
S'O. O. Denny Park, Big Finn Hill Park and Saint Edward State Park'
p3738
sS'hike1893'
p3739
S'Bear Creek Trail'
p3740
sS'hike1892'
p3741
S'Sunrise Nature Trail'
p3742
sS'hike686'
p3743
S'Turtle Rock and Bedrock Ridge Loop'
p3744
sS'hike687'
p3745
S'Mildred Lakes Trail'
p3746
sS'hike684'
p3747
S'Badger Skyline Trail'
p3748
sS'hike685'
p3749
S'Seahurst Park Loop Trail'
p3750
sS'hike682'
p3751
S'Red Town Trail'
p3752
sS'hike683'
p3753
S'Sol Duc Falls Nature Trail to Appleton Pass Trail'
p3754
sS'hike680'
p3755
S'Cutthroat Lake Trail'
p3756
sS'hike681'
p3757
S'Discovery Historic Loop'
p3758
sS'hike985'
p3759
S'Interlaken Park Loop'
p3760
sS'hike688'
p3761
S'Mount Baker Highway to Artist Point'
p3762
sS'hike689'
p3763
S'The Labyrinth to Coyote Wall Loop'
p3764
sS'hike2086'
p3765
S'Louis Lake'
p3766
sS'hike989'
p3767
S'Trail #25'
p3768
sS'hike324'
p3769
S'Mount Kit Carson Trail'
p3770
sS'hike1432'
p3771
S'Cascade Scenic Drive'
p3772
sS'hike2080'
p3773
S'Centennial Walk'
p3774
sS'hike1828'
p3775
S'Orange Gate Park Loop'
p3776
sS'hike1829'
p3777
S'Nannie Peak Trail'
p3778
sS'hike1477'
p3779
S'The Outback'
p3780
sS'hike1476'
p3781
S'Fort Ebey Loop'
p3782
sS'hike1475'
p3783
S'Rainbow Loop Trail'
p3784
sS'hike1474'
p3785
S'Lake Lois Habitat Reserve'
p3786
sS'hike1473'
p3787
S'Spirit Lake Memorial Highway to Mount St. Helens'
p3788
sS'hike1472'
p3789
S'Freund Canyon Trail'
p3790
sS'hike1471'
p3791
S'Sandy Beach Trail'
p3792
sS'hike1470'
p3793
S'Hibox Mountain Via Rachel Lake Trail'
p3794
sS'hike1479'
p3795
S'North Fork Asotin Creek Trail'
p3796
sS'hike1478'
p3797
S'Iverson Spit Preserve Loop'
p3798
sS'hike1820'
p3799
S'John Wayne Pioneer Trail: Ewan to Tekoa'
p3800
sS'hike1821'
p3801
S'Sherman Pass Trail'
p3802
sS'hike1712'
p3803
S'Marten Creek Trail'
p3804
sS'hike1713'
p3805
S'Whispering Firs, Cascara, Mainline and Lloyd Trail Detour Loop'
p3806
sS'hike1710'
p3807
S'Edgar Rock from Lost Creek Road'
p3808
sS'hike1711'
p3809
S'Lake Susan Jane and Josephine Lake Trail'
p3810
sS'hike1716'
p3811
S'Ross Lake East Bank Trail'
p3812
sS'hike1717'
p3813
S'Elk Ridge and Carey Creek'
p3814
sS'hike1714'
p3815
S'Coyote Creek Trail'
p3816
sS'hike1715'
p3817
S'Duwamish Trail'
p3818
sS'hike1718'
p3819
S'Tumwater Mountain Approach'
p3820
sS'hike1719'
p3821
S'West Access and Chybinski Loop '
p3822
sS'hike2076'
p3823
S'Fourth Crossing Trail'
p3824
sS'hike2077'
p3825
S'Kettles Trail '
p3826
sS'hike2074'
p3827
S'Sherman Pass Scenic Byway'
p3828
sS'hike2075'
p3829
S'Echo Lake Loop '
p3830
sS'hike2072'
p3831
S'Spencer Butte Trail'
p3832
sS'hike2073'
p3833
S'Madrone Trail'
p3834
sS'hike2070'
p3835
S'Blewett Pass Scenic Drive: Peshastin to Ellensburg'
p3836
sS'hike2071'
p3837
S'RIver Quarry Road, Quarry, River, and Pipeline Trail '
p3838
sS'hike2078'
p3839
S'Cameron Creek via Three Forks Trail'
p3840
sS'hike2079'
p3841
S'The East Wing'
p3842
sS'hike1666'
p3843
S'Hamlin Park Loop'
p3844
sS'hike1667'
p3845
S'Cape Disappointment North Head Trail'
p3846
sS'hike1664'
p3847
S'Taylor Mountain Loop'
p3848
sS'hike1665'
p3849
S'Lake Dorothy, Bear Lake, and Deer Lake'
p3850
sS'hike1662'
p3851
S'Old Butte via Jacobson Trail'
p3852
sS'hike1663'
p3853
S'Tracy Hill Loop'
p3854
sS'hike1660'
p3855
S'Tomyhoi Lake Trail'
p3856
sS'hike1661'
p3857
S'49 Degrees North Mountain Ski Resort'
p3858
sS'hike1668'
p3859
S'Spine Line, Ravine Run, Boundary Trails Loop'
p3860
sS'hike1669'
p3861
S'Whidbey Island Cliffside Trail'
p3862
sS'hike1096'
p3863
S'Obstruction Point Road'
p3864
sS'hike963'
p3865
S'Hangman Park Loop'
p3866
sS'hike962'
p3867
S"West View Trail to Devil's Butte"
p3868
sS'hike961'
p3869
S'Useless Bay Tidelands'
p3870
sS'hike960'
p3871
S'Silver Forest Trail'
p3872
sS'hike967'
p3873
S'Dog Lake to Cramer Lake Trail'
p3874
sS'hike966'
p3875
S'Happy Panther Trail'
p3876
sS'hike965'
p3877
S'Lacamas Heritage Trail via Camas Heritage Park'
p3878
sS'hike964'
p3879
S'Kachess Beacon Trail'
p3880
sS'hike969'
p3881
S'Tiger Mountain Adventure Trail'
p3882
sS'hike968'
p3883
S"Schmitz Park Preserve: Seattle's Forest Past"
p3884
sS'hike1280'
p3885
S'Centennial Trail West'
p3886
sS'hike1281'
p3887
S'Mount Shuksan via the Fischer Chimneys Approach'
p3888
sS'hike1282'
p3889
S'Waterworks Canyon Trail'
p3890
sS'hike1283'
p3891
S'Iron Peak Trail #1399'
p3892
sS'hike1284'
p3893
S'Ridell Lake'
p3894
sS'hike1285'
p3895
S'Big Tree Ridge Trail: Short Version'
p3896
sS'hike1286'
p3897
S'Trout Lake and Copper Lake via West Fork Foss Lakes Trail'
p3898
sS'hike1287'
p3899
S'Dalles Falls Trail'
p3900
sS'hike1288'
p3901
S'Heather Creek Trail'
p3902
sS'hike1289'
p3903
S'Wagonroad Trail to Franklin Falls'
p3904
sS'hike2254'
p3905
S'Mount Jupiter Trail [CLOSED]'
p3906
sS'hike2255'
p3907
S'Raven Roost OHV Trail'
p3908
sS'hike2252'
p3909
S'Loon Lake Mountain'
p3910
sS'hike2253'
p3911
S'Naches and Greenwater OHV Trail'
p3912
sS'hike2250'
p3913
S'East Fork Satsop River Loop'
p3914
sS'hike2251'
p3915
S'Mirabeau Point Loop'
p3916
sS'hike1048'
p3917
S'Upper Maynard Burn Way Trail'
p3918
sS'hike1049'
p3919
S'Snoquera Falls and Moss Lake Loop Trail'
p3920
sS'hike1046'
p3921
S'Winslow Pool'
p3922
sS'hike1047'
p3923
S'Azalea Way'
p3924
sS'hike1044'
p3925
S'Jefferson Ridge Trail # 808'
p3926
sS'hike1045'
p3927
S'Asahel Curtis Nature Trail'
p3928
sS'hike1042'
p3929
S'Riverside State Park: Military Cemetery/Equestrian Area Loop '
p3930
sS'hike1043'
p3931
S'Hiram M. Chittenden Locks'
p3932
sS'hike1040'
p3933
S'Teeley Creek Trail #251 to Bertha May Lake'
p3934
sS'hike1041'
p3935
S'Interurban Trail'
p3936
sS'hike369'
p3937
S'Sahale Arm Trail to Quien Sabe Glacier'
p3938
sS'hike368'
p3939
S'Squires Lake Trail'
p3940
sS'hike361'
p3941
S'Humpback Mountain Trail'
p3942
sS'hike360'
p3943
S'John Wayne Pioneer Trail (Snoqualmie Tunnel)'
p3944
sS'hike363'
p3945
S'Lake Fenwick'
p3946
sS'hike362'
p3947
S'Rocky Brook Falls'
p3948
sS'hike365'
p3949
S'Old Pipeline Bed Trail'
p3950
sS'hike364'
p3951
S'Umtanum Ridge Crest Trail'
p3952
sS'hike367'
p3953
S'Lake Whatcom Trail'
p3954
sS'hike366'
p3955
S'Covel Creek Falls and Angel Falls Trail'
p3956
sS'hike2272'
p3957
S'Kennedy Creek Summit Lake Loop'
p3958
sS'hike219'
p3959
S'Lake Valhalla Trail'
p3960
sS'hike218'
p3961
S'Teneriffe Falls via Mount Teneriffe Trail'
p3962
sS'hike215'
p3963
S"Stan's Overlook"
p3964
sS'hike214'
p3965
S'Ape Canyon Trail'
p3966
sS'hike217'
p3967
S'Crystal Lakes Trail to Sourdough Gap'
p3968
sS'hike216'
p3969
S'The Washington Park Arboretum'
p3970
sS'hike211'
p3971
S'Explorer Falls Trail'
p3972
sS'hike210'
p3973
S'Ira Spring Memorial Trail'
p3974
sS'hike213'
p3975
S'Burroughs Mountain Trail'
p3976
sS'hike212'
p3977
S'Mount Rainier Standard Summit Route'
p3978
sS'hike2274'
p3979
S'CCC Trail: North Section'
p3980
sS'hike789'
p3981
S'Chelan Lakeshore Trail'
p3982
sS'hike788'
p3983
S'Mountain Home Ridge'
p3984
sS'hike787'
p3985
S'Licorice Fern to Far Country Falls'
p3986
sS'hike786'
p3987
S'Mount Teneriffe via Mount Teneriffe Trailhead'
p3988
sS'hike785'
p3989
S'Wright Mountain'
p3990
sS'hike784'
p3991
S'Victoria, Armstrong, & Pilchuck Trails'
p3992
sS'hike783'
p3993
S'Trillium Trail and Pipeline Regional Trail'
p3994
sS'hike782'
p3995
S'Loowit Falls from Johnston Ridge Observatory'
p3996
sS'hike781'
p3997
S'Stegosaurus Butte Trail'
p3998
sS'hike780'
p3999
S'Burnt Bridge Creek Trail'
p4000
sS'hike1860'
p4001
S'Myrtle Lake via Entiat River and Cow Creek Trail'
p4002
sS'hike1861'
p4003
S'Skyline Ridge Trail'
p4004
sS'hike1862'
p4005
S'Olympic National Park Foothills Trail'
p4006
sS'hike1863'
p4007
S'Rainbow Town and Red Town Loop Trail'
p4008
sS'hike1864'
p4009
S'Mount Madron'
p4010
sS'hike1865'
p4011
S'Wapaloosie Trail'
p4012
sS'hike1866'
p4013
S'Weather Beach Trail'
p4014
sS'hike1867'
p4015
S'McAlester Lake Trail'
p4016
sS'hike1868'
p4017
S'Forbes Valley Trail'
p4018
sS'hike1869'
p4019
S'Mount Cleman via Waterworks Canyon Trail'
p4020
sS'hike145'
p4021
S'Ancient Lakes Trail'
p4022
sS'hike144'
p4023
S'Soundview and Grandview Trail Loop'
p4024
sS'hike147'
p4025
S'Rattlesnake Mountain Trail to East Peak'
p4026
sS'hike146'
p4027
S'Nisqually Vista Trail'
p4028
sS'hike141'
p4029
S'Panther Creek Falls Trail 137'
p4030
sS'hike140'
p4031
S'Mount Rose Trail'
p4032
sS'hike143'
p4033
S'Hole-in-the-Wall Trail'
p4034
sS'hike142'
p4035
S'Green Lake Trail'
p4036
sS'hike149'
p4037
S'Paradise Valley Conservation Area Trail'
p4038
sS'hike148'
p4039
S'Snowgrass Flats and Goat Lake Loop Trail'
p4040
sS'hike545'
p4041
S'Pratt River Trail'
p4042
sS'hike1918'
p4043
S'Sunnybrook Meadows Trail'
p4044
sS'hike1919'
p4045
S'Boy Scout Trail and Umatilla Rock Trail Loop'
p4046
sS'hike1448'
p4047
S'Mount Baldy and Thomas Mountain to Silver Creek '
p4048
sS'hike1449'
p4049
S'Dingford Creek Trail '
p4050
sS'hike544'
p4051
S'Wonderland Trail Ipsut Creek Loop to Ipsut Pass and Mowich Lake'
p4052
sS'hike1910'
p4053
S"Trout Lake and Jack's Ridge Loop Trail"
p4054
sS'hike1911'
p4055
S'Redmond Connector to PSE Trail to Sammamish River Trail Loop'
p4056
sS'hike1912'
p4057
S'Spokane River Centennial Trail from East Euclid Avenue'
p4058
sS'hike1913'
p4059
S'Wallace Falls MTB Loop'
p4060
sS'hike1914'
p4061
S'South Shore Trail'
p4062
sS'hike1915'
p4063
S'Camino Ridge Forest Preserve Loop'
p4064
sS'hike1916'
p4065
S'Thorp Mountain via Knox Creek and Kachess Ridge Trails'
p4066
sS'hike1917'
p4067
S'Interurban, Hemlock, and Huckleberry Loop'
p4068
sS'hike1705'
p4069
S'Mount Baker via Easton Glacier'
p4070
sS'hike1704'
p4071
S'High School Trail to Chirico Trail Loop'
p4072
sS'hike546'
p4073
S'Bradley Lake Trail Loop'
p4074
sS'hike1706'
p4075
S'Lookout Loop'
p4076
sS'hike1701'
p4077
S'Hidden Lakes Trail'
p4078
sS'hike1700'
p4079
S'Guemes Channel Trail'
p4080
sS'hike1703'
p4081
S'The Yurt Trail'
p4082
sS'hike1702'
p4083
S'La Rush and Bear Lakes Trail'
p4084
sS'hike1058'
p4085
S'Indian Heaven Lakes Trail'
p4086
sS'hike1709'
p4087
S'Wedding Rocks Trail'
p4088
sS'hike1708'
p4089
S'Sulphur Creek Trail'
p4090
sS'hike2069'
p4091
S'Victoria Track to Monument '
p4092
sS'hike2068'
p4093
S'Crow Lake Trail'
p4094
sS'hike2061'
p4095
S'Fort Ebey Bluff Trail'
p4096
sS'hike2060'
p4097
S'Eagle Lake'
p4098
sS'hike2063'
p4099
S'Radio Flyer Loop and Summitview South Loop'
p4100
sS'hike2062'
p4101
S'Cathy\xe2\x80\x99s Trail'
p4102
sS'hike2065'
p4103
S'Northrop Homestead '
p4104
sS'hike2064'
p4105
S'Trail 211 to Centennial Trail'
p4106
sS'hike2067'
p4107
S'Castle Traverse'
p4108
sS'hike2066'
p4109
S'Tarbell Trail Hidden Falls '
p4110
sS'hike1679'
p4111
S'James T. Slavin Nature Loop'
p4112
sS'hike1678'
p4113
S'Dusty Lake to Ancient Lakes'
p4114
sS'hike1671'
p4115
S'White Chuck Mountain Trail'
p4116
sS'hike1670'
p4117
S'Klickitat Rail Trail'
p4118
sS'hike1673'
p4119
S'Coyote Trail'
p4120
sS'hike1672'
p4121
S'Elk Lake via Thomas Lake Trail'
p4122
sS'hike1675'
p4123
S'Frog Lake Trail'
p4124
sS'hike1674'
p4125
S'Deep Creek Trail'
p4126
sS'hike1677'
p4127
S'Osborne Mountain Trail'
p4128
sS'hike1676'
p4129
S'Golden Horn Trail'
p4130
sS'hike1082'
p4131
S'Wynoochee Lake Shore Trail'
p4132
sS'hike1338'
p4133
S'Snohomish River and Shadow Lake Trail'
p4134
sS'hike1083'
p4135
S'Cougar Lake and Little Cougar Lake Trail'
p4136
sS'hike970'
p4137
S'Hazel Wolf Wetlands Trail'
p4138
sS'hike971'
p4139
S'North, Beach, South Canyon, Orchard, Juanita, Arrowhead Loop'
p4140
sS'hike972'
p4141
S'Sand Point Trail'
p4142
sS'hike973'
p4143
S'Bob Bammert Grove Trail'
p4144
sS'hike974'
p4145
S'Killen Creek Trail'
p4146
sS'hike975'
p4147
S'Rainbow Lake via Pratt Lake Trail'
p4148
sS'hike976'
p4149
S'Rock Mountain Trail'
p4150
sS'hike977'
p4151
S'Cave Hole Trail to Coal Creek Falls Trail'
p4152
sS'hike978'
p4153
S'Silver Lake Wetland Haven'
p4154
sS'hike979'
p4155
S'Twin Firs Loop Trail'
p4156
sS'hike1332'
p4157
S'Lillian Ridge Way Trail'
p4158
sS'hike2241'
p4159
S'Halliday Trail'
p4160
sS'hike2240'
p4161
S'Frangrance Lake and Black Diamond DD Loop'
p4162
sS'hike2243'
p4163
S'Capitol Forest and Rocky Candy Mountain OHV Loop'
p4164
sS'hike2242'
p4165
S"Lower Pete's Creek Trail"
p4166
sS'hike2245'
p4167
S'Cowiche Mountain via William O Douglas Trail'
p4168
sS'hike2244'
p4169
S'Root Lake Trail'
p4170
sS'hike2247'
p4171
S'Stinger, Route 66 and Lower Beaver Tracks'
p4172
sS'hike2246'
p4173
S'Exit 27 and Gem State Loop'
p4174
sS'hike2249'
p4175
S'Tiger Mountain and Cable Line Trail'
p4176
sS'hike2248'
p4177
S'Tibbetts Mountain via USFS 112 Road'
p4178
sS'hike1299'
p4179
S'Talapus, Olallie and Pratt Lake '
p4180
sS'hike1298'
p4181
S'Larch Mountain Loop Trail'
p4182
sS'hike1081'
p4183
S'Rasar State Park Loop'
p4184
sS'hike1956'
p4185
S'Community Garden and Beach Walk Loop '
p4186
sS'hike1335'
p4187
S'Beach 1 Nature Trail'
p4188
sS'hike1051'
p4189
S'Birds Nest and Lookout Beach'
p4190
sS'hike1050'
p4191
S'Badger Valley to Grand Lake and Grand Pass Loop'
p4192
sS'hike1053'
p4193
S'Primrose Trail via Coal Creek Trail'
p4194
sS'hike1957'
p4195
S'Big Tree Loop'
p4196
sS'hike1055'
p4197
S'Wildwood Park Loop'
p4198
sS'hike1054'
p4199
S'Baring Mountain Trail'
p4200
sS'hike1057'
p4201
S'Big Rock Trail'
p4202
sS'hike1056'
p4203
S'Hoypus Point Trail'
p4204
sS'hike1059'
p4205
S'North Cascades Scenic Byway'
p4206
sS'hike1950'
p4207
S'Three Summits Loop via Cable Line and Tiger Mountain Trail'
p4208
sS'hike1337'
p4209
S'Cougar Mountain Loop Trail'
p4210
sS'hike1951'
p4211
S'Klickitat Trail: Milepost 16-13  '
p4212
sS'hike2277'
p4213
S'Extended Loop from Bracken Trailhead'
p4214
sS'hike1952'
p4215
S'Kennedy Creek Basin and Falls '
p4216
sS'hike1953'
p4217
S'Crystal Lake Trail'
p4218
sS'hike1087'
p4219
S'Boundary West Trail'
p4220
sS'hike208'
p4221
S'Lake Ann'
p4222
sS'hike209'
p4223
S'Otter and Big Creek Falls Via Taylor River Trail'
p4224
sS'hike202'
p4225
S'Sky Country (Cougar Mountain) Trail'
p4226
sS'hike203'
p4227
S'Watershed Park Trail'
p4228
sS'hike200'
p4229
S'Sunrise Rim Trail'
p4230
sS'hike201'
p4231
S'Black Diamond Coal Mine Trail'
p4232
sS'hike206'
p4233
S'Shangrila, Anti-Aircraft Ridge Loop Trail'
p4234
sS'hike207'
p4235
S'Anderson and Watson Lakes Trail'
p4236
sS'hike204'
p4237
S'Royal Basin Trail'
p4238
sS'hike205'
p4239
S"Sawmill, Margaret's, Beach House, and Stump House Loop"
p4240
sS'hike1835'
p4241
S'Cyrus Gates Overlook to Lost Lake Trail via Ridge Trail'
p4242
sS'hike376'
p4243
S'Big Heart Lake via West Fork Foss Lakes Trail'
p4244
sS'hike377'
p4245
S'Alta Vista Trail'
p4246
sS'hike374'
p4247
S'Olympic National Park Switchback Trail'
p4248
sS'hike375'
p4249
S'South Lost Lake Trail'
p4250
sS'hike372'
p4251
S'Lincoln Park Trail'
p4252
sS'hike373'
p4253
S'Duckabush River Trail to Five Mile Camp'
p4254
sS'hike370'
p4255
S'Soaring Eagle Park Trail'
p4256
sS'hike371'
p4257
S'Margaret Lake Trail'
p4258
sS'hike378'
p4259
S'Pyramid Mountain Trail'
p4260
sS'hike379'
p4261
S'Fort Ebey State Park Loop'
p4262
sS'hike798'
p4263
S'Three Peaks Loop'
p4264
sS'hike799'
p4265
S'Olympic Hot Springs, Appleton Pass, and Sol Duc Loop Trail'
p4266
sS'hike794'
p4267
S'Capitol Peak OHV Trail'
p4268
sS'hike795'
p4269
S'Mount Adams: South Spur and Mazama Glacier'
p4270
sS'hike796'
p4271
S'Beaver Falls'
p4272
sS'hike797'
p4273
S'Soda Peaks Lake Trail'
p4274
sS'hike790'
p4275
S'Talapus Lake Trail to Mason Lake'
p4276
sS'hike791'
p4277
S'Slab Camp Trail'
p4278
sS'hike792'
p4279
S'Evergreen Trail'
p4280
sS'hike793'
p4281
S'Walt Bailey Trail'
p4282
sS'hike1873'
p4283
S'Fisher Pond'
p4284
sS'hike1872'
p4285
S'Huckleberry Creek Trail'
p4286
sS'hike1871'
p4287
S'Burke Gilman Trail: Lavilla to Bothell'
p4288
sS'hike1870'
p4289
S'30 Acre Lake Trail'
p4290
sS'hike1877'
p4291
S"Antoine's Summit Trail"
p4292
sS'hike1876'
p4293
S'Terrace Creek Park'
p4294
sS'hike1875'
p4295
S'Elk Creek Conservation Trail'
p4296
sS'hike1874'
p4297
S'Paradise Point State Park Loop'
p4298
sS'hike556'
p4299
S'Grand Pass Trail'
p4300
sS'hike557'
p4301
S'Seattle Waterfront Pathway'
p4302
sS'hike1879'
p4303
S'Ranger to The Hood to E.T. Loop'
p4304
sS'hike1878'
p4305
S'Flett Glacier Summer Ski Tour'
p4306
sS'hike552'
p4307
S'Marymoor Park Trail'
p4308
sS'hike553'
p4309
S'Shadow Lakes Trail'
p4310
sS'hike550'
p4311
S'Norse Peak Trail'
p4312
sS'hike551'
p4313
S'Iron Horse Trail: Upper Twin Falls to Mine Creek'
p4314
sS'hike152'
p4315
S'Cedar Butte Trail'
p4316
sS'hike153'
p4317
S'Monte Cristo Trail'
p4318
sS'hike150'
p4319
S'Moulton Falls - East Fork of the Lewis River Trail'
p4320
sS'hike151'
p4321
S'Lake Angeles Trail'
p4322
sS'hike156'
p4323
S'Main Trail and Temple Pond Loop Trail'
p4324
sS'hike157'
p4325
S'Klahhane Ridge Trail to Lake Angeles'
p4326
sS'hike154'
p4327
S'Rachel and Rampart Lakes Trail'
p4328
sS'hike155'
p4329
S'Rampart Ridge Loop Trail'
p4330
sS'hike158'
p4331
S'Shi Shi Beach Trail'
p4332
sS'hike159'
p4333
S'Glacier Basin Trail'
p4334
sS'hike1707'
p4335
S'Burton Acres Loop'
p4336
sS'hike1909'
p4337
S'Squilchuck State Park Loop'
p4338
sS'hike1908'
p4339
S'Hansen Creek Trail'
p4340
sS'hike1459'
p4341
S'Old Mount Si Trail to Teneriffe Trail to Kamikaze Trail Loop'
p4342
sS'hike1458'
p4343
S'Beach Loop '
p4344
sS'hike1903'
p4345
S'South Whidbey Community Park Loop'
p4346
sS'hike1902'
p4347
S'Boundary Trail to South Coldwater Trail'
p4348
sS'hike1901'
p4349
S'Laplash Falls Trail'
p4350
sS'hike1900'
p4351
S'Pioneer Path Nature Trail'
p4352
sS'hike1907'
p4353
S'Jim Kaemingk Sr. Trail'
p4354
sS'hike1906'
p4355
S'Goat Rocks Three Loop'
p4356
sS'hike1905'
p4357
S'Surprise Creek Trail to Shangri La Trail Loop'
p4358
sS'hike1904'
p4359
S'Icicle Creek Trail to Chatter Creek Trail'
p4360
sS'hike2'
p4361
S'Mount Si Trail'
p4362
sS'hike3'
p4363
S'Wallace Falls Trail'
p4364
sS'hike0'
p4365
S'Rattlesnake Ledge Trail '
p4366
sS'hike1'
p4367
S'Lake 22 Trail'
p4368
sS'hike6'
p4369
S'Lake Serene Trail and Bridal Veil Falls'
p4370
sS'hike7'
p4371
S'Poo Poo Point Trail'
p4372
sS'hike4'
p4373
S'Twin Falls Trail'
p4374
sS'hike5'
p4375
S'Snow Lake Trail'
p4376
sS'hike8'
p4377
S'Little Si Trail'
p4378
sS'hike9'
p4379
S'Tolmie Peak Trail'
p4380
sS'hike134'
p4381
S'Yellow Aster Butte Trail'
p4382
sS'hike2018'
p4383
S'Green Mountain from Deer Park Campground'
p4384
sS'hike2019'
p4385
S'Orchard Loop to Grotto Trail'
p4386
sS'hike135'
p4387
S'Murhut Falls Trail'
p4388
sS'hike2014'
p4389
S'Maynard Burn Way (historical)'
p4390
sS'hike2015'
p4391
S'Kulshan Trail'
p4392
sS'hike2016'
p4393
S'Ship Canal to Westlake Cycle Track'
p4394
sS'hike2017'
p4395
S'Marmot Lake Trail via Tucquala Meadows'
p4396
sS'hike2010'
p4397
S'Copper Butte Trail'
p4398
sS'hike2011'
p4399
S'Newcastle Golf Course Trail'
p4400
sS'hike2012'
p4401
S'Thorp Lake via Thorp Creek Trail'
p4402
sS'hike2013'
p4403
S'Cedar Downs Park'
p4404
sS'hike137'
p4405
S"Ebey's Landing Trail"
p4406
sS'hike1608'
p4407
S'Redmond Central Connector Trail'
p4408
sS'hike1609'
p4409
S'Kendall Skyline Road'
p4410
sS'hike1604'
p4411
S'Sunburst and Porpoise Point Loop'
p4412
sS'hike1605'
p4413
S'Luther Burbank Park Loop'
p4414
sS'hike1606'
p4415
S'Seaquest #2, #5, #9 Loop'
p4416
sS'hike1607'
p4417
S'Central Meadow Outer Loop'
p4418
sS'hike1600'
p4419
S'Purcell Mountain Trail'
p4420
sS'hike1601'
p4421
S'Stinger, Once Upon a Time and Rabbit Role'
p4422
sS'hike1602'
p4423
S'Bowl and Pitcher Viewpoint and Trail 100'
p4424
sS'hike1603'
p4425
S'Red Town Trail to Wildside Trail'
p4426
sS'hike132'
p4427
S'Heliotrope Ridge Trail'
p4428
sS'hike133'
p4429
S'McClellan Butte Trail'
p4430
sS'hike2120'
p4431
S'Middle Fork Snoqualmie River Trail [CLOSED]'
p4432
sS'hike2121'
p4433
S'Magnet Creek Trail'
p4434
sS'hike2122'
p4435
S'Lake Boren Loop'
p4436
sS'hike2123'
p4437
S'Scout Patrol Peak'
p4438
sS'hike2124'
p4439
S"Martin's Access Trail"
p4440
sS'hike2125'
p4441
S'Sentinel Mountain'
p4442
sS'hike2126'
p4443
S'Bridge Creek Trail'
p4444
sS'hike2127'
p4445
S'Table Mountain Ski Tour'
p4446
sS'hike2128'
p4447
S'Devils Gulch Loop'
p4448
sS'hike2129'
p4449
S'Dakota Dog Park Loop'
p4450
sS'hike1110'
p4451
S'Scenic Beach State Park'
p4452
sS'hike1111'
p4453
S'Mine Road Trail'
p4454
sS'hike1112'
p4455
S'Bald Knob - CCC Cabin Trail'
p4456
sS'hike1113'
p4457
S'Bear Gap to Bullion Basin'
p4458
sS'hike1114'
p4459
S'Mount St. Helens Loop Trail from Windy Ridge'
p4460
sS'hike1115'
p4461
S'Shadow of the Sentinels Trail'
p4462
sS'hike1116'
p4463
S'Big Lava Bed Trail via PCT'
p4464
sS'hike1117'
p4465
S'Preston-Snoqualmie Trail'
p4466
sS'hike1118'
p4467
S'Snow Mountain Ranch'
p4468
sS'hike1119'
p4469
S'Grays Harbor National Wildlife Refuge'
p4470
sS'hike529'
p4471
S'Olympic Peninsula Loop Drive'
p4472
sS'hike528'
p4473
S'Bean Creek Basin Trail'
p4474
sS'hike949'
p4475
S'Wildside Trail'
p4476
sS'hike948'
p4477
S'Oregon Butte Grand Loop Trail'
p4478
sS'hike522'
p4479
S'Twanoh Trail'
p4480
sS'hike945'
p4481
S'Thomas Lake Trail'
p4482
sS'hike944'
p4483
S'Salmo-Priest Loop'
p4484
sS'hike947'
p4485
S'Blue Mountain Logging Road - South'
p4486
sS'hike946'
p4487
S'North Fork Sauk Falls Trail'
p4488
sS'hike941'
p4489
S'State Capitol and Central Olympia'
p4490
sS'hike940'
p4491
S'Aldrich Butte Trail Via Pacific Crest Trail'
p4492
sS'hike943'
p4493
S'Stagman Ridge Trail'
p4494
sS'hike942'
p4495
S'Olympic Discovery Trail'
p4496
sS'hike2234'
p4497
S'Basecamp Loop'
p4498
sS'hike2235'
p4499
S'Newcastle Highlands Trail'
p4500
sS'hike2236'
p4501
S'Gypsy Peak via Sullivan Creek Road'
p4502
sS'hike2237'
p4503
S'Fir Mountain Trail'
p4504
sS'hike2230'
p4505
S'Fauntleroy Park Trail '
p4506
sS'hike2231'
p4507
S'Silver Star Trail'
p4508
sS'hike2232'
p4509
S'Vashon Nature Preserve'
p4510
sS'hike2233'
p4511
S'Belfair and Howell Lake OHV Loop'
p4512
sS'hike2238'
p4513
S'Evans Creek Trail'
p4514
sS'hike2239'
p4515
S'James Pond Nature Trail'
p4516
sS'hike1024'
p4517
S'Toutle River Trail'
p4518
sS'hike1025'
p4519
S'East Lake Sammamish Trail'
p4520
sS'hike1026'
p4521
S'Baldy Mountain'
p4522
sS'hike1027'
p4523
S'Monogram Lake Trail'
p4524
sS'hike1020'
p4525
S'Foothills Trail: South Prairie to Puyallup'
p4526
sS'hike1021'
p4527
S'Deceiver Trail'
p4528
sS'hike1022'
p4529
S'Squak Mountain East Ridge'
p4530
sS'hike1023'
p4531
S'Winter Block via Birdhouse Trail'
p4532
sS'hike1849'
p4533
S'Rattlesnake Slope Trail'
p4534
sS'hike1028'
p4535
S'Lake Sammamish Issaquah Creek Trail'
p4536
sS'hike1029'
p4537
S'Echo Valley Outer Loop Trail'
p4538
sS'hike1442'
p4539
S'Ross Dam and Diablo Lake Trail'
p4540
sS'hike128'
p4541
S'Sauk Mountain Trail'
p4542
sS'hike1339'
p4543
S'Mica Peak Loop'
p4544
sS'hike899'
p4545
S'West Tiger Mountain Loop'
p4546
sS'hike898'
p4547
S'Myrtle Edwards Park to Elliott Bay Park'
p4548
sS'hike1330'
p4549
S'Dwights Way Trail'
p4550
sS'hike892'
p4551
S'Dead Horse Creek Trail'
p4552
sS'hike891'
p4553
S'Abercrombie Mountain'
p4554
sS'hike890'
p4555
S'Coal Creek Falls '
p4556
sS'hike897'
p4557
S'White Pass Pilot Ridge Loop Trail'
p4558
sS'hike896'
p4559
S'Carbon River Rain Forest Nature Trail'
p4560
sS'hike895'
p4561
S'Tinkham Peak (Tinkham East Boot) Trail'
p4562
sS'hike894'
p4563
S'Gibbs Lake Trail'
p4564
sS'hike419'
p4565
S'Quartz Mountain Lookout Trail'
p4566
sS'hike418'
p4567
S'Foothills Trail: Puyallup to South Prairie'
p4568
sS'hike417'
p4569
S'Glenrose Cliff Trails '
p4570
sS'hike416'
p4571
S'Nolte State Park Deep Lake'
p4572
sS'hike415'
p4573
S'Mount Zion Trail'
p4574
sS'hike414'
p4575
S'Battle Ground Lake Loop Trail'
p4576
sS'hike413'
p4577
S'Palisades Lakes Trail'
p4578
sS'hike412'
p4579
S'Josephine Lake View Trail'
p4580
sS'hike411'
p4581
S'PCT: WA Section J - Snoqualmie Pass to Stevens Pass'
p4582
sS'hike410'
p4583
S'Lake Isabel Trail'
p4584
sS'hike303'
p4585
S'Kamiak Butte Trail'
p4586
sS'hike302'
p4587
S'Stimpson Nature Preserve'
p4588
sS'hike301'
p4589
S'Lake Constance Trail'
p4590
sS'hike300'
p4591
S'Flapjack Lakes Trail'
p4592
sS'hike307'
p4593
S'Spectacle Lake'
p4594
sS'hike306'
p4595
S'Normandy Beach Trail'
p4596
sS'hike305'
p4597
S'High Lakes Loop Trail'
p4598
sS'hike304'
p4599
S'Thornton Lakes Trail'
p4600
sS'hike2046'
p4601
S'Sand Ridge Trail'
p4602
sS'hike308'
p4603
S'Talus Loop Trail'
p4604
sS'hike1846'
p4605
S'Lake Janus Trail'
p4606
sS'hike1847'
p4607
S'Bells Mountain Trail to Cedar Creek'
p4608
sS'hike1844'
p4609
S'Old Road Loop to Wildlife Trail'
p4610
sS'hike1845'
p4611
S'Edmonds Boardwalk to Marina Beach Park'
p4612
sS'hike1842'
p4613
S'Cedar Mountain via McGarvey Trail West'
p4614
sS'hike1843'
p4615
S'Three Tree Point Indian Trail'
p4616
sS'hike1840'
p4617
S'Silver Falls via Silver Falls Trail'
p4618
sS'hike1841'
p4619
S'Chuckanut Falls'
p4620
sS'hike523'
p4621
S'Hansen Ridge Trail #1020 (Little Saint Helens)'
p4622
sS'hike848'
p4623
S'Olympic National Park Little River Trail'
p4624
sS'hike521'
p4625
S'Trail of the Shadows Trail'
p4626
sS'hike520'
p4627
S'Indian Heavan Trail to Lake Wapiki'
p4628
sS'hike527'
p4629
S'Gray Wolf Trail'
p4630
sS'hike526'
p4631
S'Paradise Inn to Panorama Point-Snow Hike'
p4632
sS'hike1848'
p4633
S'Rugged Ridge Trail'
p4634
sS'hike849'
p4635
S'Shelton View Forest'
p4636
sS'hike2258'
p4637
S'Camelot Spur and Cook Ferry Trail'
p4638
sS'hike2259'
p4639
S'Trail 212 and 25 Loop'
p4640
sS'hike2256'
p4641
S'Tinkham OHV Trail'
p4642
sS'hike2257'
p4643
S'Tiger Mountain Trail: Through Hike'
p4644
s.