(dp0
S'hike1598'
p1
S'Mount Constitution From Cascade Lake'
p2
sS'hike1599'
p3
S'Mystic Lake via Carbon River and Wonderland Trails'
p4
sS'hike1594'
p5
S'Kettle Falls and Jungle Hill Trail'
p6
sS'hike1595'
p7
S'Big Tree Ridge, Red Cedars, Surprise Creek, Precipice Top and Military Ridge Trail Loop'
p8
sS'hike1596'
p9
S'Whitman Mission'
p10
sS'hike1597'
p11
S'Poe Mountain Trail'
p12
sS'hike1590'
p13
S'Boundary West End Trail to Johnson Ridge Observatory'
p14
sS'hike1591'
p15
S'Summit Springs Trail #173 (Snass Creek)'
p16
sS'hike1592'
p17
S'Beaver Lake Park Loop'
p18
sS'hike1593'
p19
S'Lewis River Trail'
p20
sS'hike637'
p21
S'Lanham Lake Trail'
p22
sS'hike636'
p23
S'Coal Creek and Primrose Trail Loop from Lakemont Blvd'
p24
sS'hike635'
p25
S'Porter Creek Falls'
p26
sS'hike634'
p27
S'Teneriffe Falls Loop via the Mount Teneriffe Trail'
p28
sS'hike633'
p29
S'North Head Discovery Trail'
p30
sS'hike632'
p31
S'Cowiche Canyon Trail'
p32
sS'hike631'
p33
S'Commencement Bay Trail'
p34
sS'hike630'
p35
S'Deer Park Road'
p36
sS'hike2318'
p37
S'Flagg Mountain Loop'
p38
sS'hike639'
p39
S'Moments in Time Trail'
p40
sS'hike638'
p41
S'Wallace Falls and Wallace Lake Loop'
p42
sS'hike136'
p43
S'Bench and Snow Lakes Trail'
p44
sS'hike559'
p45
S'Seattle Waterfront Pathway'
p46
sS'hike1938'
p47
S'Bear Ridge Trail to Coal Creek Falls and Cave Hole Loop'
p48
sS'hike1939'
p49
S'Slate Peak to Robinson Pass'
p50
sS'hike1936'
p51
S'Boy Scout Trail and Umatilla Rock Trail Loop'
p52
sS'hike1937'
p53
S'Sqebeqsed Trail'
p54
sS'hike1934'
p55
S'Interurban, Hemlock, and Huckleberry Loop'
p56
sS'hike1935'
p57
S'Sunnybrook Meadows Trail'
p58
sS'hike1932'
p59
S'Camino Ridge Forest Preserve Loop'
p60
sS'hike1933'
p61
S'Thorp Mountain via Knox Creek and Kachess Ridge Trails'
p62
sS'hike1930'
p63
S'Wallace Falls MTB Loop'
p64
sS'hike1931'
p65
S'South Shore Trail'
p66
sS'hike1045'
p67
S'Hiram M. Chittenden Locks'
p68
sS'hike564'
p69
S'Lighthouse Point and Lottie Point Loop Trail'
p70
sS'hike130'
p71
S'Mount Defiance and Mason Lake via Ira Spring Memorial Trail, Old Mason Lake Trail, and Mount Defiance Ridge Trail'
p72
sS'hike131'
p73
S'Greenwater Lakes Trail'
p74
sS'hike2009'
p75
S'Tucannon River Scenic Drive'
p76
sS'hike2008'
p77
S'Larch Lake via Deadhorse Pass'
p78
sS'hike2007'
p79
S'Lopez Hill'
p80
sS'hike2006'
p81
S'Canyon Lake and Ridge'
p82
sS'hike2005'
p83
S'Franklin Ghost Town Trail  [PRIVATE PROPERTY]'
p84
sS'hike2004'
p85
S'Glacier Peak: Sitkum Glacier'
p86
sS'hike2003'
p87
S'Raging Ridge, Invictus, Return Policy Loop'
p88
sS'hike2002'
p89
S'Westside Road and South Puyallup Trail '
p90
sS'hike2001'
p91
S'Wildcat Falls via Siouxon Trail #130'
p92
sS'hike2000'
p93
S'Bunker Hill Trail  '
p94
sS'hike1619'
p95
S'Dixie Peak via Teneriffe Trail'
p96
sS'hike1618'
p97
S'South Indian Island Trail'
p98
sS'hike1617'
p99
S'Happy Lake Ridge Trail'
p100
sS'hike1616'
p101
S'Gray Wolf Pass'
p102
sS'hike1615'
p103
S'Section Line, Nook and Bus Trail '
p104
sS'hike1614'
p105
S'Kendall Skyline Road'
p106
sS'hike1613'
p107
S'Redmond Central Connector Trail'
p108
sS'hike1612'
p109
S'Central Meadow Outer Loop'
p110
sS'hike1611'
p111
S'Seaquest #2, #5, #9 Loop'
p112
sS'hike1610'
p113
S'Luther Burbank Park Loop'
p114
sS'hike2133'
p115
S'Wenatchee Yellow Hill Trail #1222'
p116
sS'hike2132'
p117
S'Mildred Point via Comet Falls-Van Trump and Wonderland Trail'
p118
sS'hike2131'
p119
S'Rat Trap Pass'
p120
sS'hike2130'
p121
S'Old Wagon Trail'
p122
sS'hike2137'
p123
S'Rasar State Park to Skagit River Woods Loop'
p124
sS'hike2136'
p125
S'Quarry Trails Loop'
p126
sS'hike2135'
p127
S'Mount Si and Mount Teneriffe Loop'
p128
sS'hike2134'
p129
S'High Log Trail '
p130
sS'hike2139'
p131
S'Red Hill Trail'
p132
sS'hike2138'
p133
S'Newberry Hill Lower Loop to Upper Loop'
p134
sS'hike1103'
p135
S'May Valley Short Loop'
p136
sS'hike1102'
p137
S'Mount Molly via Waddell Basin West Trail'
p138
sS'hike1101'
p139
S'Strawberry Mountain Trail'
p140
sS'hike1100'
p141
S'Little Bear Trail: Bitterbrush Loop'
p142
sS'hike1107'
p143
S'Purcell Falls Trail'
p144
sS'hike1106'
p145
S'Lower Dungeness Trail'
p146
sS'hike1105'
p147
S'Griff Creek Trail'
p148
sS'hike1104'
p149
S'Trap Lake Trail'
p150
sS'hike1109'
p151
S'Heather Lake Trail #1526'
p152
sS'hike1108'
p153
S'Centennial Snowshoe Hut via Mount Kit Carson Loop Road'
p154
sS'hike958'
p155
S'South Wedge Mountain Trail'
p156
sS'hike959'
p157
S'Black Canyon Trail'
p158
sS'hike952'
p159
S'West, Old Naches, and Land of the Giants Loop'
p160
sS'hike953'
p161
S'Lake Youngs'
p162
sS'hike950'
p163
S'Oregon Butte Grand Loop Trail'
p164
sS'hike951'
p165
S'Wildside Trail'
p166
sS'hike956'
p167
S'May Creek Trail from Lake Boren Park'
p168
sS'hike957'
p169
S'Boulder Lake Trail  '
p170
sS'hike954'
p171
S'Tonga Ridge Trail'
p172
sS'hike955'
p173
S'West Tiger #1'
p174
sS'hike2227'
p175
S'Cascade Lake Lagoon'
p176
sS'hike2226'
p177
S'Lightning and Duff Springs via South Side Trail'
p178
sS'hike2225'
p179
S'Vashon Beach Walk'
p180
sS'hike2224'
p181
S'Blue Lake Buttes Trail (to Blue Lake)'
p182
sS'hike2223'
p183
S'Blazed Ridge and Bear Creek Loop'
p184
sS'hike2222'
p185
S'Home Lake via Upper Big Quilcene, Upper Dungeness, Constance Pass'
p186
sS'hike2221'
p187
S'Riverview Playfield Trail'
p188
sS'hike2220'
p189
S'Middle Fork Snolqualmie River Trail'
p190
sS'hike1080'
p191
S'Medical Lake Trail'
p192
sS'hike2229'
p193
S'Nine Mile Dam Overlook via Centennial Trail'
p194
sS'hike2228'
p195
S"Grandma's Cove"
p196
sS'hike1037'
p197
S'Tradition Lake, Around the Lake and Bus Trail Loop'
p198
sS'hike1036'
p199
S'Olympic Discovery Trail: Port Angeles Waterfront'
p200
sS'hike1035'
p201
S'Anderson Lake Trail'
p202
sS'hike1034'
p203
S'Airport Trail'
p204
sS'hike1033'
p205
S'Little Huckleberry Trail'
p206
sS'hike1032'
p207
S'Equine Loop from Margaret KcKenny Campground via McKenny Trail'
p208
sS'hike1031'
p209
S'Echo Valley Outer Loop Trail'
p210
sS'hike1030'
p211
S'Lake Sammamish Issaquah Creek Trail'
p212
sS'hike1086'
p213
S'Snoqualmie Valley Trail: Three Forks to Rattlesnake Lake'
p214
sS'hike1039'
p215
S"Piper's Creek and South Ridge Trail"
p216
sS'hike1038'
p217
S'Cedar River'
p218
sS'hike1084'
p219
S'Wynoochee Lake Shore Trail'
p220
sS'hike1085'
p221
S'Cougar Lake and Little Cougar Lake Trail'
p222
sS'hike2359'
p223
S'Lake Sylvia Loop'
p224
sS'hike2358'
p225
S'Tiger Mountain Trail: Through Hike'
p226
sS'hike2353'
p227
S'Goat Rocks Traverse'
p228
sS'hike2352'
p229
S'Skull, Pipeline, Valley, Director and Bayview Trail Loop '
p230
sS'hike2351'
p231
S'Lizard Bat Loop'
p232
sS'hike2350'
p233
S'Mount Jupiter Trail [CLOSED]'
p234
sS'hike2357'
p235
S'Tinkham OHV Trail'
p236
sS'hike2356'
p237
S'Balfour-Klickitat Loop'
p238
sS'hike2355'
p239
S'Ikeny Lake Trail to Big Creek Trail'
p240
sS'hike2354'
p241
S'Raven Roost OHV Trail'
p242
sS'hike888'
p243
S'Joseph Whidbey State Park Trails'
p244
sS'hike889'
p245
S'Priest Point'
p246
sS'hike1329'
p247
S'Lake Edna via Chatter Creek Trail'
p248
sS'hike1328'
p249
S'Chuckanut Drive'
p250
sS'hike880'
p251
S'Snoqualmie Valley Trail and Snoqualmie Valley Trail Extension'
p252
sS'hike1322'
p253
S'Vanson Peak Trail Via Goat Creek Trail Loop'
p254
sS'hike1321'
p255
S'Three Corners Rock'
p256
sS'hike883'
p257
S'Plummer Peak via Pinnacle Peak Trail'
p258
sS'hike884'
p259
S'Birth of a Lake Trail'
p260
sS'hike1326'
p261
S'Council Bluff Trail'
p262
sS'hike886'
p263
S'Wenatchee Crest Trail'
p264
sS'hike887'
p265
S'Evans Creek OHV Loop '
p266
sS'hike408'
p267
S'Mount Pugh Trail'
p268
sS'hike409'
p269
S'Golden Gate Trail'
p270
sS'hike404'
p271
S'Olympic Coast South Trail'
p272
sS'hike405'
p273
S'Heather Meadows and Artists Point Trail'
p274
sS'hike406'
p275
S'Oyster Dome from Samish Overlook'
p276
sS'hike407'
p277
S'Carkeek Park Salmon'
p278
sS'hike400'
p279
S'Eagle Peak Trail'
p280
sS'hike401'
p281
S'Church Mountain Trail'
p282
sS'hike402'
p283
S'Spine Line, Ravine Run, White Horse, and Boundary Trails Loop'
p284
sS'hike403'
p285
S'Sunrise Rim Trail Loop and Mount Fremont Lookout'
p286
sS'hike310'
p287
S'Goldmyer Hot Springs Trail'
p288
sS'hike311'
p289
S'Grand Forest Park Trail'
p290
sS'hike312'
p291
S'Table Mountain Trail'
p292
sS'hike313'
p293
S'Salmon Creek Trail'
p294
sS'hike314'
p295
S'Norway Pass and Mount Margaret Via Boundary Trail'
p296
sS'hike315'
p297
S'Paradise Glacier Caves via Skyline Trail Spur'
p298
sS'hike316'
p299
S'Silver Peak Trail'
p300
sS'hike317'
p301
S'Baker Lake Trail'
p302
sS'hike318'
p303
S'Clara Lake and Marion Lake'
p304
sS'hike319'
p305
S'Washington Park Trail'
p306
sS'hike1859'
p307
S'Bells Mountain Trail to Cedar Creek'
p308
sS'hike1858'
p309
S'Lake Janus Trail'
p310
sS'hike1851'
p311
S'Silver Falls via Silver Falls Trail'
p312
sS'hike1850'
p313
S'Placid Lake Trail'
p314
sS'hike1853'
p315
S'Cedar Mountain via McGarvey Trail West'
p316
sS'hike1852'
p317
S'Chuckanut Falls'
p318
sS'hike1855'
p319
S'Old Road Loop to Wildlife Trail'
p320
sS'hike1854'
p321
S'Three Tree Point Indian Trail'
p322
sS'hike1857'
p323
S'Edmonds Boardwalk to Marina Beach Park'
p324
sS'hike1856'
p325
S'Lunch Lake Trail'
p326
sS'hike538'
p327
S'Horseshoe Lake Trail'
p328
sS'hike539'
p329
S'Upper and Lower Twin Falls via Twin Falls Trail'
p330
sS'hike530'
p331
S'Bean Creek Basin Trail'
p332
sS'hike531'
p333
S'Olympic Peninsula Loop Drive'
p334
sS'hike532'
p335
S'Upper Wildcat Lake Trail'
p336
sS'hike533'
p337
S'Goat Mountain Trail'
p338
sS'hike534'
p339
S'Boulder Garden Loop Trail'
p340
sS'hike535'
p341
S'Blue Mountain Trail'
p342
sS'hike536'
p343
S'Perry Creek Trail'
p344
sS'hike537'
p345
S'Lake Lillian Trail'
p346
sS'hike1331'
p347
S'Copper Glance Lake Trail'
p348
sS'hike1589'
p349
S'Gilbert Peak and Warm Lake Loop'
p350
sS'hike1588'
p351
S'Evergreen Farm Loop'
p352
sS'hike1587'
p353
S"Sam's River Trail"
p354
sS'hike1586'
p355
S'St Edward Grotto Trail'
p356
sS'hike1585'
p357
S'Tahoma Creek Suspension Bridge to Emerald Ridge Loop'
p358
sS'hike1584'
p359
S'Lake Samammish Kayak'
p360
sS'hike1583'
p361
S'Squire Creek Trail'
p362
sS'hike1582'
p363
S'Little Divide Loop'
p364
sS'hike1581'
p365
S'Copper Ridge Trail To Copper Lake'
p366
sS'hike1580'
p367
S'Narbeck Sanctuary Boardwalk Loop'
p368
sS'hike624'
p369
S'Ladder Creek Falls Trail'
p370
sS'hike625'
p371
S'Saltwater State Park Loop'
p372
sS'hike626'
p373
S'Upper Dungeness Trail to Constance Pass trail Junction'
p374
sS'hike627'
p375
S'Dosewallips State Park Trail'
p376
sS'hike620'
p377
S'Lake Washington North Trail to South Canyon Trail to Orchard Loop'
p378
sS'hike621'
p379
S'Windy Ridge Trail'
p380
sS'hike622'
p381
S'Moraine Trail'
p382
sS'hike623'
p383
S'Esmeralda Basin Loop Trail'
p384
sS'hike628'
p385
S'Duckabush River to Lacrosse Pass Trail'
p386
sS'hike629'
p387
S'Grand Park Trail past Lake Eleanor'
p388
sS'hike1333'
p389
S'Priest Point East Loop'
p390
sS'hike1334'
p391
S'Lillian Ridge Way Trail'
p392
sS'hike1921'
p393
S'Surprise Creek Trail to Shangri La Trail Loop'
p394
sS'hike1920'
p395
S'Icicle Creek Trail to Chatter Creek Trail'
p396
sS'hike1923'
p397
S'Jim Kaemingk Sr. Trail'
p398
sS'hike1922'
p399
S'Goat Rocks Three Loop'
p400
sS'hike1925'
p401
S'Squilchuck State Park Loop'
p402
sS'hike1924'
p403
S'Hansen Creek Trail'
p404
sS'hike1927'
p405
S'Redmond Connector to PSE Trail to Sammamish River Trail Loop'
p406
sS'hike1926'
p407
S"Trout Lake and Jack's Ridge Loop Trail"
p408
sS'hike1929'
p409
S'Spokane River Centennial Trail from East Euclid Avenue'
p410
sS'hike1928'
p411
S'Herman Saddle Ski Tour'
p412
sS'hike1336'
p413
S'Cypress Island: Pelican Trail'
p414
sS'hike124'
p415
S'Talus Rocks Loop'
p416
sS'hike2032'
p417
S'Trail 25 to Trail 100'
p418
sS'hike2033'
p419
S'Little Mountain, West Loop and Huff-N-Puff'
p420
sS'hike2030'
p421
S'Lake Louise Loop '
p422
sS'hike2031'
p423
S'Lake Pondilla Loop'
p424
sS'hike2036'
p425
S"O'Neill Pass To Lake La Crosse Loop"
p426
sS'hike2037'
p427
S"Granny's, Sacred Ridge, Farm and Upper Loop Trail"
p428
sS'hike2034'
p429
S'Domerie Peak Trail'
p430
sS'hike2035'
p431
S'Ring Road Trail'
p432
sS'hike2038'
p433
S'Big Cedar Trail to Flying Eagle Trail Loop'
p434
sS'hike2039'
p435
S'Goose Lake Campground'
p436
sS'hike1622'
p437
S'Elk Ridge, Hermit, Sherwood'
p438
sS'hike1623'
p439
S'Dead Horse Canyon: Wild Plant Walk'
p440
sS'hike1620'
p441
S'Bridle Crest Trail'
p442
sS'hike1621'
p443
S'Tamanous Trail #27'
p444
sS'hike1626'
p445
S'Spine Line and Boundary Trails Loop'
p446
sS'hike1627'
p447
S'Rattlesnake Trail'
p448
sS'hike1624'
p449
S'Deadhouse Creek Trail to Golden Gate Trail Loop'
p450
sS'hike1625'
p451
S'Evans Creek Preserve Short Loop'
p452
sS'hike1628'
p453
S'The Columbia River Mouth and Long Beach Peninsula Scenic Drive'
p454
sS'hike1629'
p455
S'Anti Aircraft Ridge Trail to Klondike Swamp Loop'
p456
sS'hike2106'
p457
S'Victoria Track to Monument '
p458
sS'hike2107'
p459
S'Blewett Pass Scenic Drive: Peshastin to Ellensburg'
p460
sS'hike2104'
p461
S'Castle Traverse'
p462
sS'hike2105'
p463
S'Crow Lake Trail'
p464
sS'hike2102'
p465
S'Northrop Homestead '
p466
sS'hike2103'
p467
S'Tarbell Trail Hidden Falls '
p468
sS'hike2100'
p469
S'Radio Flyer Loop and Summitview South Loop'
p470
sS'hike2101'
p471
S'Trail 211 to Centennial Trail'
p472
sS'hike2108'
p473
S'RIver Quarry Road, Quarry, River, and Pipeline Trail '
p474
sS'hike2109'
p475
S'Smith Creek Trail'
p476
sS'hike1136'
p477
S'Mirabeau Trail and Spokane River Centennial Trail Loop'
p478
sS'hike1137'
p479
S'Taneum Creek Trail'
p480
sS'hike1134'
p481
S'Walupt Lake Trail'
p482
sS'hike1135'
p483
S'Twin Sisters Trail and Tumac Mountain'
p484
sS'hike1132'
p485
S'Sage Hills Loop'
p486
sS'hike1133'
p487
S'Upper Dungeness Trail to Handy Camp'
p488
sS'hike1130'
p489
S'Beaver Lake Park Trail'
p490
sS'hike1131'
p491
S'Trillium Trail Loop'
p492
sS'hike1138'
p493
S'Round Lake Loop via Lake to Lake Trail'
p494
sS'hike1139'
p495
S'Keechelus Lake via the John Wayne Trail'
p496
sS'hike2218'
p497
S'Coal Mine and West Access Trail'
p498
sS'hike2219'
p499
S'Chewelah Mountain Trail'
p500
sS'hike2212'
p501
S'Lower River Run to Upper River Run Trail'
p502
sS'hike2213'
p503
S'Equestrian Loop'
p504
sS'hike2210'
p505
S'Otto Preserve Loop'
p506
sS'hike2211'
p507
S'360 Project Horse and Pedestrian Loop'
p508
sS'hike2216'
p509
S'Black Jack Ridge Trail'
p510
sS'hike2217'
p511
S'Mount Challenger: Challenger Glacier Route'
p512
sS'hike2214'
p513
S'May Creek Loop'
p514
sS'hike2215'
p515
S'Rimrock Drive'
p516
sS'hike1008'
p517
S'Turtleback Mountain to Orcas Knob'
p518
sS'hike1009'
p519
S'1000 Puddles Trail'
p520
sS'hike1002'
p521
S'Lily Basin Trail'
p522
sS'hike1003'
p523
S'Jetty Island Trail'
p524
sS'hike1000'
p525
S'Alger Alps'
p526
sS'hike1001'
p527
S'Tin Mine Trail and Davis Trail Loop'
p528
sS'hike1006'
p529
S'Catherine Creek Trail (020)'
p530
sS'hike1007'
p531
S'Yelm Tenino Trail'
p532
sS'hike1004'
p533
S'Gold Creek Trail'
p534
sS'hike1005'
p535
S'Carne Mountain Trail'
p536
sS'hike553'
p537
S'Iron Horse Trail: Upper Twin Falls to Mine Creek'
p538
sS'hike541'
p539
S'Bluff Mountain Trail'
p540
sS'hike2368'
p541
S'Early Winters Trail'
p542
sS'hike2369'
p543
S'Green Gulch Trail'
p544
sS'hike2366'
p545
S'Amabilis Mountain Loop'
p546
sS'hike2367'
p547
S'North Fork Nooksack Trail'
p548
sS'hike2364'
p549
S'Northwest Timber to The Legend and (Lower) East Tiger '
p550
sS'hike2365'
p551
S'Quartz Creek, Manastash Creek, Frost Mountain, Taneum Creek, and Greek Creek OHV Loop'
p552
sS'hike2362'
p553
S'McCellan Butte OHV Trail'
p554
sS'hike2363'
p555
S'South Twin to Moon Mountain'
p556
sS'hike2360'
p557
S'Camelot Spur and Cook Ferry Trail'
p558
sS'hike2361'
p559
S'Trail 212 and 25 Loop'
p560
sS'hike542'
p561
S'Green Mountain Trail'
p562
sS'hike1318'
p563
S'Agnes Gorge Trail'
p564
sS'hike1319'
p565
S'Fossil Trail'
p566
sS'hike1316'
p567
S'Olympic National Park Traverse: Hoh to Quinault'
p568
sS'hike1317'
p569
S'Langfield Falls Trail'
p570
sS'hike1314'
p571
S'Dumbbell Lake Loop'
p572
sS'hike1315'
p573
S'Trail 121: Waterfall Loop'
p574
sS'hike1312'
p575
S'Kalaloch Nature Trail'
p576
sS'hike1313'
p577
S'Mount Stuart'
p578
sS'hike1310'
p579
S'Steptoe Butte'
p580
sS'hike1311'
p581
S'Licorice Fern Trail'
p582
sS'hike439'
p583
S'Tatoosh Ridge Trail'
p584
sS'hike438'
p585
S'Van Trump Park Trail to Comet Falls'
p586
sS'hike547'
p587
S'Pratt River Trail'
p588
sS'hike431'
p589
S'Capitol Lake Trail'
p590
sS'hike430'
p591
S'Little Mountain Park Loop'
p592
sS'hike433'
p593
S'Starway Trail'
p594
sS'hike432'
p595
S'Banner Forest Heritage Park Loop'
p596
sS'hike435'
p597
S'Rainy Lake Trail'
p598
sS'hike434'
p599
S'Spruce Nature Trail'
p600
sS'hike437'
p601
S'Kaleetan Peak Trail '
p602
sS'hike436'
p603
S'Observation Peak Trail'
p604
sS'hike549'
p605
S'Red Town and Wildside Trails'
p606
sS'hike548'
p607
S'Bradley Lake Trail Loop'
p608
sS'hike981'
p609
S'Twin Firs Loop Trail'
p610
sS'hike980'
p611
S'Silver Lake Wetland Haven'
p612
sS'hike983'
p613
S'Big Huckleberry Mountain'
p614
sS'hike982'
p615
S'Kalaloch to Browns Point Trail'
p616
sS'hike329'
p617
S'Sleeping Beauty Trail'
p618
sS'hike328'
p619
S'McLane Creek Woods Trail'
p620
sS'hike987'
p621
S'Interlaken Park Loop'
p622
sS'hike986'
p623
S'Desolation Peak Trail via Ross Lake'
p624
sS'hike325'
p625
S'Mount Kit Carson Trail'
p626
sS'hike988'
p627
S'Ravenna Park Loop Trail'
p628
sS'hike327'
p629
S'Bead Lake Trail'
p630
sS'hike326'
p631
S'South Tiger Mountain Loop'
p632
sS'hike321'
p633
S'Table Mountain Trail via Pacific Crest Trail'
p634
sS'hike320'
p635
S'Palisades Trail (#1198)'
p636
sS'hike323'
p637
S'Upper Lodge to Artist Point Trail'
p638
sS'hike322'
p639
S'Hamilton Mountain Trail'
p640
sS'hike505'
p641
S'Dog Mountain Out and Back Route '
p642
sS'hike504'
p643
S'Lewisville Park Trail'
p644
sS'hike507'
p645
S'Spider Meadow Trail'
p646
sS'hike506'
p647
S'Marymere Falls Trail from Lake Crescent Lodge'
p648
sS'hike501'
p649
S'Lake Sylvia Trail'
p650
sS'hike500'
p651
S'Noble Knob Trail'
p652
sS'hike503'
p653
S'Spider Lake Trail'
p654
sS'hike502'
p655
S'Skyscraper Mountain via Wonderland Trail'
p656
sS'hike1824'
p657
S'McNary Wildlife Nature Loop'
p658
sS'hike1825'
p659
S'Stetattle Trail'
p660
sS'hike1826'
p661
S'Downtown Park Loop'
p662
sS'hike1827'
p663
S'Chico Trail and South Loop'
p664
sS'hike509'
p665
S'Shi Shi to Ozette River Beach Trail'
p666
sS'hike508'
p667
S'Grand Ridge Park Trail'
p668
sS'hike1822'
p669
S'PCT:  Smith Brook to Stevens Pass'
p670
sS'hike1823'
p671
S'BPA Trail'
p672
sS'hike189'
p673
S'Trail 25 and Centennial Trail'
p674
sS'hike188'
p675
S'Granite Lakes Trail'
p676
sS'hike181'
p677
S'Mount Adams South Climb Trail'
p678
sS'hike180'
p679
S"Dirty Harry's Balcony via Birdhouse Trail"
p680
sS'hike183'
p681
S'Sunrise Ridge Trail to Mount Angeles'
p682
sS'hike182'
p683
S'Olympic Hot Springs Trail'
p684
sS'hike185'
p685
S"Clark's Creek Trail "
p686
sS'hike184'
p687
S'Wallace Lake Via Woody Trail and Greg Ball Trail'
p688
sS'hike187'
p689
S'Rialto Beach Trail'
p690
sS'hike186'
p691
S'Robe Canyon Historic Trail'
p692
sS'hike611'
p693
S'Mount Muller Trail'
p694
sS'hike610'
p695
S'Saltese Uplands Loop'
p696
sS'hike613'
p697
S'Bear Creek Mountain'
p698
sS'hike612'
p699
S'Tiger Mountain: Around the Lake Trail'
p700
sS'hike615'
p701
S'Owyhigh Lakes Trail'
p702
sS'hike614'
p703
S'Miller Peninsula and Thompson Spit Trail'
p704
sS'hike617'
p705
S'Green Mountain via Davis and Gold Creek Trails'
p706
sS'hike616'
p707
S'Butte Camp Trail'
p708
sS'hike619'
p709
S'Cable Line Trail to West Tiger #3'
p710
sS'hike618'
p711
S'Sheep Lake and Sourdough Gap Trail'
p712
sS'hike923'
p713
S'Nannie Ridge Trail'
p714
sS'hike909'
p715
S'Antoine Peak East Loop'
p716
sS'hike908'
p717
S'Harstine Island State Park Trail'
p718
sS'hike1486'
p719
S'Big Gulch Trail via Harbour Pointe'
p720
sS'hike1487'
p721
S'Anti-Aircraft Ridge Trail to Cougar Mountain and Coyote Creek Trail'
p722
sS'hike1484'
p723
S'Spokane Lower Falls Overlook'
p724
sS'hike1485'
p725
S'North Beach and Hidden Valley Loop'
p726
sS'hike1482'
p727
S'Holly and Bluff Loop'
p728
sS'hike1483'
p729
S'Polallie Ridge Trail'
p730
sS'hike1480'
p731
S'Iverson Spit Preserve Loop'
p732
sS'hike1481'
p733
S'North Fork Asotin Creek Trail'
p734
sS'hike922'
p735
S'Hikers Hut Loop'
p736
sS'hike1958'
p737
S'Skagit Nature Trail Loop'
p738
sS'hike1959'
p739
S'Umtanum Ridge Road'
p740
sS'hike1488'
p741
S'East Tiger Mountain'
p742
sS'hike1489'
p743
S'Maury Island Viewpoint Trail'
p744
sS'hike149'
p745
S'Paradise Valley Conservation Area Trail'
p746
sS'hike2270'
p747
S'Sand Creek and Devils Gulch OHV Trail '
p748
sS'hike2271'
p749
S'Ephemeral to Big Leaf Trail Loop'
p750
sS'hike1260'
p751
S'Cranberry Lake'
p752
sS'hike2273'
p753
S'Evergreen State College Trail'
p754
sS'hike1266'
p755
S'Hyak Creek Trail'
p756
sS'hike2275'
p757
S'Celebration Park Trail'
p758
sS'hike2276'
p759
S'Marine Loop Trail'
p760
sS'hike1265'
p761
S'Church Creek - Satsop Lakes Trail'
p762
sS'hike1558'
p763
S'Lone Goat Mountain Via Skyline Trail'
p764
sS'hike1559'
p765
S'Queets River Road'
p766
sS'hike1550'
p767
S'Huntoon Trail and Douglas Fir Trail Loop'
p768
sS'hike1551'
p769
S'Red Mountain via Pacific Crest and Indian Race Track Loop'
p770
sS'hike1552'
p771
S'Long Island Trails'
p772
sS'hike1553'
p773
S"Central Peak, West Peak, and Debbie's View Loop"
p774
sS'hike1554'
p775
S'Green Diamond Trail'
p776
sS'hike1555'
p777
S'Mad River Trail'
p778
sS'hike1556'
p779
S'Sand Lake and Deer Lake Trail'
p780
sS'hike1557'
p781
S'Golden Lakes Trail'
p782
sS'hike2025'
p783
S'Downey Creek Trail'
p784
sS'hike2024'
p785
S'China Lake Loop'
p786
sS'hike2027'
p787
S'Lewis and Clark Columbia River Shoreline Short Loop'
p788
sS'hike2026'
p789
S'Bayview, Suzuki and Whiskey Hill Loop '
p790
sS'hike2021'
p791
S'Warren G. Magnuson Park Loop'
p792
sS'hike2020'
p793
S'Putnam Loop'
p794
sS'hike2023'
p795
S'San Juan Hill Trail'
p796
sS'hike2022'
p797
S'Chamna Natural Preserve Trail'
p798
sS'hike2029'
p799
S'Table Mountain via Aldrich Butte [PRIVATE PROPERTY]'
p800
sS'hike2028'
p801
S'Lahar Viewpoint Trail'
p802
sS'hike1635'
p803
S'Devils Gulch Trail'
p804
sS'hike1634'
p805
S'Mount Angeles via Switchback Trail'
p806
sS'hike1637'
p807
S'Lake Sammamish Loop'
p808
sS'hike1636'
p809
S'North, Wetland, Big Loop and Big Tree Loop'
p810
sS'hike1631'
p811
S'Klickitat Trail'
p812
sS'hike1630'
p813
S'Bear Ridge to Shangri La Trail to West Tibbetts Creek Loop'
p814
sS'hike1633'
p815
S'Spiral Butte Trail'
p816
sS'hike1632'
p817
S'Dry Gulch Big Loop'
p818
sS'hike1639'
p819
S'Rat Pac Trail'
p820
sS'hike1638'
p821
S'Mineral Rock Trail'
p822
sS'hike2119'
p823
S'Cameron Creek via Three Forks Trail'
p824
sS'hike2118'
p825
S'Kettles Trail '
p826
sS'hike2111'
p827
S'Steamboat Mountain Trail'
p828
sS'hike2110'
p829
S'Spencer Butte Trail'
p830
sS'hike2113'
p831
S'Cougar Canyon'
p832
sS'hike2112'
p833
S'Madrone Trail'
p834
sS'hike2115'
p835
S'Echo Lake Loop '
p836
sS'hike2114'
p837
S'Sherman Pass Scenic Byway'
p838
sS'hike2117'
p839
S'Bedal Creek Trail'
p840
sS'hike2116'
p841
S'Fourth Crossing Trail'
p842
sS'hike1129'
p843
S'Hozomeen Lake Trail'
p844
sS'hike1128'
p845
S'Kanaskat-Palmer Loop'
p846
sS'hike1121'
p847
S'Grays Harbor National Wildlife Refuge'
p848
sS'hike1120'
p849
S'Snow Mountain Ranch'
p850
sS'hike1123'
p851
S'Ruby Mountain Summit via Fourth of July and Thunder Creek Trail '
p852
sS'hike1122'
p853
S'Cedar River Trail-East End'
p854
sS'hike1125'
p855
S'Dosweallips Road to Constance Pass Trail'
p856
sS'hike1124'
p857
S'Falls Creek via Quinault Loop Trail'
p858
sS'hike1127'
p859
S'Cathedral Rock Trail'
p860
sS'hike1126'
p861
S'Windy Pass via the PCT'
p862
sS'hike2209'
p863
S"Kautz to Longmire via Indian Henry's Hunting Ground"
p864
sS'hike2208'
p865
S'Wenatchee Ridge'
p866
sS'hike2205'
p867
S'Little Ranger Peak Loop'
p868
sS'hike2204'
p869
S'Tiger Mountain MTB Loop: Northwest Timber, The Legend, Joyride, East Tiger, Master Link'
p870
sS'hike2207'
p871
S'Nisqually State Park Trail'
p872
sS'hike2206'
p873
S'Swinomish Channel Loop via Knudson Lane'
p874
sS'hike2201'
p875
S'Mount Maude via Phelps Creek Trail'
p876
sS'hike2200'
p877
S'Fern Cove'
p878
sS'hike2203'
p879
S'Agate Bay Preserve Loop'
p880
sS'hike2202'
p881
S'Stewart Memorial Park Trail'
p882
sS'hike1019'
p883
S'Phillip Arnold Park (The Tapeworm and Parasite Trails)'
p884
sS'hike1018'
p885
S'Klickitat River Trail'
p886
sS'hike1015'
p887
S'Cherry Creek Falls Trail [PRIVATE PROPERTY]'
p888
sS'hike1014'
p889
S'Rattlesnake Lake Trail'
p890
sS'hike1017'
p891
S'South Beach and Hidden Valley Loop Trail'
p892
sS'hike1016'
p893
S'Castle Rock'
p894
sS'hike1011'
p895
S'North Fork Sauk Trail'
p896
sS'hike1010'
p897
S'Panjab Trail'
p898
sS'hike1013'
p899
S'Tieton Nature Trail'
p900
sS'hike1012'
p901
S'Golden Gardens Trail'
p902
sS'hike692'
p903
S'Northhead Lighthouse Loop Trail'
p904
sS'hike2371'
p905
S'Ahtanum State Forest OHV Route'
p906
sS'hike2370'
p907
S'Willow Lake Trail'
p908
sS'hike2373'
p909
S'Jackman Creek OHV Trail'
p910
sS'hike2372'
p911
S'Trail 101: North Trail Red Loop'
p912
sS'hike2375'
p913
S'Whispering Pines Loop'
p914
sS'hike2374'
p915
S'Cold Creek to Rock Creek Camp via Tarbell Trail'
p916
sS'hike2377'
p917
S'Sewerline and West Pond Loop '
p918
sS'hike2376'
p919
S'Golden Spike, SST, and Back Door Loop'
p920
sS'hike2379'
p921
S'Coho Preserve Trail '
p922
sS'hike2378'
p923
S'Lopez Island Loop'
p924
sS'hike1301'
p925
S'Talapus, Olallie and Pratt Lake '
p926
sS'hike1300'
p927
S'Larch Mountain Loop Trail'
p928
sS'hike1303'
p929
S'Spokane River Walk'
p930
sS'hike1302'
p931
S'Falls Creek Trail Winter Route'
p932
sS'hike1305'
p933
S'Merrill Lake Campground'
p934
sS'hike1304'
p935
S'Wildside Trail to Shy Bear Trail to Cave Hole Trail '
p936
sS'hike1307'
p937
S'Irely Lake Trail'
p938
sS'hike1306'
p939
S'Spada Lake Culmback Dam Trail'
p940
sS'hike1309'
p941
S'Holder Ridge, Road A, Road F and Whiskey Still Loop'
p942
sS'hike1308'
p943
S'Hog Lake Loop'
p944
sS'hike338'
p945
S'Chanterelle Trail'
p946
sS'hike339'
p947
S'Centennial Trail'
p948
sS'hike998'
p949
S'Fish Lake Trail'
p950
sS'hike999'
p951
S'Beach Trail 2'
p952
sS'hike996'
p953
S'PCT: WA Section I - Highway 12 to Snoqualmie Pass'
p954
sS'hike333'
p955
S'Evans Creek Preserve Trail'
p956
sS'hike330'
p957
S'Greider Lakes Trail'
p958
sS'hike995'
p959
S'Tacoma Narrows Bridge'
p960
sS'hike336'
p961
S'Chenuis Falls Trail'
p962
sS'hike337'
p963
S"Herman's Peak"
p964
sS'hike334'
p965
S'Alki Trail'
p966
sS'hike335'
p967
S'Lodge Lake Trail'
p968
sS'hike512'
p969
S'Padilla Bay Trail'
p970
sS'hike513'
p971
S'Hyas Lake Trail'
p972
sS'hike510'
p973
S'Mima Mounds Trail'
p974
sS'hike511'
p975
S'Hex Mountain Trail'
p976
sS'hike516'
p977
S'Hugo Peak Trail'
p978
sS'hike517'
p979
S'Beacon Hill Trail'
p980
sS'hike514'
p981
S'Racehorse Falls Trail'
p982
sS'hike515'
p983
S'Mount Washington'
p984
sS'hike1837'
p985
S'New Panther Lake Trail'
p986
sS'hike1836'
p987
S'Grade Creek to Cooper Ridge'
p988
sS'hike518'
p989
S'Easy Pass Trail'
p990
sS'hike1834'
p991
S'I-90 Trail to the Lake to Lake Trail'
p992
sS'hike1833'
p993
S'Banks Lake Trail'
p994
sS'hike1832'
p995
S'Sherman Pass Trail'
p996
sS'hike1831'
p997
S'John Wayne Pioneer Trail: Ewan to Tekoa'
p998
sS'hike1830'
p999
S'Anti-Aircraft Ridge Trail and Tibbetts Marsh Trail'
p1000
sS'hike196'
p1001
S'Coldwater Lake Trail'
p1002
sS'hike197'
p1003
S'Ellis Cove Trail'
p1004
sS'hike194'
p1005
S'Bowl and Pitcher Loop Trail'
p1006
sS'hike195'
p1007
S'Tiger Mountain Trail: Preston Railroad Grade to Silent Swamp and Joyride to Northwest Timber'
p1008
sS'hike192'
p1009
S'Seward Park Perimeter Loop'
p1010
sS'hike193'
p1011
S'Lake Stuart Trail'
p1012
sS'hike190'
p1013
S'Cascade Pass and Sahale Arm Trail'
p1014
sS'hike191'
p1015
S'Rocks of Sharon Trail'
p1016
sS'hike198'
p1017
S'Hidden Falls via Tarbell Trail '
p1018
sS'hike199'
p1019
S'Japanese Gulch Loop Trail'
p1020
sS'hike426'
p1021
S'Manastash Ridge Trail'
p1022
sS'hike427'
p1023
S'Shriner Peak Lookout Trail'
p1024
sS'hike424'
p1025
S'Goat Creek Trail'
p1026
sS'hike425'
p1027
S'Illahee Preserve Loop Trail'
p1028
sS'hike422'
p1029
S'Copper Creek Trail'
p1030
sS'hike423'
p1031
S'West Tiger #3'
p1032
sS'hike420'
p1033
S'Quartz Mountain Lookout Trail'
p1034
sS'hike421'
p1035
S'Bare Mountain Trail'
p1036
sS'hike428'
p1037
S'Lower Falls Recreation Area Campground'
p1038
sS'hike429'
p1039
S'Lower South Fork Skokomish Trail'
p1040
sS'hike332'
p1041
S'Cutthroat Lake and Cutthroat Pass'
p1042
sS'hike608'
p1043
S'Titlow Park'
p1044
sS'hike997'
p1045
S'Zig Zag Lake Trail'
p1046
sS'hike606'
p1047
S'Fourth of July Creek Trail to Icicle Ridge'
p1048
sS'hike607'
p1049
S'Beacon Hill Loop from Shields Park Trailhead'
p1050
sS'hike604'
p1051
S'Mount Forgotten Meadows Trail'
p1052
sS'hike605'
p1053
S'Old Snowy Mountain via Snowgrass Trail'
p1054
sS'hike602'
p1055
S'Trail of the Cedars Nature Walk  '
p1056
sS'hike994'
p1057
S'North Fork of the Sol Duc Trail'
p1058
sS'hike600'
p1059
S'Lake Wenatchee Trail'
p1060
sS'hike601'
p1061
S'Evolution, Unemployment Line, and Atomic Dog Trail'
p1062
sS'hike331'
p1063
S'Pinnacle Lake Trail'
p1064
sS'hike992'
p1065
S'Spade Lake Trail'
p1066
sS'hike993'
p1067
S'Shangri La Trail to West Tibbetts Creek Trail and Tibbetts Marsh'
p1068
sS'hike990'
p1069
S'Antoine Peak Summit Loop from East Trailhead'
p1070
sS'hike991'
p1071
S'Trail #25'
p1072
sS'hike1499'
p1073
S'Kloochman Rock Climb'
p1074
sS'hike1498'
p1075
S'Harper Park Trail'
p1076
sS'hike1491'
p1077
S'Wilderness Peak and Squak Mountain Loop'
p1078
sS'hike1490'
p1079
S'Tull Canyon Trail via Tubal Cain Trail'
p1080
sS'hike1493'
p1081
S'Conrad Meadows Trail'
p1082
sS'hike1492'
p1083
S'Ironstone Mountain Trail'
p1084
sS'hike1495'
p1085
S'Monte Carlo Trail'
p1086
sS'hike1494'
p1087
S'Skagit River Delta Trail'
p1088
sS'hike1497'
p1089
S'Pioneer Park'
p1090
sS'hike1496'
p1091
S'Leadbetter Point Trail'
p1092
sS'hike1947'
p1093
S'Old Loop and Rhodie Trail'
p1094
sS'hike1946'
p1095
S'Dodger Point via Long Ridge Trail'
p1096
sS'hike1945'
p1097
S'June Lake Trail to Loowit Falls'
p1098
sS'hike1944'
p1099
S'Pilchuck Tree Farm Loop from Bracken Trailhead'
p1100
sS'hike1943'
p1101
S'Trail #126, #118, #109 and #108 Loop '
p1102
sS'hike1942'
p1103
S'Colockum Road'
p1104
sS'hike1941'
p1105
S'Snoqualmie River: Fall City to Tolt River Mouth'
p1106
sS'hike1940'
p1107
S'Tibbetts Marsh Loop via Bear Ridge Trail'
p1108
sS'hike1440'
p1109
S'Echo Point Trail'
p1110
sS'hike1949'
p1111
S'Blythe Lake and Coulee Trail'
p1112
sS'hike1948'
p1113
S'Moses Coulee Trail'
p1114
sS'hike1441'
p1115
S'Skagit Wildlife Area'
p1116
sS'hike1839'
p1117
S'Orange Gate Park Loop'
p1118
sS'hike1446'
p1119
S'Plummer and Beaver Pond Trail'
p1120
sS'hike1838'
p1121
S'Lower Elkspur and Upper Elkspur Loop'
p1122
sS'hike1447'
p1123
S'Middle Point Trail to Ski Bluewood'
p1124
sS'hike163'
p1125
S'Cal Magnusson Trail'
p1126
sS'hike1444'
p1127
S'Ross Dam and Diablo Lake Trail'
p1128
sS'hike162'
p1129
S'Cascade Pass Trail to Cottonwood Camp'
p1130
sS'hike1445'
p1131
S'Pend Oreille Pathfinder Loop'
p1132
sS'hike693'
p1133
S'Iron Bear Trail #1351'
p1134
sS'hike519'
p1135
S'Black and White Lakes Primitive Trail'
p1136
sS'hike695'
p1137
S'Blake Island State Park Trails'
p1138
sS'hike694'
p1139
S'Merritt Lake Trail'
p1140
sS'hike165'
p1141
S'Gold Creek Pond Trail'
p1142
sS'hike164'
p1143
S'Melmont Ghost Town via Foothills Trail'
p1144
sS'hike1549'
p1145
S'Sultan Basin Trails'
p1146
sS'hike1548'
p1147
S'Mount Bonaparte Trail'
p1148
sS'hike1543'
p1149
S'Shorthorn Trail'
p1150
sS'hike1542'
p1151
S'Banner Forest Mountain Bike Loop'
p1152
sS'hike1541'
p1153
S'Burley Mountain Trail'
p1154
sS'hike1540'
p1155
S'Mount Spokane Trail 100 to Smith Gap'
p1156
sS'hike1547'
p1157
S'Terrell Marsh Trail'
p1158
sS'hike1546'
p1159
S'Similkameen Trail'
p1160
sS'hike1545'
p1161
S'Little Ranger Peak Trail'
p1162
sS'hike1544'
p1163
S'Klonaqua Lakes'
p1164
sS'hike2168'
p1165
S'Middle Fork Snoqualmie River Trail [CLOSED]'
p1166
sS'hike2169'
p1167
S'Magnet Creek Trail'
p1168
sS'hike2164'
p1169
S'Raven Trail'
p1170
sS'hike2165'
p1171
S'Blue Gate to Old Timber to Wolf Ridge to Beaver Loop'
p1172
sS'hike2166'
p1173
S'Boundary Trails: Elk Pass to Johnston Ridge Observatory'
p1174
sS'hike2167'
p1175
S'Honey Creek Open Space'
p1176
sS'hike2160'
p1177
S'360 Park Ticket to Ride MTB Loop'
p1178
sS'hike2161'
p1179
S'Scott Pierson Trail'
p1180
sS'hike2162'
p1181
S'Mount Pickett via Fortman\xe2\x80\x99s Trail'
p1182
sS'hike2163'
p1183
S'Mt Adams via Divide Camp Trail #112 and PCT'
p1184
sS'hike1158'
p1185
S'Indian Bar Trail'
p1186
sS'hike1159'
p1187
S'Six Summits Trail'
p1188
sS'hike1154'
p1189
S'Hansville Greenway Trail'
p1190
sS'hike1155'
p1191
S'Seven Mile Loop'
p1192
sS'hike1156'
p1193
S'Wonderland Trail Loop'
p1194
sS'hike1157'
p1195
S'Pinnacle Peak Full Loop'
p1196
sS'hike1150'
p1197
S'Trail of the Deer and Old Growth Forest Trail Loop'
p1198
sS'hike1151'
p1199
S'Kelcema Lake Trail'
p1200
sS'hike1152'
p1201
S'Nordic Pass Trail'
p1202
sS'hike1153'
p1203
S'Squaw Lake Via Cathedral Pass Trail'
p1204
sS'hike1798'
p1205
S'Cowlitz Divide Trail'
p1206
sS'hike1799'
p1207
S'Three Peaks Trail to Lost Lake'
p1208
sS'hike1792'
p1209
S"Friend's Landing Trail"
p1210
sS'hike1793'
p1211
S'Moss Lake Loop'
p1212
sS'hike1790'
p1213
S'Meander Meadow Kodak Peak Trail'
p1214
sS'hike1791'
p1215
S'Carne Mountain Basin'
p1216
sS'hike1796'
p1217
S'Happy Creek Falls'
p1218
sS'hike1797'
p1219
S'Meta Lake Trail'
p1220
sS'hike1794'
p1221
S'Clallam Bay to Neah Bay Scenic Drive'
p1222
sS'hike1795'
p1223
S'Klondike Swamp Trail'
p1224
sS'hike1872'
p1225
S'Nestor Peak Trail'
p1226
sS'hike2304'
p1227
S'Lower Falls and Woodburn Falls via Lake to Lake Trail'
p1228
sS'hike2305'
p1229
S'Deer Lake and Little Divide Trail '
p1230
sS'hike2306'
p1231
S'West Duwamish Greenbelt and Douglas Fir Spur Trail'
p1232
sS'hike2307'
p1233
S'Adventure and High School Trail Loop'
p1234
sS'hike2300'
p1235
S'Image Lake via Suiattle Trail'
p1236
sS'hike2301'
p1237
S'Early Winters Spires'
p1238
sS'hike859'
p1239
S'Northrup Canyon'
p1240
sS'hike858'
p1241
S'Coleman Glacier Via Heliotrope Ridge Trail'
p1242
sS'hike857'
p1243
S'Goat Marsh'
p1244
sS'hike856'
p1245
S'Blanchard Hill Loop'
p1246
sS'hike855'
p1247
S'Baker Hot Springs'
p1248
sS'hike854'
p1249
S'Suntop Trail'
p1250
sS'hike853'
p1251
S'Chinook Trail: Section One'
p1252
sS'hike852'
p1253
S'Iceberg Point Trail'
p1254
sS'hike851'
p1255
S'Shelton View Forest'
p1256
sS'hike850'
p1257
S'Olympic National Park Little River Trail'
p1258
sS'hike1374'
p1259
S'Pratt Lake Trail via Mason Lake Trail'
p1260
sS'hike1375'
p1261
S'Dishman Hills Pond Loop Trail'
p1262
sS'hike1376'
p1263
S'Shady Lane Trail'
p1264
sS'hike1377'
p1265
S'Sares Head'
p1266
sS'hike1370'
p1267
S'Sunrise Peak Trail'
p1268
sS'hike1371'
p1269
S'Main Trail and Pipeline Trail Loop'
p1270
sS'hike1372'
p1271
S'West Lake Mills Trail'
p1272
sS'hike1373'
p1273
S'Peek-A-Boo Lake Trail'
p1274
sS'hike1378'
p1275
S'North Rim Trail to Rock Candy Mountain East Trail'
p1276
sS'hike1379'
p1277
S'Mount Erie and Whistle Lake Loop'
p1278
sS'hike295'
p1279
S'Sheep Lake Trail'
p1280
sS'hike294'
p1281
S'Thunder Mountain Lakes Trail'
p1282
sS'hike297'
p1283
S'Sammamish River Trail'
p1284
sS'hike296'
p1285
S'Whistle Lake Trail'
p1286
sS'hike291'
p1287
S'Red Mountain via Old Commonwealth Trail'
p1288
sS'hike290'
p1289
S"Heart O' the Forest Trail"
p1290
sS'hike293'
p1291
S'Boulder Cave Trail'
p1292
sS'hike292'
p1293
S'Pete Lake'
p1294
sS'hike299'
p1295
S'West Tiger # 3 via Cable Line Trail Loop'
p1296
sS'hike298'
p1297
S'Gillette Lake'
p1298
sS'hike2418'
p1299
S'Little Hoquiam River Trail'
p1300
sS'hike2419'
p1301
S'Leroy Haagen Memorial Park Loop'
p1302
sS'hike1297'
p1303
S'Shadow Mountain Loop Trail'
p1304
sS'hike2410'
p1305
S'Finney Creek and Iron Mountain OHV Trail'
p1306
sS'hike2411'
p1307
S'Cedar Flats'
p1308
sS'hike2412'
p1309
S'Waddell Basin West Loop'
p1310
sS'hike2413'
p1311
S'Larch Mountain, Capitol Peak, and Waddell Creek Loop'
p1312
sS'hike2414'
p1313
S'Belfair Staging to Tahuya River Trail OHV Loop'
p1314
sS'hike2415'
p1315
S'Clearcut Boulders'
p1316
sS'hike2416'
p1317
S'Russell Ridge and Rimrock Lake OHV Loop'
p1318
sS'hike2417'
p1319
S'Tres Hombres'
p1320
sS'hike1208'
p1321
S'Main Fork Dosewallips River Trail'
p1322
sS'hike1209'
p1323
S'Lower Falls via Lake to Lake Trail'
p1324
sS'hike1200'
p1325
S'Ohanapecosh and Stafford Falls Trail'
p1326
sS'hike1201'
p1327
S'Spirit of America Trail'
p1328
sS'hike1202'
p1329
S'Shark Reef Recreation Area'
p1330
sS'hike1203'
p1331
S'Evergreen Beach Trail'
p1332
sS'hike1204'
p1333
S'Long View Peak Trail'
p1334
sS'hike1205'
p1335
S'Fort Cascades Trail'
p1336
sS'hike1206'
p1337
S'Mainline Trail'
p1338
sS'hike1207'
p1339
S'Norway Pass Trail Out-and-Back'
p1340
sS'hike1802'
p1341
S'Sand Lake Trail'
p1342
sS'hike1803'
p1343
S'Ravenna Creek Trail'
p1344
sS'hike1800'
p1345
S'Swamp Lake Trail'
p1346
sS'hike1801'
p1347
S'Golden Lakes Loop'
p1348
sS'hike1806'
p1349
S"Mount Rainier Overlook via River and Katie's Trail"
p1350
sS'hike1807'
p1351
S'Uplands Loop: Short Draw, Summit and Turtle Gulch Trails'
p1352
sS'hike1804'
p1353
S'Green River Trail: Tukwila Section'
p1354
sS'hike1805'
p1355
S'Military Road Trail'
p1356
sS'hike1808'
p1357
S'West Tiger #1 via Preston and Tiger Mountain Trail Loop'
p1358
sS'hike1809'
p1359
S'Gee Point Trail'
p1360
sS'hike1295'
p1361
S'Brownie Trail'
p1362
sS'hike565'
p1363
S'LBA Park Loop Trail'
p1364
sS'hike453'
p1365
S'Flaming Geyser State Park Trail'
p1366
sS'hike452'
p1367
S'Lily and Lizard Lakes Loop Trail'
p1368
sS'hike451'
p1369
S'Boundary Trail to Coldwater Peak'
p1370
sS'hike450'
p1371
S'Mima Falls Loop'
p1372
sS'hike457'
p1373
S'Iron Creek Falls Trail'
p1374
sS'hike456'
p1375
S'Bellevue Botanical Park and Wilburton Hill Park'
p1376
sS'hike455'
p1377
S'Frenchman Coulee'
p1378
sS'hike454'
p1379
S'Des Moines Creek Trail'
p1380
sS'hike459'
p1381
S'Cascade Pass Trail'
p1382
sS'hike458'
p1383
S'Chuckanut Mountain'
p1384
sS'hike1457'
p1385
S'Dry Gulch South Ridge and Rooster Comb Loop'
p1386
sS'hike609'
p1387
S'Lake Ann Trail'
p1388
sS'hike679'
p1389
S'Bullitt Access Loop'
p1390
sS'hike678'
p1391
S'Round Lake and Camas Potholes Falls via Lacmas Creek'
p1392
sS'hike673'
p1393
S'Tolt-MacDonald Overlook'
p1394
sS'hike672'
p1395
S'Fallsview Canyon Trail'
p1396
sS'hike671'
p1397
S'Trail of Two Forests Trail '
p1398
sS'hike670'
p1399
S'Cape Disappointment Lighthouse Trail'
p1400
sS'hike677'
p1401
S'Shoreview and Boeing Creek Loop'
p1402
sS'hike676'
p1403
S'Puget Park Trail'
p1404
sS'hike675'
p1405
S'Mazama Ridge Trail to Faraway Rock'
p1406
sS'hike674'
p1407
S'Gladys Divide Primitive Trail'
p1408
sS'hike603'
p1409
S'Madcap Falls Trail'
p1410
sS'hike569'
p1411
S'Chelan Butte Trail'
p1412
sS'hike568'
p1413
S'Cascade Lake Trail'
p1414
sS'hike1978'
p1415
S'Teneriffe, Blowdown and Si Loop'
p1416
sS'hike1979'
p1417
S'Tokul East Loop'
p1418
sS'hike1972'
p1419
S'Kennedy Creek Basin and Falls '
p1420
sS'hike1973'
p1421
S'Crystal Lake Trail'
p1422
sS'hike1970'
p1423
S'Three Summits Loop via Cable Line and Tiger Mountain Trail'
p1424
sS'hike1971'
p1425
S'Klickitat Trail: Milepost 16-13  '
p1426
sS'hike1976'
p1427
S'Community Garden and Beach Walk Loop '
p1428
sS'hike1977'
p1429
S'Big Tree Loop'
p1430
sS'hike1974'
p1431
S'Big Cedar to Old Timber to Bobcat Run Loop'
p1432
sS'hike1975'
p1433
S"O'Neil Pass via North Fork of Skokomish Trail"
p1434
sS'hike707'
p1435
S'Harmony Trail'
p1436
sS'hike706'
p1437
S'Jim Martinson Exercise Trail'
p1438
sS'hike705'
p1439
S'Point No Point Lighthouse and Park Trail'
p1440
sS'hike704'
p1441
S'Grand Prospect Via Rattlesnake Mountain Trail'
p1442
sS'hike703'
p1443
S'Obstruction Pass Trail'
p1444
sS'hike702'
p1445
S'Round Mountain Trail'
p1446
sS'hike701'
p1447
S'Evergreen Lookout Trail'
p1448
sS'hike700'
p1449
S'Huntoon Point Via Artist Point Trail'
p1450
sS'hike709'
p1451
S"Mount Daniel and Peggy's Pond via Cathedral Pass Trail"
p1452
sS'hike708'
p1453
S'Easton Ridge Trail'
p1454
sS'hike1578'
p1455
S'King County Interurban Trail'
p1456
sS'hike1579'
p1457
S'Tunnel Creek Trail to Hope Lake'
p1458
sS'hike1576'
p1459
S'Hayden Pass Trail'
p1460
sS'hike1577'
p1461
S'Devils Gulch'
p1462
sS'hike1574'
p1463
S'Rocky Top to Cowiche Mountain'
p1464
sS'hike1575'
p1465
S'Victor Falls Trail'
p1466
sS'hike1572'
p1467
S'Saddle Rock to Green Shack'
p1468
sS'hike1573'
p1469
S'Mimzie Loop'
p1470
sS'hike1570'
p1471
S'Five Mile Drive'
p1472
sS'hike1571'
p1473
S'Cave B Waterfall Trail'
p1474
sS'hike929'
p1475
S'Augspurger Mountain: Dog and Cat Trail '
p1476
sS'hike928'
p1477
S'Little Spokane River: Waikiki Springs trail'
p1478
sS'hike2179'
p1479
S"Tuffy's Trail"
p1480
sS'hike2178'
p1481
S'Dakota Dog Park Loop'
p1482
sS'hike2177'
p1483
S'Skagit River: Copper Creek to Rockport'
p1484
sS'hike2176'
p1485
S'Devils Gulch Loop'
p1486
sS'hike2175'
p1487
S'Table Mountain Ski Tour'
p1488
sS'hike2174'
p1489
S'Bridge Creek Trail'
p1490
sS'hike2173'
p1491
S'Sentinel Mountain'
p1492
sS'hike2172'
p1493
S"Martin's Access Trail"
p1494
sS'hike2171'
p1495
S'Scout Patrol Peak'
p1496
sS'hike2170'
p1497
S'Lake Boren Loop'
p1498
sS'hike1149'
p1499
S'Ranger Hole Trail'
p1500
sS'hike1148'
p1501
S'John MacDonald Park Mountain Bike Trails Loop'
p1502
sS'hike1147'
p1503
S'North Twin: West Ridge'
p1504
sS'hike1146'
p1505
S'Shannon Ridge Trail'
p1506
sS'hike1145'
p1507
S'360 Project Main Trail'
p1508
sS'hike1144'
p1509
S'Flying EagleTrail to Beaver Loop and Big Cedar Loop Trail'
p1510
sS'hike1143'
p1511
S'Juanita Bay Park'
p1512
sS'hike1142'
p1513
S'Fishtrap Lake'
p1514
sS'hike1141'
p1515
S'Wolf Creek Trail'
p1516
sS'hike1140'
p1517
S'Hurricane Hill'
p1518
sS'hike1789'
p1519
S'Dalles Ridge Trail Via Noble Knob Trail'
p1520
sS'hike1788'
p1521
S'Badger Mountain from East 210 PR NE'
p1522
sS'hike1785'
p1523
S'Cassidy Creek'
p1524
sS'hike1784'
p1525
S'White Pass Scenic Byway'
p1526
sS'hike1787'
p1527
S'Wenatchee River (Whitewater)'
p1528
sS'hike1786'
p1529
S'Crab Creek'
p1530
sS'hike1781'
p1531
S'Rowland Loop'
p1532
sS'hike1780'
p1533
S'Quartz Creek Big Trees Trail'
p1534
sS'hike1783'
p1535
S'Bulitt Access Trail to Summit'
p1536
sS'hike1782'
p1537
S'Mainline, Southern Traverse and Cedar Run Loop'
p1538
sS'hike1323'
p1539
S'Cathedral Pass and Deception Pass Loop '
p1540
sS'hike881'
p1541
S'Bon Jon Pass OHV Route'
p1542
sS'hike882'
p1543
S'Hoh River Trail to Hoh Lake Trail'
p1544
sS'hike1320'
p1545
S'Fragrance Lake Extended Loop'
p1546
sS'hike1327'
p1547
S'Aurora Ridge Trail'
p1548
sS'hike885'
p1549
S'Carbon Trail to Bearhead Trail'
p1550
sS'hike1325'
p1551
S'Larry Scott Trail'
p1552
sS'hike1324'
p1553
S'Neiderprum Trail to Whitehorse Mountain'
p1554
sS'hike98'
p1555
S'Iron Goat Trail'
p1556
sS'hike99'
p1557
S'Mount Dickerman Trail'
p1558
sS'hike94'
p1559
S'Park Butte Lookout Trail '
p1560
sS'hike95'
p1561
S"Margaret's Way Trail"
p1562
sS'hike96'
p1563
S'Fragrance Lake Trail'
p1564
sS'hike97'
p1565
S'Iller Creek Conservation Area Trail'
p1566
sS'hike90'
p1567
S'Wind Mountain Trail'
p1568
sS'hike91'
p1569
S'Lake to Lake Trail, Red Tape Trail, Palmer Trail to Round Lake Loop'
p1570
sS'hike92'
p1571
S'Diablo Lake Trail'
p1572
sS'hike93'
p1573
S'Palouse Falls Trail'
p1574
sS'hike2317'
p1575
S'North Fork Skykomish Trail'
p1576
sS'hike2316'
p1577
S'Newcastle Highlands Trail'
p1578
sS'hike2315'
p1579
S'Bald Knob via Trail 131 '
p1580
sS'hike2314'
p1581
S'Basecamp Loop'
p1582
sS'hike2313'
p1583
S'Belfair and Howell Lake OHV Loop'
p1584
sS'hike2312'
p1585
S'Frozen Trail '
p1586
sS'hike2311'
p1587
S'Goat Wall Loop'
p1588
sS'hike2310'
p1589
S'Vashon Nature Preserve'
p1590
sS'hike844'
p1591
S'Pyramid Lake Trail'
p1592
sS'hike845'
p1593
S'Lake George Trail'
p1594
sS'hike846'
p1595
S'Pipeline Loop to the 360 Viewpoint'
p1596
sS'hike847'
p1597
S'Grasshopper Pass via the PCT'
p1598
sS'hike840'
p1599
S'Spruce Nature Trail and Hall of Mosses Loop'
p1600
sS'hike841'
p1601
S'Dock Butte Trail'
p1602
sS'hike842'
p1603
S'Goat Peak Lookout Trail'
p1604
sS'hike843'
p1605
S'Ipsut Creek Campground via Carbon River Trail '
p1606
sS'hike1367'
p1607
S'Cady Ridge Trail'
p1608
sS'hike1366'
p1609
S'Mount Carrie: High Divide Trail Route'
p1610
sS'hike1365'
p1611
S'Mount Spokane Summit - Saddle Junction Trail'
p1612
sS'hike1364'
p1613
S'Paddy-Go-Easy Pass Trail'
p1614
sS'hike1363'
p1615
S'Black Lake'
p1616
sS'hike1362'
p1617
S'360 Project MTB Loop'
p1618
sS'hike1361'
p1619
S'West Fork Dosewallips River Trail'
p1620
sS'hike1360'
p1621
S'Whitaker Peak and Shy Bear Loop Trail to Doughty Falls'
p1622
sS'hike1369'
p1623
S'Upper Wheeler Reservior'
p1624
sS'hike1368'
p1625
S'Bainbridge Island Waterfront Trail'
p1626
sS'hike282'
p1627
S'Malachite Lake via West Fork Foss Lakes Trail'
p1628
sS'hike283'
p1629
S'Silver Lake Way Trail'
p1630
sS'hike280'
p1631
S'Quinault River Pony Bridge Trail'
p1632
sS'hike281'
p1633
S'Kendall Peak Lakes Trail'
p1634
sS'hike286'
p1635
S'North Siouxon Creek to Black Hole Falls'
p1636
sS'hike287'
p1637
S'Skookum Flats Trail'
p1638
sS'hike284'
p1639
S'McDonald Mountain Trail'
p1640
sS'hike285'
p1641
S'De Leo Wall Trail'
p1642
sS'hike288'
p1643
S'Mud Mountain Rim Trail'
p1644
sS'hike289'
p1645
S"Trillium Trail and Siler's Mill Trail"
p1646
sS'hike2409'
p1647
S"Upper and Lower Surfer's Way Loop"
p1648
sS'hike2408'
p1649
S'Golden Tiger Pathway'
p1650
sS'hike2403'
p1651
S'Bridge Creek Trail to North Fork, Grizzly Creek'
p1652
sS'hike2402'
p1653
S'Upper Dungeness Trail to Heather Creek Trail'
p1654
sS'hike2401'
p1655
S'Puffer Butte'
p1656
sS'hike2400'
p1657
S'Bucoda to Fort Borst Boat Launch'
p1658
sS'hike2407'
p1659
S'Trail 29: Placid Lake to PCT'
p1660
sS'hike2406'
p1661
S'Peterson Lake Trail'
p1662
sS'hike2405'
p1663
S'Desert 100 OHV Loop'
p1664
sS'hike2404'
p1665
S'Flow State, Raging Ridge, No Service, Return Policy, Upward Mobility Loop'
p1666
sS'hike1219'
p1667
S'Augspurger Mountain Trail'
p1668
sS'hike1218'
p1669
S'Kennedy Falls Trail '
p1670
sS'hike1213'
p1671
S'Camas Potholes and Waterfall Loop via Lake to Lake Trail'
p1672
sS'hike1212'
p1673
S'Curly Creek Falls Via Lewis River Trail'
p1674
sS'hike1211'
p1675
S'Observation Peak via Observation Trail #132'
p1676
sS'hike1210'
p1677
S'Shipwreck Coast'
p1678
sS'hike1217'
p1679
S'Heritage Park Trail'
p1680
sS'hike1216'
p1681
S'Lake Dorothy, Bear Lake, Deer Lake, Snoqualmie Lake via Dorothy Lake Trail'
p1682
sS'hike1215'
p1683
S'Rainbow Falls State Park Loop Trail'
p1684
sS'hike1214'
p1685
S'The Mount Spokane Loop Summer Route'
p1686
sS'hike1815'
p1687
S'Driveway Butte Trail'
p1688
sS'hike1814'
p1689
S'Juanita Beach Loop'
p1690
sS'hike1817'
p1691
S'Trout Loop Trail'
p1692
sS'hike1816'
p1693
S'Red Bluff Trail (#533)'
p1694
sS'hike1811'
p1695
S'Juniper Dunes Wilderness Area'
p1696
sS'hike1810'
p1697
S'Jones Island'
p1698
sS'hike1813'
p1699
S'Maiden Peak from Deer Park Campground'
p1700
sS'hike1812'
p1701
S'Bear Creek Mountain Trail'
p1702
sS'hike1819'
p1703
S'Westport Lighthouse Trail'
p1704
sS'hike1818'
p1705
S'Greenbelt Walkway Trail'
p1706
sS'hike76'
p1707
S'Mount Townsend Trail'
p1708
sS'hike77'
p1709
S"Harry's Ridge Trail"
p1710
sS'hike74'
p1711
S'Boulder River Trail'
p1712
sS'hike75'
p1713
S'Mailbox Peak (Old) Trail'
p1714
sS'hike72'
p1715
S'Ruby Beach'
p1716
sS'hike73'
p1717
S'Mount Fremont Lookout Trail'
p1718
sS'hike70'
p1719
S'Meadowdale Beach Trails'
p1720
sS'hike71'
p1721
S'Teneriffe Falls via Mount Si Trailhead'
p1722
sS'hike78'
p1723
S'Blue Lake Trail'
p1724
sS'hike79'
p1725
S'Falls Creek Trail Loop'
p1726
sS'hike440'
p1727
S'Lake Stuart and Colchuck Lake Trail'
p1728
sS'hike441'
p1729
S'Granite Falls (Fish Ladder) Trail'
p1730
sS'hike442'
p1731
S'Waughop Lake Loop '
p1732
sS'hike443'
p1733
S'Deer Lake Trail'
p1734
sS'hike444'
p1735
S'Dege Peak Trail'
p1736
sS'hike445'
p1737
S'Penrose Point State Park Trail'
p1738
sS'hike446'
p1739
S'Kubota Garden Natural Area Trails'
p1740
sS'hike447'
p1741
S'Lookout Mountain'
p1742
sS'hike448'
p1743
S'Echo Lake via Greenwater Trail'
p1744
sS'hike449'
p1745
S'Gazzam Lake Park Trail'
p1746
sS'hike668'
p1747
S'Lava Canyon Suspension Bridge'
p1748
sS'hike669'
p1749
S'Ancient Groves Nature Trail'
p1750
sS'hike1443'
p1751
S'Scatter Lake Trail'
p1752
sS'hike660'
p1753
S'Cispus Pass Loop Trail'
p1754
sS'hike661'
p1755
S'Little Cranberry Lake Outer Loop'
p1756
sS'hike662'
p1757
S'Cedar Falls Trail'
p1758
sS'hike663'
p1759
S'Third Beach to Hoh River'
p1760
sS'hike664'
p1761
S'Cora Lake Trail'
p1762
sS'hike665'
p1763
S'Tolt Pipeline Trail'
p1764
sS'hike666'
p1765
S'Blue Lake and Dock Butte Trail'
p1766
sS'hike667'
p1767
S'Mount Baker Standard Summit Route'
p1768
sS'hike1969'
p1769
S'Blackhorse Lake Hiking Trail'
p1770
sS'hike1968'
p1771
S'Kalama Marina and River Walk'
p1772
sS'hike1965'
p1773
S'Three Way Peak'
p1774
sS'hike1964'
p1775
S'La Center Bottoms'
p1776
sS'hike1967'
p1777
S'Nature Trail, Cairn, and Sidekick Loop'
p1778
sS'hike1966'
p1779
S'Tokul Walking Trail'
p1780
sS'hike1961'
p1781
S'Bovies Meadow Trail'
p1782
sS'hike1960'
p1783
S'Wildflower Loop Trail'
p1784
sS'hike1963'
p1785
S'Lemei Lake Trail via East Crater Trail'
p1786
sS'hike1962'
p1787
S'Pacific Crest Trail from Panther Creek'
p1788
sS'hike714'
p1789
S'North Fork Skokomish River Trail'
p1790
sS'hike715'
p1791
S'Weldon Wagon Road Trail'
p1792
sS'hike716'
p1793
S'Big Tree Ridge Trail'
p1794
sS'hike717'
p1795
S'Cushman Trail'
p1796
sS'hike710'
p1797
S'Maury Island Natural Area Loop'
p1798
sS'hike711'
p1799
S'Olallie Lake via Pratt Lake Trail'
p1800
sS'hike712'
p1801
S'Talapus Lake via Pratt Lake Trail'
p1802
sS'hike713'
p1803
S'Erie Mountain Via Whistle Lake Trail'
p1804
sS'hike718'
p1805
S'Hood Canal and Theler Wetlands Trails'
p1806
sS'hike719'
p1807
S'Fletcher Canyon Trail'
p1808
sS'hike1561'
p1809
S'Cama Beach Marine View Loop and Cranberry Lake'
p1810
sS'hike1560'
p1811
S'Deep Lake and Lake Vicente'
p1812
sS'hike1563'
p1813
S'Wallula Gap Overlook '
p1814
sS'hike1562'
p1815
S'Faraway Rock via Reflection Lakes'
p1816
sS'hike1565'
p1817
S'Drive to the Top of Mount Spokane'
p1818
sS'hike1564'
p1819
S'Elbow Lake Trail'
p1820
sS'hike1567'
p1821
S'Snoqualmie Falls Viewpoint via Preston-Snoqualmie Trail '
p1822
sS'hike1566'
p1823
S'Valhalla Lake Via Pacific Crest Trail'
p1824
sS'hike1569'
p1825
S'Sand Point Trail to North Coast Beach Travelway'
p1826
sS'hike1568'
p1827
S'Issaquah Highlands Loop'
p1828
sS'hike2142'
p1829
S'Lightning Creek Trail'
p1830
sS'hike2143'
p1831
S'Old Man Pass Loop'
p1832
sS'hike2140'
p1833
S'Fort Lewis Area 23 Loop'
p1834
sS'hike2141'
p1835
S'Lewis & Clark Discovery Greenway to Renaissance Trail'
p1836
sS'hike2146'
p1837
S'Estes Butte Trail'
p1838
sS'hike2147'
p1839
S'Battle Point Trail'
p1840
sS'hike2144'
p1841
S'Trail 102: South Trail Green Loop'
p1842
sS'hike2145'
p1843
S'Cypress Island Airfield Trail'
p1844
sS'hike2148'
p1845
S'River View Quarry Road to Quarry Trail Loop'
p1846
sS'hike2149'
p1847
S'Newcastle East Cross Town Trail'
p1848
sS'hike1172'
p1849
S'Sauk Lake Trail'
p1850
sS'hike1173'
p1851
S'Big Creek Falls Trail'
p1852
sS'hike1170'
p1853
S'Koenemann Lake Trail'
p1854
sS'hike1171'
p1855
S'Fragrance Lake via Two Dollar Trail from Cleator Road'
p1856
sS'hike1176'
p1857
S'De Roux Trail'
p1858
sS'hike1177'
p1859
S'Point of the Arches Trail'
p1860
sS'hike1174'
p1861
S'Waughop Lake Trail'
p1862
sS'hike1175'
p1863
S'Riverside State Park Rattlesnake Trail'
p1864
sS'hike1178'
p1865
S'Upper South Fork Skokomish Trail'
p1866
sS'hike1179'
p1867
S'Lost Lake Trail, Woodpecker Trail, Erratic Trail, Windfall Trail Loop'
p1868
sS'hike1770'
p1869
S'Point Whitehorn Trail '
p1870
sS'hike1771'
p1871
S'Mission Ridge Trail'
p1872
sS'hike1772'
p1873
S'Selah Cliffs Preserve Trail'
p1874
sS'hike1773'
p1875
S'Bluebird Hiking Trail'
p1876
sS'hike1774'
p1877
S'Hoodsport Trail Loop'
p1878
sS'hike1775'
p1879
S'Three Forks Snoqualmie River Trail'
p1880
sS'hike1776'
p1881
S'Colman Park to Seward Park'
p1882
sS'hike1777'
p1883
S'Graves Creek Trail'
p1884
sS'hike1778'
p1885
S'Cowlitz River Trail'
p1886
sS'hike1779'
p1887
S'Glacier Basin to Burroughs Mountain to Wonderland Trail Loop'
p1888
sS'hike2094'
p1889
S'English Boom Trail'
p1890
sS'hike2095'
p1891
S'Burping Brook Loop Trail'
p1892
sS'hike2096'
p1893
S'Springboard Trail #149'
p1894
sS'hike2097'
p1895
S'Eagle Lake'
p1896
sS'hike2090'
p1897
S'Putney Woods and Metcalf Trail'
p1898
sS'hike2091'
p1899
S'Winchester Wasteway'
p1900
sS'hike2092'
p1901
S'Arboretum Perimeter Trail'
p1902
sS'hike2093'
p1903
S'Lacmas Creek to Camino Potholes via Lake to Lake Trail'
p1904
sS'hike2098'
p1905
S'Fort Ebey Bluff Trail'
p1906
sS'hike2099'
p1907
S'Cathy\xe2\x80\x99s Trail'
p1908
sS'hike1684'
p1909
S'Dusty Lake to Ancient Lakes'
p1910
sS'hike1685'
p1911
S'James T. Slavin Nature Loop'
p1912
sS'hike1686'
p1913
S'Military Road, Coal Creek Falls, Wildside Trail'
p1914
sS'hike1687'
p1915
S'Fuzzy Top Trail'
p1916
sS'hike1680'
p1917
S'Deep Creek Trail'
p1918
sS'hike1681'
p1919
S'Frog Lake Trail'
p1920
sS'hike1682'
p1921
S'Golden Horn Trail'
p1922
sS'hike1683'
p1923
S'Osborne Mountain Trail'
p1924
sS'hike1688'
p1925
S'Ewing Cove Trail'
p1926
sS'hike1689'
p1927
S'Goat Island Mountain Trail'
p1928
sS'hike89'
p1929
S'Mount Walker'
p1930
sS'hike88'
p1931
S'Green Mountain Lookout via Gold Creek Trail'
p1932
sS'hike83'
p1933
S'Silver Star Mountain via Grouse Vista Trail'
p1934
sS'hike82'
p1935
S'Bandera Mountain Summit'
p1936
sS'hike81'
p1937
S'Point Defiance Park Outer Loop'
p1938
sS'hike80'
p1939
S'Staircase Rapids Loop'
p1940
sS'hike87'
p1941
S'Skyline Divide Trail'
p1942
sS'hike86'
p1943
S'Icicle Ridge Trail (#1570)'
p1944
sS'hike85'
p1945
S'Lime Kiln Trail'
p1946
sS'hike84'
p1947
S'Icicle Gorge Trail'
p1948
sS'hike2328'
p1949
S'Welcome Pass via High Divide Trail'
p1950
sS'hike2329'
p1951
S'Capitol Forest and Rocky Candy Mountain OHV Loop'
p1952
sS'hike2322'
p1953
S'Fir Mountain Trail'
p1954
sS'hike2323'
p1955
S'Evans Creek Trail'
p1956
sS'hike2320'
p1957
S'Salt Creek Trail'
p1958
sS'hike2321'
p1959
S'Spade Lake and Venus Lake via Waptus River Trail'
p1960
sS'hike2326'
p1961
S'Halliday Trail'
p1962
sS'hike2327'
p1963
S"Lower Pete's Creek Trail"
p1964
sS'hike2324'
p1965
S'James Pond Nature Trail'
p1966
sS'hike2325'
p1967
S'Frangrance Lake and Black Diamond DD Loop'
p1968
sS'hike879'
p1969
S'Lake Washington North, Beach and Seminary Trail Loop'
p1970
sS'hike878'
p1971
S'Mountain Loop Highway'
p1972
sS'hike1358'
p1973
S'Wawawai Canyon'
p1974
sS'hike1359'
p1975
S'Crater Lakes Trail'
p1976
sS'hike971'
p1977
S'Tiger Mountain Adventure Trail'
p1978
sS'hike1352'
p1979
S'Stubblefield Lake Loop'
p1980
sS'hike870'
p1981
S'Layser Cave Trail'
p1982
sS'hike1350'
p1983
S'Twin Lakes to Silesia Creek Trail'
p1984
sS'hike1351'
p1985
S'Ebey Slough Trail'
p1986
sS'hike875'
p1987
S'Mount Margaret to Mount Saint Helens'
p1988
sS'hike874'
p1989
S'Peshastin Pinnacles Loop Trail'
p1990
sS'hike877'
p1991
S'Saratoga Woods Trail'
p1992
sS'hike1355'
p1993
S"May's Creek Trail "
p1994
sS'hike1198'
p1995
S'Foulweather Bluff Preserve Trail'
p1996
sS'hike1199'
p1997
S'Mount Si via Teneriffe Connector'
p1998
sS'hike973'
p1999
S'North, Beach, South Canyon, Orchard, Juanita, Arrowhead Loop'
p2000
sS'hike1190'
p2001
S'English Pond, Red Barn, and Easy 8 Loop Trail'
p2002
sS'hike1191'
p2003
S'Tennant Lake Trail'
p2004
sS'hike1192'
p2005
S'Ridge Loop Trail '
p2006
sS'hike1193'
p2007
S'Sharpe Park Loop'
p2008
sS'hike1194'
p2009
S'Mountain Lake'
p2010
sS'hike1195'
p2011
S'Central Whidbey Island: Coupeville and Fort Casey'
p2012
sS'hike1196'
p2013
S'Smithbrook Trail'
p2014
sS'hike1197'
p2015
S'Spokane River Centennial Trail and 25 Loop'
p2016
sS'hike976'
p2017
S'Killen Creek Trail'
p2018
sS'hike279'
p2019
S'Whipple Creek Park Loop Trail'
p2020
sS'hike278'
p2021
S'Burke-Gilman Trail: Ballard Bridge to Bothell'
p2022
sS'hike277'
p2023
S'Green Mountain via Wildcat Trail'
p2024
sS'hike276'
p2025
S'Painted Rocks Nature Trail'
p2026
sS'hike275'
p2027
S'Keekwulee Falls via Denny Creek Trail'
p2028
sS'hike274'
p2029
S'Winchester Mountain Trail'
p2030
sS'hike273'
p2031
S'Anderson Landing Trail'
p2032
sS'hike272'
p2033
S'Woodard Bay Natural Resources Conservation Area Loop Trail'
p2034
sS'hike271'
p2035
S'Snoqualmie Mountain'
p2036
sS'hike270'
p2037
S"Sauer's Mountain"
p2038
sS'hike2438'
p2039
S'Burton Acres'
p2040
sS'hike2439'
p2041
S'Little Bald Mountain OHV Loop'
p2042
sS'hike2436'
p2043
S'Broken Tree Trail'
p2044
sS'hike2437'
p2045
S'Racehorse Ridge OHV Trail'
p2046
sS'hike2434'
p2047
S"Liberty, Lion's Gulch, and Billy Goat OHV Trail"
p2048
sS'hike2435'
p2049
S"Budu Henry's Ridge Loop"
p2050
sS'hike2432'
p2051
S'Whiskey Dick OHV Loop'
p2052
sS'hike2433'
p2053
S'Walker Valley 22 and BR-1604 OHV Trail'
p2054
sS'hike2430'
p2055
S'Rosario Hill '
p2056
sS'hike2431'
p2057
S'Fortune Creek and Gallagher Head Lake OHV Trail'
p2058
sS'hike1228'
p2059
S'Cascade Trail'
p2060
sS'hike1229'
p2061
S'Mink Lake Trail to Blackwood Lake'
p2062
sS'hike1226'
p2063
S'Llandover Woods '
p2064
sS'hike1227'
p2065
S'Eight Mile Trail'
p2066
sS'hike1224'
p2067
S'Little Cranberry Lake Inner Loop'
p2068
sS'hike1225'
p2069
S'Dash Point State Park Mountain Bike Trails'
p2070
sS'hike1222'
p2071
S'Columbia Plateau Trail to Fish Lake'
p2072
sS'hike1223'
p2073
S'Lower Green River Trail Kent to Tukwila'
p2074
sS'hike1220'
p2075
S'Round Lake Via Lost Creek Ridge Trail'
p2076
sS'hike1221'
p2077
S'West Tiger 3, Talus Rocks, Section Line and Bus Trail Loop'
p2078
sS'hike1293'
p2079
S'Farrel-McWhirter Park / Juel Park'
p2080
sS'hike1292'
p2081
S"Enchanted Valley with O'Neil Pass Loop and Anderson Glacier Trek"
p2082
sS'hike1291'
p2083
S'Wagonroad Trail to Franklin Falls'
p2084
sS'hike389'
p2085
S'Snow Lake Trail to Source Lake Spur Trail'
p2086
sS'hike388'
p2087
S'Lake Padden Singletrack'
p2088
sS'hike383'
p2089
S'Red Top Lookout Trail'
p2090
sS'hike382'
p2091
S'Taylor River Trail'
p2092
sS'hike381'
p2093
S'Skyline Lake Trail'
p2094
sS'hike380'
p2095
S'Fort Ebey State Park Loop'
p2096
sS'hike387'
p2097
S'Hidden Lake Trail'
p2098
sS'hike386'
p2099
S'Pike Place Market'
p2100
sS'hike385'
p2101
S'Tipsoo Lake to Dewey Lake Loop'
p2102
sS'hike384'
p2103
S'Lake Wilderness'
p2104
sS'hike65'
p2105
S'Barclay Lake Trail'
p2106
sS'hike64'
p2107
S'Heybrook Lookout Trail'
p2108
sS'hike67'
p2109
S'High Divide - Seven Lakes Basin Loop'
p2110
sS'hike66'
p2111
S"Silver Star and Ed's Trail Loop"
p2112
sS'hike61'
p2113
S'Summit Lake Trail'
p2114
sS'hike60'
p2115
S'Snow Lake, Gem Lake, Upper Wildcat Lake'
p2116
sS'hike63'
p2117
S'Lake Ingalls'
p2118
sS'hike62'
p2119
S'Coyote Wall Loop Trail'
p2120
sS'hike1294'
p2121
S'Sequalitchew Loop'
p2122
sS'hike69'
p2123
S'Sequalitchew Creek Trail'
p2124
sS'hike68'
p2125
S'Chain Lakes Loop Trail'
p2126
sS'hike871'
p2127
S'Snoqualmie Lake via Taylor River Trail'
p2128
sS'hike479'
p2129
S'Overland OHV Loop Trail'
p2130
sS'hike478'
p2131
S'Necklace Valley Trail'
p2132
sS'hike1353'
p2133
S'Happy Creek Forest Walk Trail'
p2134
sS'hike475'
p2135
S'Horseshoe Bend Trail'
p2136
sS'hike474'
p2137
S'Indian Heaven Trail'
p2138
sS'hike477'
p2139
S'Squak Mountain Fireplace Trail'
p2140
sS'hike476'
p2141
S'Duthie Mountain Bike Park Loop'
p2142
sS'hike471'
p2143
S'Mount Si via Old Si Trail'
p2144
sS'hike873'
p2145
S'Oregon Butte Trail'
p2146
sS'hike473'
p2147
S'Excelsior Pass Trail'
p2148
sS'hike472'
p2149
S'Crystal Peak Trail'
p2150
sS'hike655'
p2151
S"Debbie's View via May Valley Loop and West Peak Trail"
p2152
sS'hike654'
p2153
S"Devil's Dome Loop"
p2154
sS'hike657'
p2155
S'Indian Painted Rock and Knothead Valley Loop'
p2156
sS'hike872'
p2157
S'Waughop Lake MTB Course'
p2158
sS'hike651'
p2159
S'Lowell Riverfront Trail'
p2160
sS'hike650'
p2161
S'Glacier Basin Via Monte Cristo Trail'
p2162
sS'hike653'
p2163
S'Wilderness Creek Trail'
p2164
sS'hike652'
p2165
S'Takhlakh Lake and Meadows Trail'
p2166
sS'hike1356'
p2167
S'Reflection Lake to Narada Falls via Wonderland Trail'
p2168
sS'hike659'
p2169
S'Guemes Mountain'
p2170
sS'hike658'
p2171
S'Hoh River Trail to Blue Glacier Trail'
p2172
sS'hike129'
p2173
S'Pinnacle Peak Saddle Trail'
p2174
sS'hike1357'
p2175
S'Poodle Dog Pass Silver Lake Trail'
p2176
sS'hike497'
p2177
S'West Hylebos Wetlands Trail'
p2178
sS'hike496'
p2179
S'Foothills Trail: Orting to Buckley'
p2180
sS'hike495'
p2181
S'Paradise Glacier Trail'
p2182
sS'hike494'
p2183
S'Gibbons Creek Wildlife Art Trail'
p2184
sS'hike493'
p2185
S'Dalles Mountain Trail'
p2186
sS'hike492'
p2187
S'Colonel Bob Trail'
p2188
sS'hike491'
p2189
S'Dewey Lake Trail'
p2190
sS'hike490'
p2191
S'High Drive Parkway Trail'
p2192
sS'hike876'
p2193
S'Lake to Lake Trail Loop via Lacamas Creek'
p2194
sS'hike499'
p2195
S'Bear Lake Trail'
p2196
sS'hike498'
p2197
S'Cougar Trails Loop'
p2198
sS'hike1724'
p2199
S'Tumwater Mountain Approach'
p2200
sS'hike1052'
p2201
S'Badger Valley to Grand Lake and Grand Pass Loop'
p2202
sS'hike1990'
p2203
S'Dege Peak and Frozen Lake via Sourdough Ridge Trail'
p2204
sS'hike1991'
p2205
S"Heli's Pond Loop"
p2206
sS'hike1992'
p2207
S'Lynnwood Golf Course Walk'
p2208
sS'hike1993'
p2209
S'Coupeville Coast to Coast '
p2210
sS'hike1994'
p2211
S'Kirkland Waterfront'
p2212
sS'hike1995'
p2213
S'Crown Point Vista'
p2214
sS'hike1996'
p2215
S'Perkins Pond Nature Trail'
p2216
sS'hike1997'
p2217
S'Piper\xe2\x80\x99s Creek and North Traverse Trail Loop '
p2218
sS'hike1998'
p2219
S'Robinson Canyon Loop'
p2220
sS'hike1999'
p2221
S'Salmon la Sac Creek'
p2222
sS'hike721'
p2223
S'Soda Peaks Lake Trail West'
p2224
sS'hike720'
p2225
S'Lower Big Quilcene Trail'
p2226
sS'hike723'
p2227
S'Fort Flagler Trail'
p2228
sS'hike722'
p2229
S'Mountain Lake and Twin Lakes Trail'
p2230
sS'hike725'
p2231
S'Bresemann Forest Trail'
p2232
sS'hike724'
p2233
S'Dirtybox Peak'
p2234
sS'hike727'
p2235
S'Davis Peak Lookout Trail'
p2236
sS'hike726'
p2237
S'Lime Kiln Point State Park Trails'
p2238
sS'hike729'
p2239
S'Coulon Beach Park Trails'
p2240
sS'hike728'
p2241
S'Twin Lakes Trail'
p2242
sS'hike1514'
p2243
S'Triangle Pass OHV Road'
p2244
sS'hike1515'
p2245
S'Old Ranch Road and Little Maui Trail Loop'
p2246
sS'hike1516'
p2247
S'Damfino Lakes Trail'
p2248
sS'hike1517'
p2249
S'Clear Lost Trail'
p2250
sS'hike1510'
p2251
S'Grass Lake Nature Park Trail'
p2252
sS'hike1511'
p2253
S'Whitehorse Trail '
p2254
sS'hike1512'
p2255
S'Copalis River Spit Trail'
p2256
sS'hike1513'
p2257
S'Xanadu Trail'
p2258
sS'hike1518'
p2259
S'Hall Mountain Trail'
p2260
sS'hike1519'
p2261
S'Yakima Rim Loop Trail'
p2262
sS'hike1428'
p2263
S'Bird Meadow Trail to Bird Lake Trail'
p2264
sS'hike1429'
p2265
S'CCC Road Trail via Blowout Creek Trailhead'
p2266
sS'hike1420'
p2267
S'John Wayne Pioneer Trail: Ellensburg to Lake Easton'
p2268
sS'hike1421'
p2269
S'Buck Creek to High Pass'
p2270
sS'hike1422'
p2271
S'Lower Tuscohatchie Lake '
p2272
sS'hike1423'
p2273
S'Tomyhoi Peak'
p2274
sS'hike1424'
p2275
S'Lake Ethel Trail'
p2276
sS'hike1425'
p2277
S'Pilchuck Trail '
p2278
sS'hike1426'
p2279
S'Lewis Butte'
p2280
sS'hike1427'
p2281
S'East Fork Trail #139'
p2282
sS'hike1271'
p2283
S'Tipsoo Lake Loop'
p2284
sS'hike2155'
p2285
S'Bear Lake via East Crest Trail'
p2286
sS'hike2154'
p2287
S'Florence Robinson Park'
p2288
sS'hike2157'
p2289
S'White River Trail'
p2290
sS'hike2156'
p2291
S'William Cannon Trail'
p2292
sS'hike2151'
p2293
S'Little Beaver Trail via Hannegan Pass'
p2294
sS'hike2150'
p2295
S'18th Street to Main Vein Loop'
p2296
sS'hike2153'
p2297
S'Green River: Auburn to Kent, Middle Reach'
p2298
sS'hike2152'
p2299
S'Fawn Lake Trail'
p2300
sS'hike2159'
p2301
S'Middle Fork Snoqualmie Loop'
p2302
sS'hike2158'
p2303
S'Rock Shelter Trail'
p2304
sS'hike1270'
p2305
S"Fred's Railroad and Wilderness Peak Loop"
p2306
sS'hike1165'
p2307
S'Volunteer Park Loop'
p2308
sS'hike1164'
p2309
S'Snoqualmie Valley Trail'
p2310
sS'hike1167'
p2311
S'Kloshe Nanitch Trail'
p2312
sS'hike1166'
p2313
S'Mima Falls Trail and McKenny Trail Loop from Margaret McKenny Campground'
p2314
sS'hike1161'
p2315
S'Mount Aix Trail'
p2316
sS'hike1160'
p2317
S'Teddy Bear Cove via Interurban Trail '
p2318
sS'hike1163'
p2319
S'Little Kachess Trail'
p2320
sS'hike1162'
p2321
S'Ellen Davis Trail'
p2322
sS'hike1169'
p2323
S'Art Walk Trail'
p2324
sS'hike1168'
p2325
S'Boundary Trail to Log Jam Trail Loop'
p2326
sS'hike1763'
p2327
S'Lake Margaret via Icicle Creek and Wildhorse Trail'
p2328
sS'hike1762'
p2329
S'Clark Creek Loop Trail'
p2330
sS'hike1761'
p2331
S'Slide Mountain Fossil Beds'
p2332
sS'hike1760'
p2333
S"South Ridge, Hillside, Brick Road and Piper's Creek Trail "
p2334
sS'hike1767'
p2335
S'Rocky Creek Conservation Area Trails'
p2336
sS'hike1766'
p2337
S'White Chuck Bench Trail'
p2338
sS'hike1765'
p2339
S'Mount Rainier Eastside Trail'
p2340
sS'hike1764'
p2341
S'Green Mountain via Sitka Spruce Trail'
p2342
sS'hike1769'
p2343
S'South Little Mountain Lollipop '
p2344
sS'hike1768'
p2345
S'Lakemont Loop Trail'
p2346
sS'hike1272'
p2347
S'Lake Swano Trail'
p2348
sS'hike2087'
p2349
S'Alger Truck Trail'
p2350
sS'hike1095'
p2351
S'North Fork Quinault Trail'
p2352
sS'hike2085'
p2353
S'Doe Falls Trail'
p2354
sS'hike2084'
p2355
S'Huckleberry Saddle via Blue Lake Trailhead'
p2356
sS'hike2083'
p2357
S'Waterline Trail from Lake Boren Park'
p2358
sS'hike2082'
p2359
S'Crofton Butte Trail'
p2360
sS'hike2081'
p2361
S'Sand Ridge Trail'
p2362
sS'hike1094'
p2363
S'Mill Butte Trail'
p2364
sS'hike1097'
p2365
S'Tronsen Ridge Trail'
p2366
sS'hike2089'
p2367
S'Cold Creek to Forest Road 9070'
p2368
sS'hike2088'
p2369
S'Frink Park Loop'
p2370
sS'hike1697'
p2371
S'Fort Ward Upper Loop via Ridge Trail'
p2372
sS'hike1696'
p2373
S'Cultus Creek Trail'
p2374
sS'hike1695'
p2375
S'Klondike Swamp Loop'
p2376
sS'hike1694'
p2377
S'Silver King Via Silver Creek Trail'
p2378
sS'hike1693'
p2379
S'Noble Knob Northern Approach'
p2380
sS'hike1692'
p2381
S'Sasse Mountain Trail (#1340)'
p2382
sS'hike1691'
p2383
S'Peshastin Mill Trail'
p2384
sS'hike1690'
p2385
S'Green Dots Trails at Whiskey Dick OHV Trail'
p2386
sS'hike1091'
p2387
S'Bethel Ridge OHV Trail'
p2388
sS'hike1699'
p2389
S'Turtleback Mountain Loop'
p2390
sS'hike1698'
p2391
S'South Skookum Trail'
p2392
sS'hike1093'
p2393
S'Camp Long Trails'
p2394
sS'hike1092'
p2395
S'Stevens Creek Trail'
p2396
sS'hike866'
p2397
S'Baker Lake East Bank to Noisy Creek Trail'
p2398
sS'hike867'
p2399
S'Lake Sacajawea Park Trail'
p2400
sS'hike864'
p2401
S'Iron Horse Trail from Olallie State Park to Rattlesnake Lake'
p2402
sS'hike865'
p2403
S'Tommy Thompson Trail'
p2404
sS'hike862'
p2405
S'Indian Henrys Hunting Ground Trail to Mirror Lakes'
p2406
sS'hike863'
p2407
S'West Tiger #1 Via Preston Trail'
p2408
sS'hike860'
p2409
S'Beacon Hill Loop from Camp Sekani Trailhead'
p2410
sS'hike861'
p2411
S'Loop Trail via West Emerson Street Entrance'
p2412
sS'hike2335'
p2413
S'Exit 27 and Gem State Loop'
p2414
sS'hike2334'
p2415
S'Sunset Falls'
p2416
sS'hike2337'
p2417
S'Stinger, Route 66 and Lower Beaver Tracks'
p2418
sS'hike2336'
p2419
S'Angel Pass Trail'
p2420
sS'hike2331'
p2421
S'Root Lake Trail'
p2422
sS'hike2330'
p2423
S'Al Davis Trail, Waddell Basin West and Quarry Loop'
p2424
sS'hike868'
p2425
S'Hannegan Pass Trail'
p2426
sS'hike869'
p2427
S'Saltese Uplands Trail'
p2428
sS'hike1349'
p2429
S'Baldy Trail'
p2430
sS'hike1348'
p2431
S'Chatter Creek Trail'
p2432
sS'hike1345'
p2433
S'Pear Lake Trail'
p2434
sS'hike1344'
p2435
S'High Camp Trail'
p2436
sS'hike1347'
p2437
S'Gazzam Lake and Veterane Open Space Preserves'
p2438
sS'hike1346'
p2439
S'Kennedy Creek Falls from Old Olympic Highway'
p2440
sS'hike1341'
p2441
S'Mica Peak Loop'
p2442
sS'hike1340'
p2443
S'Snohomish River and Shadow Lake Trail'
p2444
sS'hike1343'
p2445
S'Larch Lake from High Camp via North Fork Chiwaukum and McCue Ridge Trail'
p2446
sS'hike1342'
p2447
S'Sunrise Lake Trail'
p2448
sS'hike1189'
p2449
S'Spokane River Centennial Trail'
p2450
sS'hike1188'
p2451
S'Soos Creek Trail via Boulevard Lane Park'
p2452
sS'hike1183'
p2453
S'French Cabin Creek'
p2454
sS'hike1182'
p2455
S'Spokane Falls Trail'
p2456
sS'hike1181'
p2457
S'Swan Creek Canyon Rim Trail'
p2458
sS'hike1180'
p2459
S'Deception Crags  Trail'
p2460
sS'hike1187'
p2461
S'Falls View Trail'
p2462
sS'hike1186'
p2463
S'Sacagawea Heritage Trail'
p2464
sS'hike1185'
p2465
S'Little Quilcene Trail (historical)'
p2466
sS'hike1184'
p2467
S'Marten Lake Trail'
p2468
sS'hike268'
p2469
S'Myrtle Falls Viewpoint via Skyline Trail'
p2470
sS'hike269'
p2471
S'Dosewallips Steam Donkey Trail'
p2472
sS'hike264'
p2473
S'Saddlerock Trail'
p2474
sS'hike265'
p2475
S'Deep Creek Loop Trail'
p2476
sS'hike266'
p2477
S'Umtanum Creek Falls Trail'
p2478
sS'hike267'
p2479
S'Nathan Chapman Memorial Trail'
p2480
sS'hike260'
p2481
S'Whatcom Creek Trail Loop'
p2482
sS'hike261'
p2483
S'Mount Constitution Loop Trail'
p2484
sS'hike262'
p2485
S'Crystal Mountain Trail'
p2486
sS'hike263'
p2487
S"Cave Hole, Coal Creek Falls, Quarry, and Fred's Railroad Trail Loop"
p2488
sS'hike2421'
p2489
S'National Forest Development Road 100'
p2490
sS'hike2420'
p2491
S'Red Mountain and Canyon Creek OHV Trail'
p2492
sS'hike2423'
p2493
S'Beckler River OHV Trail'
p2494
sS'hike2422'
p2495
S'Fortune Creek OHV Trail'
p2496
sS'hike2425'
p2497
S'High Lakes Trail to Chain of Lakes Campground'
p2498
sS'hike2424'
p2499
S'Mount Josephine High Landing OHV Trail'
p2500
sS'hike2427'
p2501
S'Smuggler Poker Run'
p2502
sS'hike2426'
p2503
S'Oroville Grind'
p2504
sS'hike2429'
p2505
S'Remanns Cabin to Dodger Point Lookout'
p2506
sS'hike2428'
p2507
S'Overland Trail, Tahuya River, and Mission Creek OHV Loop'
p2508
sS'hike1231'
p2509
S'Silver Creek Trail #258'
p2510
sS'hike1230'
p2511
S'Salmon Creek Trail and Greenway Loop'
p2512
sS'hike1233'
p2513
S'Tradition Plateau Loop'
p2514
sS'hike1232'
p2515
S'Quartzite Mountain'
p2516
sS'hike1235'
p2517
S'Kiket Trail'
p2518
sS'hike1234'
p2519
S'Big Beaver Trail to Beaver Pass'
p2520
sS'hike1237'
p2521
S'Coal Lake Trail to North Lake'
p2522
sS'hike1236'
p2523
S'Larch Mountain via Tarbell Trail'
p2524
sS'hike1239'
p2525
S'Sheep Canyon Trail'
p2526
sS'hike1238'
p2527
S'Trout Lake, Copper Lake, Lake Malachite'
p2528
sS'hike398'
p2529
S'Thunder Creek Trail'
p2530
sS'hike399'
p2531
S'Gobblers Knob/Lake George Trail'
p2532
sS'hike2528'
p2533
S"Diamond Head (Le'ahi) Summit Trail"
p2534
sS'hike2529'
p2535
S'Manoa Falls Trail '
p2536
sS'hike390'
p2537
S'Obstruction Point - Deer Park Trail'
p2538
sS'hike391'
p2539
S'Second Beach at Low Tide Loop'
p2540
sS'hike2526'
p2541
S'Tower Mountain from South Corkery Road [PRIVATE PROPERTY]'
p2542
sS'hike393'
p2543
S'Picture Lake Path'
p2544
sS'hike394'
p2545
S'Loowit Falls Trail'
p2546
sS'hike395'
p2547
S'Four Cedars Outer Loop'
p2548
sS'hike396'
p2549
S'Spoon Creek Falls Trail'
p2550
sS'hike397'
p2551
S'Three Summits Loop Trail'
p2552
sS'hike50'
p2553
S'Mount Washington Trail'
p2554
sS'hike51'
p2555
S'Coal Creek Trail'
p2556
sS'hike52'
p2557
S'Talapus and Olallie Lakes via Olallie Lake Trail'
p2558
sS'hike53'
p2559
S'High Rock Lookout Trail'
p2560
sS'hike54'
p2561
S'Kendall Katwalk Trail'
p2562
sS'hike55'
p2563
S'Hoh River Trail'
p2564
sS'hike56'
p2565
S'Lewis River Falls Trail'
p2566
sS'hike57'
p2567
S'Naches Peak Loop Trail'
p2568
sS'hike58'
p2569
S'Cape Flattery Trail'
p2570
sS'hike59'
p2571
S'Gothic Basin Trail'
p2572
sS'hike468'
p2573
S'Third Beach Trail to Taylor Point'
p2574
sS'hike469'
p2575
S'Zig Zag Trail'
p2576
sS'hike462'
p2577
S'Cape Disappointment Lighthouse Loop Trail'
p2578
sS'hike463'
p2579
S'Three Fingers via Goat Flats Trail'
p2580
sS'hike460'
p2581
S'Humes Ranch Loop Trail'
p2582
sS'hike461'
p2583
S'Holder Ridge Trail'
p2584
sS'hike466'
p2585
S'Lake Christine Trail to Mt Beljica'
p2586
sS'hike467'
p2587
S'Chehalis Western Trail'
p2588
sS'hike464'
p2589
S'Cedar River Trail'
p2590
sS'hike465'
p2591
S'Green Mountain via Gold Creek Trail'
p2592
sS'hike642'
p2593
S'Dusty Lake Trail'
p2594
sS'hike643'
p2595
S'Bertha May and Granite Lakes Trail'
p2596
sS'hike640'
p2597
S'Little Annapurna'
p2598
sS'hike641'
p2599
S'Southwest Park Trail'
p2600
sS'hike646'
p2601
S'Foster Island Trail'
p2602
sS'hike647'
p2603
S'PCT: WA Section K - Stevens Pass to Rainy Pass'
p2604
sS'hike644'
p2605
S'Thorp Mountain Trail'
p2606
sS'hike645'
p2607
S'Mount Margaret Trail'
p2608
sS'hike648'
p2609
S'PCT: WA Section H - Cascade Locks to Highway 12 (White Pass)'
p2610
sS'hike649'
p2611
S'Paul Peak Trail'
p2612
sS'hike138'
p2613
S'Woodburn Falls and Round Lake via Lake to Lake Trail'
p2614
sS'hike139'
p2615
S'Marmot Lake and Jade Lake'
p2616
sS'hike484'
p2617
S'Lucia Falls Regional Park'
p2618
sS'hike485'
p2619
S'Lakeshore Trail and Wonderland Trail to Ipsut Pass'
p2620
sS'hike486'
p2621
S'Barlow Point Trail'
p2622
sS'hike487'
p2623
S'Old Sauk River Trail'
p2624
sS'hike480'
p2625
S'Rattlesnake Ledges to East Peak'
p2626
sS'hike481'
p2627
S'Weowna Park Loop Trail'
p2628
sS'hike482'
p2629
S'Dirtyface Peak Trail'
p2630
sS'hike483'
p2631
S'Cougar Mountain Indian Trail'
p2632
sS'hike488'
p2633
S"Dirty Harry's Peak via Birdhouse Trail"
p2634
sS'hike489'
p2635
S'Loowit Loop Trail'
p2636
sS'hike1983'
p2637
S'Ape Canyon, Smith Creek, Lava Canyon Loop'
p2638
sS'hike1982'
p2639
S'Pipeline, Temple Pond and Quarry Loop '
p2640
sS'hike1981'
p2641
S'South Bessemer Mountain Trail'
p2642
sS'hike1980'
p2643
S'Baldy Pass'
p2644
sS'hike1987'
p2645
S'Road 6310: Jumpoff Ridge Trail'
p2646
sS'hike1986'
p2647
S'Pinecliff Trail Loop'
p2648
sS'hike1985'
p2649
S'Mineral Creek Trail'
p2650
sS'hike1984'
p2651
S'Beal Hill Loop'
p2652
sS'hike1989'
p2653
S'Mismash Loop'
p2654
sS'hike1988'
p2655
S'Seaquest #8, #5, #6, #7 Loop'
p2656
sS'hike738'
p2657
S'East Tiger Mountain Summit Trail'
p2658
sS'hike739'
p2659
S'Berkeley Park Trail'
p2660
sS'hike736'
p2661
S'Umtanum Creek Canyon Trail'
p2662
sS'hike737'
p2663
S'White Bluffs North Slope Trail'
p2664
sS'hike734'
p2665
S'Old Loop Road Trail'
p2666
sS'hike735'
p2667
S'Cascade Falls Trail'
p2668
sS'hike732'
p2669
S'Shoe Lake Via Pacific Crest Trail'
p2670
sS'hike733'
p2671
S'Nooksack Falls Trail '
p2672
sS'hike730'
p2673
S'Twin Peaks'
p2674
sS'hike731'
p2675
S'Ross Dam Trail'
p2676
sS'hike1507'
p2677
S'Deadfall Trail'
p2678
sS'hike1506'
p2679
S'Pretzel Tree Trail'
p2680
sS'hike1505'
p2681
S'Fort Ward Hill Trail Loop to Blakely Harbor'
p2682
sS'hike1504'
p2683
S'Juniper Ridge Trail'
p2684
sS'hike1503'
p2685
S'Road 1 Sno-Park Trail'
p2686
sS'hike1502'
p2687
S'Old Market Street Trail'
p2688
sS'hike1501'
p2689
S'Seep Lakes Wildlife Area Trails'
p2690
sS'hike1500'
p2691
S'Lower Coal Creek Trail'
p2692
sS'hike1509'
p2693
S'Rock Trail'
p2694
sS'hike1508'
p2695
S'Reade Hill Trail'
p2696
sS'hike1263'
p2697
S'Elwha Overlook Trail'
p2698
sS'hike822'
p2699
S'Longs Pass Trail'
p2700
sS'hike823'
p2701
S'Deception Creek Trail'
p2702
sS'hike820'
p2703
S'Glass Beach'
p2704
sS'hike376'
p2705
S'South Lost Lake Trail'
p2706
sS'hike1439'
p2707
S'Greenleaf Falls Trail Via Pacific Crest Trail'
p2708
sS'hike1438'
p2709
S'Scarborough Hill Trail'
p2710
sS'hike1433'
p2711
S'Cashmere Mountain'
p2712
sS'hike826'
p2713
S'Elk Lake Trail'
p2714
sS'hike1431'
p2715
S'Bells View Overlook Trail'
p2716
sS'hike1430'
p2717
S'Seattle Center'
p2718
sS'hike1437'
p2719
S'East Fork Lena Creek via The Brothers Trail #821'
p2720
sS'hike1436'
p2721
S'Cameron Pass Trail'
p2722
sS'hike1435'
p2723
S'Elbow Peak Via Yellow Hill Trail'
p2724
sS'hike1434'
p2725
S'Cascade Scenic Drive'
p2726
sS'hike824'
p2727
S'Discovery Park Extended Loop Trail'
p2728
sS'hike825'
p2729
S'Swauk Forest Discovery Trail'
p2730
sS'hike1261'
p2731
S'Elliott Creek Trail'
p2732
sS'hike1756'
p2733
S'Forest Lake Via Huckleberry Creek and Sourdough Ridge Trails'
p2734
sS'hike1757'
p2735
S'Squak Mountain Connector Trail to Wilderness Creek'
p2736
sS'hike1754'
p2737
S'Snohomish River Sloughs'
p2738
sS'hike1755'
p2739
S'Bald Eagle Loop Trail'
p2740
sS'hike1752'
p2741
S'Slavin Pond Trail'
p2742
sS'hike1753'
p2743
S'Bogachiel River and Ira Springs Wetland Loop'
p2744
sS'hike1750'
p2745
S'Lake Union Waterfront Walkway: Northwest Seaport'
p2746
sS'hike1751'
p2747
S'Shellrock Lake Trail'
p2748
sS'hike1758'
p2749
S'Green Giant Buttress: Dreamer and Giant Tears Route'
p2750
sS'hike470'
p2751
S'Sourdough Gap (past Sheep Lake)'
p2752
sS'hike1267'
p2753
S'Dry Creek Trail'
p2754
sS'hike127'
p2755
S'Mount Saint Helens via Worm Flows Trail'
p2756
sS'hike126'
p2757
S'Lena Lake Trail to Upper Lena Lake Trail'
p2758
sS'hike125'
p2759
S'Madison Falls Trail'
p2760
sS'hike893'
p2761
S'Abercrombie Mountain'
p2762
sS'hike656'
p2763
S'Guye Peak Trail'
p2764
sS'hike123'
p2765
S'Eightmile Lake Trail'
p2766
sS'hike1264'
p2767
S'Beaver Lake Trail'
p2768
sS'hike122'
p2769
S'The Wonderland Trail'
p2770
sS'hike121'
p2771
S'Red Town and Cave Hole Trail Loop '
p2772
sS'hike120'
p2773
S'Lighthouse Point via Bowman Bay/Rosario Beach Trail'
p2774
sS'hike813'
p2775
S'Burroughs Mountain Loop Via Glacier Basin'
p2776
sS'hike812'
p2777
S"Poulsbo's Fish Park Trail"
p2778
sS'hike811'
p2779
S'Heather Park via Lake Angeles Trail'
p2780
sS'hike810'
p2781
S'Four Stream Trail'
p2782
sS'hike817'
p2783
S'Indian, Shy Bear and Quarry Loop'
p2784
sS'hike816'
p2785
S'Willapa Hills Trail'
p2786
sS'hike815'
p2787
S'Notch Pass Trail'
p2788
sS'hike814'
p2789
S'Monte Cristo Trail to Silver Lake Trail'
p2790
sS'hike819'
p2791
S'Island Lake Trail'
p2792
sS'hike818'
p2793
S'PSE Powerline Trail'
p2794
sS'hike2188'
p2795
S'Yellow Lake Loop'
p2796
sS'hike2189'
p2797
S'Ray Trail'
p2798
sS'hike2186'
p2799
S'Chewuch River Trail to Four Point Lake'
p2800
sS'hike2187'
p2801
S'Blue Lake Trail # 604'
p2802
sS'hike2184'
p2803
S'Purple Creek Trail'
p2804
sS'hike2185'
p2805
S'Lily Point Loop'
p2806
sS'hike2182'
p2807
S'Ruby Creek Trail'
p2808
sS'hike2183'
p2809
S'Kepple Peninsula Interpretive Trail'
p2810
sS'hike2180'
p2811
S'Olympus Trail to Heritage Trail and Waterline Trail '
p2812
sS'hike2181'
p2813
S'Rattlesnake Trail 1114'
p2814
sS'hike259'
p2815
S'Surprise Creek Trail to Surprise and Glacier Lakes '
p2816
sS'hike258'
p2817
S'Tubal Cain Trail'
p2818
sS'hike558'
p2819
S'Grand Pass Trail'
p2820
sS'hike251'
p2821
S'Lake Dorothy Trail'
p2822
sS'hike250'
p2823
S'Echo Peak Loop Trail'
p2824
sS'hike253'
p2825
S'Ptarmigan Ridge Trail'
p2826
sS'hike252'
p2827
S'Soos Creek Trail'
p2828
sS'hike255'
p2829
S'June Lake Trail'
p2830
sS'hike254'
p2831
S'Kelly Butte Trail #1031'
p2832
sS'hike257'
p2833
S'Lovers Lane Trail'
p2834
sS'hike256'
p2835
S'PJ Lake Trail'
p2836
sS'hike554'
p2837
S'Marymoor Park Trail'
p2838
sS'hike2454'
p2839
S'Lost Lake, Sqebeqsed Trail, Andrews Bay Trail, Woodpecker Trail'
p2840
sS'hike2455'
p2841
S'Tahuya and Rock Garden OHV Loop'
p2842
sS'hike2456'
p2843
S'Lookout Mountain OHV Loop'
p2844
sS'hike2457'
p2845
S'Belfair Howell Lake and Tahuya OHV Loop'
p2846
sS'hike2450'
p2847
S' Chamna Trail'
p2848
sS'hike2451'
p2849
S'Benton City Walking Path'
p2850
sS'hike2452'
p2851
S'Evergreen Woods And Steel OHV Loop'
p2852
sS'hike2453'
p2853
S'Huckleberry Hill and Pump House Loop'
p2854
sS'hike927'
p2855
S'Denny Creek Road to Franklin Falls Trail 1036'
p2856
sS'hike926'
p2857
S'Rock Creek Escure Ranch Trail'
p2858
sS'hike925'
p2859
S'Trout Lake via West Fork Foss Lakes Trail'
p2860
sS'hike924'
p2861
S'McKay Marsh Trail'
p2862
sS'hike2458'
p2863
S'Taneum and Manastash Ridge Trail OHV Loop'
p2864
sS'hike2459'
p2865
S'Green Mountain Trail [PRIVATE PROPERTY]'
p2866
sS'hike921'
p2867
S'Clay Pit Trail'
p2868
sS'hike920'
p2869
S'Tuscohatchie Lake Trail'
p2870
sS'hike1244'
p2871
S'Surprise Lake Trail'
p2872
sS'hike1245'
p2873
S'Indian Racetrack Trail to Red Mountain Lookout'
p2874
sS'hike1246'
p2875
S"Marshall's Hill Trail"
p2876
sS'hike1247'
p2877
S'Lake Sundown Trail'
p2878
sS'hike1240'
p2879
S'Vista Loop via Entry Road'
p2880
sS'hike1241'
p2881
S'Chehalis River Sloughs Trail'
p2882
sS'hike1242'
p2883
S'Cattle Point - San Juan Island'
p2884
sS'hike1243'
p2885
S'Beach House, Stump House, Big Maple, and Plateau Loop'
p2886
sS'hike1248'
p2887
S'Cutthroat Lake via the PCT'
p2888
sS'hike1249'
p2889
S'Howard Amon Park'
p2890
sS'hike1262'
p2891
S'Wonderland Trail: Mowich Lake Campground to Ipsut Creek Campground'
p2892
sS'hike309'
p2893
S'Talus Loop Trail'
p2894
sS'hike2533'
p2895
S'Rubicon Trail'
p2896
sS'hike2532'
p2897
S'Mission Peak Loop from Stanford Avenue Staging Area'
p2898
sS'hike2531'
p2899
S'Half Dome Trail'
p2900
sS'hike2530'
p2901
S'Bright Angel Trail to Bright Angel Campground and River Trail'
p2902
sS'hike49'
p2903
S'Spray Park Trail'
p2904
sS'hike48'
p2905
S'Lower Lena Lake Trail'
p2906
sS'hike47'
p2907
S'Burroughs Mountain Loop Trail '
p2908
sS'hike46'
p2909
S'Cape Horn Loop Trail'
p2910
sS'hike45'
p2911
S'Melakwa Lake via Denny Creek Trail'
p2912
sS'hike44'
p2913
S'Mount Saint Helens Summit via Ptarmigan Trail'
p2914
sS'hike43'
p2915
S'Camp Muir Route Via Skyline Trail'
p2916
sS'hike42'
p2917
S'Comet and Christine Falls'
p2918
sS'hike41'
p2919
S'Liberty Lake Loop Trail'
p2920
sS'hike40'
p2921
S'Marymere Falls Trail'
p2922
sS'hike912'
p2923
S'Bogachiel River Trail'
p2924
sS'hike913'
p2925
S'Alaska Lake via Gold Creek Trail'
p2926
sS'hike101'
p2927
S'Enchanted Valley Chalet via East Fork Quinault River Trail'
p2928
sS'hike100'
p2929
S'Spruce Railroad Trail: Lake Crescent'
p2930
sS'hike103'
p2931
S'Squak Mountain Road Southeast to May Valley Loop Trail '
p2932
sS'hike102'
p2933
S'Silver Falls Trail'
p2934
sS'hike105'
p2935
S'Lake Washinton Watertower, South Ridge, Beach and North Trail Loop'
p2936
sS'hike104'
p2937
S'Teneriffe Falls and Mount Teneriffe Loop'
p2938
sS'hike107'
p2939
S'Narada Falls Trail'
p2940
sS'hike106'
p2941
S'Lower Falls Creek Trail '
p2942
sS'hike109'
p2943
S'Whittaker Wilderness Peak Trail'
p2944
sS'hike108'
p2945
S'Green Lake Loop Trail'
p2946
sS'hike975'
p2947
S'Bob Bammert Grove Trail'
p2948
sS'hike918'
p2949
S'Ohanapecosh Hot Springs Trail'
p2950
sS'hike919'
p2951
S'High Point Trail'
p2952
sS'hike1354'
p2953
S'Twisp Pass Trail'
p2954
sS'hike749'
p2955
S'Eldorado Peak East Ridge Trail'
p2956
sS'hike748'
p2957
S'High Divide and Seven Lakes Basin'
p2958
sS'hike743'
p2959
S'Puyallup Riverwalk Trail'
p2960
sS'hike742'
p2961
S'McLane School Forest Trail'
p2962
sS'hike741'
p2963
S'Rosario Head Trail'
p2964
sS'hike740'
p2965
S'Windy Ridge and Plains of Abraham Loop '
p2966
sS'hike747'
p2967
S'Cooper River Trail'
p2968
sS'hike746'
p2969
S'Cape Flattery Tribal Scenic Byway'
p2970
sS'hike745'
p2971
S'Lewis and Clark Discovery Greenway Trail'
p2972
sS'hike744'
p2973
S'Independence Lake Trail'
p2974
sS'hike2302'
p2975
S'Whale Watch Site Trail'
p2976
sS'hike2303'
p2977
S'Geophysical Nordic Ski and Mtn Bike Trail'
p2978
sS'hike1275'
p2979
S'Frater Lake Trail'
p2980
sS'hike1274'
p2981
S'Round the Mountain Trail'
p2982
sS'hike1277'
p2983
S'Narbeck Sanctuary Perimeter Trail'
p2984
sS'hike1276'
p2985
S'Union Creek Trail'
p2986
sS'hike2308'
p2987
S'Fauntleroy Park Trail '
p2988
sS'hike2309'
p2989
S'Silver Star Trail'
p2990
sS'hike1538'
p2991
S'Rabbit Trail to Echo Point to Three Lakes Trail Loop'
p2992
sS'hike1539'
p2993
S'Phelps Creek Trail to Lyman Lake'
p2994
sS'hike1273'
p2995
S'Lemei Trail to Lemei Rock'
p2996
sS'hike1532'
p2997
S'Schriebers Meadow via Park Butte Trail 603'
p2998
sS'hike1533'
p2999
S'Sumas Mountain, P-1000, and P-1200 OHV Trail'
p3000
sS'hike1530'
p3001
S'Wright Park'
p3002
sS'hike1531'
p3003
S'Rainbow Canyon Trail'
p3004
sS'hike1536'
p3005
S'Rainier View Trail'
p3006
sS'hike1537'
p3007
S'Bear Ridge Trail'
p3008
sS'hike1534'
p3009
S'Grist Mill Loop'
p3010
sS'hike1535'
p3011
S'Snoqualmie Point Park'
p3012
sS'hike1408'
p3013
S'Slide Lake Trail'
p3014
sS'hike1409'
p3015
S'Heart Lake Loop'
p3016
sS'hike1406'
p3017
S'Lava Canyon Trail [CLOSED]'
p3018
sS'hike1407'
p3019
S'Mount Baldy via Domerie Divide Trail'
p3020
sS'hike1404'
p3021
S'Old Mine Trail'
p3022
sS'hike1405'
p3023
S'CCC Trail'
p3024
sS'hike1402'
p3025
S'Talus Bridge Trail'
p3026
sS'hike1403'
p3027
S'Columbia Mountain  (Kettle Crest North)'
p3028
sS'hike1400'
p3029
S'East Tiger: Silent Swamp Trail'
p3030
sS'hike1401'
p3031
S'Mesatchee Creek Trail'
p3032
sS'hike821'
p3033
S'Mount Finlayson Trail'
p3034
sS'hike1749'
p3035
S'Kopachuck Nature Loop'
p3036
sS'hike1748'
p3037
S'Bloedel Reserve Loop'
p3038
sS'hike1741'
p3039
S'South Point Trail'
p3040
sS'hike1740'
p3041
S'Dalles Campground Trail'
p3042
sS'hike1743'
p3043
S'Canyon Creek and Mink Lake Loop Trail'
p3044
sS'hike1742'
p3045
S'Esmeralda Basin Trail'
p3046
sS'hike1745'
p3047
S'Beach Trail'
p3048
sS'hike1744'
p3049
S'Chain Lakes and Bulls Tooth Loop Trail'
p3050
sS'hike1747'
p3051
S'Smith Creek Butte Trail'
p3052
sS'hike1746'
p3053
S"Nature Trail, Little Mountain and Lower Surfer's Way"
p3054
sS'hike827'
p3055
S'Tunnel Creek Trail'
p3056
sS'hike977'
p3057
S'Rainbow Lake via Pratt Lake Trail'
p3058
sS'hike800'
p3059
S'Three Peaks Loop'
p3060
sS'hike801'
p3061
S'Olympic Hot Springs, Appleton Pass, and Sol Duc Loop Trail'
p3062
sS'hike802'
p3063
S'Damon Point State Park Trail'
p3064
sS'hike803'
p3065
S'Bennington Lake Trail'
p3066
sS'hike804'
p3067
S'Swamp, Ruths Kees Big Tree and Bus Trail Loop'
p3068
sS'hike805'
p3069
S'Ring Hill Forest Trail System'
p3070
sS'hike806'
p3071
S'Dash Point State Park Loop via Beach Trail'
p3072
sS'hike807'
p3073
S'Sugarloaf Mountain Trail'
p3074
sS'hike808'
p3075
S'Yakima Rim Trail '
p3076
sS'hike809'
p3077
S'Coal Creek to Primrose Trail'
p3078
sS'hike2191'
p3079
S'Muddy Meadows Trail'
p3080
sS'hike2190'
p3081
S'Goat Mountain and Green River Loop Trail'
p3082
sS'hike2193'
p3083
S'Sasse Ridge Trail'
p3084
sS'hike2192'
p3085
S'Trail 25 and 410 Loop'
p3086
sS'hike2195'
p3087
S'Newcastle Highlands to De Leo Wall Loop'
p3088
sS'hike2194'
p3089
S'Harvey Creek'
p3090
sS'hike2197'
p3091
S'Big Flat '
p3092
sS'hike2196'
p3093
S'Squak Mountain Connector Trail'
p3094
sS'hike2199'
p3095
S'Capitol Forest Loop from Mima Falls Trailhead'
p3096
sS'hike2198'
p3097
S'Six Ridge Trail'
p3098
sS'hike2447'
p3099
S'Goss Lake Loop'
p3100
sS'hike2446'
p3101
S'Crow Creek and Little Bald Mountain OHV Loop'
p3102
sS'hike2445'
p3103
S'Lone Fir Trail Loop'
p3104
sS'hike2444'
p3105
S'Perrigo Park Loop Path'
p3106
sS'hike938'
p3107
S'Camano Island State Park Trail'
p3108
sS'hike939'
p3109
S'Deschutes Falls'
p3110
sS'hike2441'
p3111
S'Brannian Creek Trestle Loop'
p3112
sS'hike2440'
p3113
S'Little Creek to Old Timber to Bobcat Run Loop'
p3114
sS'hike934'
p3115
S'Hurricane Hill Nature Trail to Little River Trail'
p3116
sS'hike935'
p3117
S'Mount Persis West Ridge Trail'
p3118
sS'hike936'
p3119
S'Emerald Ridge Trail'
p3120
sS'hike937'
p3121
S'Bumping Lake Trail'
p3122
sS'hike930'
p3123
S'Olympic Resource Trails'
p3124
sS'hike931'
p3125
S'Ski Hill Trail'
p3126
sS'hike932'
p3127
S'Arboretum Waterfront Trail'
p3128
sS'hike2448'
p3129
S'Mission Creek and Tahuya River OHV Trail'
p3130
sS'hike1257'
p3131
S'Grouse Vista, Indian Pits, Silver Star Mountain, Eds Trail, Sturgeon Trail, Tarbel Trail'
p3132
sS'hike1256'
p3133
S"Saint George's Trail to Little Spokane River"
p3134
sS'hike1255'
p3135
S'Porpoise Point Trail'
p3136
sS'hike1254'
p3137
S'Trapper Creek and Observation Peak Loop '
p3138
sS'hike1253'
p3139
S'Sullivan Lake'
p3140
sS'hike1252'
p3141
S"Cave Hole, Fred's Railroad, Quarry, Indian and Red Town Loop"
p3142
sS'hike1251'
p3143
S'Mount Spokane July-Oct Hike'
p3144
sS'hike1250'
p3145
S'Dog Mountain Inner Loop'
p3146
sS'hike1259'
p3147
S'Holmberg Conservation Area Loop'
p3148
sS'hike1258'
p3149
S'Ridley Creek Trail'
p3150
sS'hike2502'
p3151
S'Davis and Wildcat OHV Trail '
p3152
sS'hike2503'
p3153
S'Osborne Mountain and South Park OHV Trail'
p3154
sS'hike2500'
p3155
S'Thorp Mountain via Kachess Ridge Trail'
p3156
sS'hike2501'
p3157
S'Boulder Cave and Edgar Rock OHV Loop'
p3158
sS'hike2506'
p3159
S'Mission Creek to Horse Camp OHV Trail'
p3160
sS'hike2507'
p3161
S'Osborne Mountain and South Park OHV Loop'
p3162
sS'hike2504'
p3163
S'Pioneer Trails [PRIVATE PROPERTY]'
p3164
sS'hike2505'
p3165
S'Gold Creek Trail, Green Mountain, and Wildcat Trail OHV Trail'
p3166
sS'hike2508'
p3167
S'Rimrock Lake OHV Loop'
p3168
sS'hike2509'
p3169
S'Strobach Mountain and Jump Off Lookout OHV Loop'
p3170
sS'hike38'
p3171
S'Beacon Rock Trail'
p3172
sS'hike39'
p3173
S'Bridal Veil Falls Trail'
p3174
sS'hike32'
p3175
S'Ape Cave Trail'
p3176
sS'hike33'
p3177
S'Goat Lake Trail'
p3178
sS'hike30'
p3179
S'Little Mashel Falls Trail'
p3180
sS'hike31'
p3181
S'Mason Lake via Ira Spring Memorial Trail'
p3182
sS'hike36'
p3183
S'Big Four Ice Caves Trail'
p3184
sS'hike37'
p3185
S'Hoh Rain Forest Hall of Moss'
p3186
sS'hike34'
p3187
S'Mount Storm King'
p3188
sS'hike35'
p3189
S'Sol Duc Falls Nature Trail'
p3190
sS'hike246'
p3191
S'Bells Mountain Trail'
p3192
sS'hike247'
p3193
S'Antoine Peak via Emerald Necklace'
p3194
sS'hike244'
p3195
S'Minotaur Lake Trail'
p3196
sS'hike245'
p3197
S'Deception Falls Interpretive Trail'
p3198
sS'hike242'
p3199
S'Heybrook Ridge'
p3200
sS'hike243'
p3201
S'Mount Catherine (#1348)'
p3202
sS'hike240'
p3203
S'Spirit Falls Trail'
p3204
sS'hike241'
p3205
S'Quinault Rain Forest Nature Trail'
p3206
sS'hike248'
p3207
S'Tradition Lake Loop Trail'
p3208
sS'hike249'
p3209
S'Mirror Lake Trail'
p3210
sS'hike118'
p3211
S'Nisqually Estuary Boardwalk and Twin Barns Trail'
p3212
sS'hike119'
p3213
S'Dash Point Trail'
p3214
sS'hike116'
p3215
S'Upper Big Quilcene Trail via Marmot Pass'
p3216
sS'hike117'
p3217
S'Siouxon Trail: Upper Siouxon Trailhead'
p3218
sS'hike114'
p3219
S'Ozette Triangle Trail'
p3220
sS'hike115'
p3221
S'Grove of the Patriarchs Nature Trail'
p3222
sS'hike112'
p3223
S'Tuck and Robin Lakes'
p3224
sS'hike113'
p3225
S'Summer Land Trail'
p3226
sS'hike110'
p3227
S'Beckler Peak '
p3228
sS'hike111'
p3229
S'Mima Falls Trail'
p3230
sS'hike984'
p3231
S'Snake Lake Loop Trail'
p3232
sS'hike1954'
p3233
S'Trail 101 to Rimrock Drive'
p3234
sS'hike758'
p3235
S"Hood's Head Trail"
p3236
sS'hike759'
p3237
S'Walker Valley OHV Trail'
p3238
sS'hike1454'
p3239
S'Chanterelle Trail and Wickersham Truck Road Loop'
p3240
sS'hike750'
p3241
S'Tipsoo Lake to American Ridge'
p3242
sS'hike751'
p3243
S'Grand Park Trail'
p3244
sS'hike752'
p3245
S"Enchanted Valley LaCrosse Basin O'Neill Pass Loop Trail"
p3246
sS'hike753'
p3247
S'Little Mashel Falls Trail via Bud Blancher Trail'
p3248
sS'hike754'
p3249
S'West Elwha River Trail'
p3250
sS'hike755'
p3251
S'Whittier Ridge Lakes Trail'
p3252
sS'hike756'
p3253
S'Washington Pass Overlook Trail'
p3254
sS'hike757'
p3255
S'Summit Ridge Loop'
p3256
sS'hike1456'
p3257
S'Cougar Divide'
p3258
sS'hike1451'
p3259
S'Dingford Creek Trail '
p3260
sS'hike1955'
p3261
S'West Cady Ridge Trail to Bench Mark Mountain'
p3262
sS'hike1450'
p3263
S'Mount Baldy and Thomas Mountain to Silver Creek '
p3264
sS'hike1453'
p3265
S'Lewis & Clark Interpertive Loop'
p3266
sS'hike1452'
p3267
S'Ahtanum Ridge Loop'
p3268
sS'hike2345'
p3269
S'American Ridge Trail'
p3270
sS'hike1529'
p3271
S'Canyon Crest Trail to Rat Creek Ridge Trail'
p3272
sS'hike1528'
p3273
S'Whistle Punk Trail'
p3274
sS'hike1525'
p3275
S'Bill Chipman Palouse Trail: Pullman to Moscow'
p3276
sS'hike1524'
p3277
S'Wenatchee Confluence Trail'
p3278
sS'hike1527'
p3279
S'Little Giant Pass'
p3280
sS'hike1526'
p3281
S'Blowdown Mountain'
p3282
sS'hike1521'
p3283
S'Chiwaukum Creek Trail'
p3284
sS'hike1520'
p3285
S'Thompson Lake Trail '
p3286
sS'hike1523'
p3287
S'Mill Creek Truck Trail'
p3288
sS'hike1522'
p3289
S'Coal Mine Loop'
p3290
sS'hike1411'
p3291
S'Nooksack Cirque Trail'
p3292
sS'hike1410'
p3293
S'May Valley to Squak Mountain Road Loop '
p3294
sS'hike1413'
p3295
S'Mirror Lake to Pacific Crest Trail '
p3296
sS'hike1412'
p3297
S'Sky Country to Harvey Manning Loop'
p3298
sS'hike1415'
p3299
S'Lake Caroline and Windy Pass'
p3300
sS'hike1414'
p3301
S'Little Summit from Mountain Lake'
p3302
sS'hike1417'
p3303
S'Teneriffe Talus Loop'
p3304
sS'hike1416'
p3305
S'Cougar Mt Squak Mt Connector to Doughty Falls'
p3306
sS'hike1419'
p3307
S'Kettles Recreation Area to Fort Ebey Loop'
p3308
sS'hike1418'
p3309
S'Sultan River Canyon Trail'
p3310
sS'hike970'
p3311
S"Schmitz Park Preserve: Seattle's Forest Past"
p3312
sS'hike1738'
p3313
S'Thirteenmile Hiking Trail'
p3314
sS'hike1739'
p3315
S'West Tiger #3 via Cable Line and Nook Trail Loop'
p3316
sS'hike1734'
p3317
S'Stampede Pass to Tacoma Pass via the PCT'
p3318
sS'hike1735'
p3319
S'Hawk Creek Trail'
p3320
sS'hike1736'
p3321
S'Eagle Lakes Trail'
p3322
sS'hike1737'
p3323
S'Wynoochee Pass Trail'
p3324
sS'hike1730'
p3325
S'Bear Canyon'
p3326
sS'hike1731'
p3327
S'Union Bay Natural Area Loop'
p3328
sS'hike1732'
p3329
S'Coyote Creek to Klondike Swamp Trail'
p3330
sS'hike1733'
p3331
S'Deer Creek Road'
p3332
sS'hike2292'
p3333
S'Padden Parkway Trail'
p3334
sS'hike2293'
p3335
S'Howson Creek Trail'
p3336
sS'hike2290'
p3337
S'Ape Canyon to Plains of Abraham'
p3338
sS'hike2291'
p3339
S'Beauty Creek Falls Trail'
p3340
sS'hike2296'
p3341
S'North Canyon Trail to Joe Watt Trail Loop'
p3342
sS'hike2297'
p3343
S'7 Peaks of East and South Tiger Mountains'
p3344
sS'hike2294'
p3345
S'Cougar Mountain via S Tommy and Tyee Ridge Trail'
p3346
sS'hike2295'
p3347
S'Gifford Peak via PCT'
p3348
sS'hike972'
p3349
S'Hazel Wolf Wetlands Trail'
p3350
sS'hike2298'
p3351
S'Walla Walla River'
p3352
sS'hike2299'
p3353
S'Richmond Mine Trail'
p3354
sS'hike2050'
p3355
S'Orchard Loop to Grotto Trail'
p3356
sS'hike2051'
p3357
S'Pear Lake via Top Lake Trail'
p3358
sS'hike2052'
p3359
S'China Creek Trail'
p3360
sS'hike2053'
p3361
S'Northwest Timber Trail to Preston Railroad Grade and East Tiger Summit to Main Tiger Mountain Road'
p3362
sS'hike2054'
p3363
S'Corral Pass Campground to Hidden Lake'
p3364
sS'hike2055'
p3365
S'Badger Valley Trail to Grand Pass Trail Loop'
p3366
sS'hike2056'
p3367
S'Lewis River East Fork from Daybreak Park'
p3368
sS'hike2057'
p3369
S'Lewis & Clark Trail State Park Nature Loop'
p3370
sS'hike2058'
p3371
S'Lundin Peak View and Red Mountain via Old Commonwealth Trail'
p3372
sS'hike2059'
p3373
S'Wobbly Lake Trail'
p3374
sS'hike1088'
p3375
S'James T. Slavin Conservation Area Loop'
p3376
sS'hike1089'
p3377
S'Boundary West Trail'
p3378
sS'hike1640'
p3379
S'Thunder Creek, Fourth of July, and Panther Creek Trail'
p3380
sS'hike1641'
p3381
S'Naches Trail'
p3382
sS'hike1642'
p3383
S'Spencer Spit Trail'
p3384
sS'hike1643'
p3385
S'Mount Spokane'
p3386
sS'hike1644'
p3387
S'Bagley Seam Trail'
p3388
sS'hike1645'
p3389
S'Stafford Creek / Standup Creek Loop'
p3390
sS'hike1646'
p3391
S'Pine Lake'
p3392
sS'hike1647'
p3393
S'Mount Spokane from Hairpin Turn Parking Trailhead'
p3394
sS'hike1648'
p3395
S'Bayview and Mimzie Trail '
p3396
sS'hike1649'
p3397
S'Traditinal Lake to Wetlands Trail Loop'
p3398
sS'hike974'
p3399
S'Sand Point Trail'
p3400
sS'hike1290'
p3401
S'Heather Creek Trail'
p3402
sS'hike839'
p3403
S'Baker River Trail'
p3404
sS'hike838'
p3405
S'North Beach Trail'
p3406
sS'hike835'
p3407
S'Moss Lake Trail'
p3408
sS'hike834'
p3409
S'Fourth of July Pass via Panther Creek Trail'
p3410
sS'hike837'
p3411
S'McCormick Forest Park Loop'
p3412
sS'hike836'
p3413
S'Beaver Lake Hike Trail'
p3414
sS'hike831'
p3415
S'Hester Lake Trail'
p3416
sS'hike830'
p3417
S'Kelsey Creek Farm'
p3418
sS'hike833'
p3419
S'Pine Bluff Loop'
p3420
sS'hike832'
p3421
S'Cross Kirkland Corridor'
p3422
sS'hike1396'
p3423
S'Ginkgo Petrified Forest Interpretive Trail'
p3424
sS'hike1397'
p3425
S'Yodelin Ski Tour'
p3426
sS'hike1394'
p3427
S'Ben Burr Trail'
p3428
sS'hike1395'
p3429
S'Beach, Fern Alley and Outbound Loop'
p3430
sS'hike1392'
p3431
S'Tiffany Mountain Trail'
p3432
sS'hike1393'
p3433
S'Geneva Pond Loop'
p3434
sS'hike1390'
p3435
S'Skagit Tulip Fields'
p3436
sS'hike1391'
p3437
S'Skagit River Trail'
p3438
sS'hike1398'
p3439
S'Maddox Creek Trail'
p3440
sS'hike1399'
p3441
S'Selah Butte Trail'
p3442
sS'hike2478'
p3443
S'Pine Marten, National Forest Road and Sasquatch Trail'
p3444
sS'hike2479'
p3445
S'Big Rock Trail [CLOSED / PRIVATE PROPERTY]'
p3446
sS'hike2472'
p3447
S'Bald Mountain OHV Loop'
p3448
sS'hike2473'
p3449
S'Cispus River to Blue Lake OHV Trail'
p3450
sS'hike2470'
p3451
S'Mount Clifty and Quartz Mountain OHV Loop'
p3452
sS'hike2471'
p3453
S'Tahuya Staging OHV Trail '
p3454
sS'hike2476'
p3455
S'Milk Creek, Manastash Creek, and Quartz Creek OHV Loop'
p3456
sS'hike2477'
p3457
S'Hope and Mig Lakes via PCT'
p3458
sS'hike2474'
p3459
S'Route 410, RD 1712-665, and RD 1713 OHV Trail'
p3460
sS'hike2475'
p3461
S'North Twentymile Trail'
p3462
sS'hike2278'
p3463
S'Methow River: Carlton to McFarland Creek'
p3464
sS'hike2279'
p3465
S'Forest Park, Saddle Back and Summit West Trail'
p3466
sS'hike1268'
p3467
S'Marymoor Connector Trail'
p3468
sS'hike1269'
p3469
S'Lynndale Park Woods Trail'
p3470
sS'hike901'
p3471
S'West Tiger Mountain Loop'
p3472
sS'hike900'
p3473
S'Myrtle Edwards Park to Elliott Bay Park'
p3474
sS'hike903'
p3475
S'Picnic Point Park'
p3476
sS'hike902'
p3477
S'Young Hill Trail'
p3478
sS'hike905'
p3479
S'Clayton Beach Trail'
p3480
sS'hike904'
p3481
S'Glacier Lake Trail'
p3482
sS'hike907'
p3483
S'Larch Mountain MTB Trail'
p3484
sS'hike906'
p3485
S'Icicle Creek Trail'
p3486
sS'hike1068'
p3487
S'Maple Glade Nature Trail'
p3488
sS'hike1069'
p3489
S'Poo Poo Point, West Tiger and TMT Loop'
p3490
sS'hike1060'
p3491
S'Indian Heaven Lakes Trail'
p3492
sS'hike1061'
p3493
S'North Cascades Scenic Byway'
p3494
sS'hike1062'
p3495
S'Buck Creek Trail'
p3496
sS'hike1063'
p3497
S'Box Canyon Trail'
p3498
sS'hike1064'
p3499
S'Gorge Creek Falls Trail'
p3500
sS'hike1065'
p3501
S'Kautz Creek Trail to Mirror Lakes'
p3502
sS'hike1066'
p3503
S'Washougal River Greenway Trail'
p3504
sS'hike1067'
p3505
S'Amabilis Mountain Trail'
p3506
sS'hike349'
p3507
S'Cirque Rim Nature Trail'
p3508
sS'hike348'
p3509
S'Rimrock Conservation Area Palisades Park Loop Trail'
p3510
sS'hike347'
p3511
S'Cutthroat Lakes Via Walt Baily Trail'
p3512
sS'hike346'
p3513
S'Sourdough Ridge Nature Trail'
p3514
sS'hike345'
p3515
S'Big Gulch Trail'
p3516
sS'hike344'
p3517
S'Lila Lake Trail'
p3518
sS'hike343'
p3519
S'Deception Pass Bridge and Beach Trail'
p3520
sS'hike342'
p3521
S'Badger Mountain Trail'
p3522
sS'hike341'
p3523
S'Boardman Lake Trail'
p3524
sS'hike340'
p3525
S'Mercer Slough Nature Park'
p3526
sS'hike2515'
p3527
S'Greek Creek OHV Loop'
p3528
sS'hike2514'
p3529
S'Mount Clifty OHV Trail'
p3530
sS'hike2517'
p3531
S'Taneum Frost Mountain OHV Loop'
p3532
sS'hike2516'
p3533
S'Frye Cove County Park Loop'
p3534
sS'hike2511'
p3535
S'Tahuya River Trail, Mission Creek, and Long Marsh OHV Loop'
p3536
sS'hike2510'
p3537
S'Overland and Mission Creek 4wd Loop '
p3538
sS'hike2513'
p3539
S'Little Naches River and Mount Clifty OHV Trail'
p3540
sS'hike2512'
p3541
S'Warm Beach Trail [PRIVATE PROPERTY]'
p3542
sS'hike2519'
p3543
S'Little Bald Mountain Trail'
p3544
sS'hike2518'
p3545
S'Three Corner Rock Trail [CLOSED]'
p3546
sS'hike29'
p3547
S'Snoqualmie Falls Trail'
p3548
sS'hike28'
p3549
S'Hidden Lake Lookout Trail'
p3550
sS'hike21'
p3551
S'Blanca Lake Trail'
p3552
sS'hike20'
p3553
S'Dog Mountain Trail'
p3554
sS'hike23'
p3555
S'Discovery Park and Lighthouse Loop Trail'
p3556
sS'hike22'
p3557
S'The Enchantments Trail'
p3558
sS'hike25'
p3559
S'Maple Pass Trail'
p3560
sS'hike24'
p3561
S'Oyster Dome Trail'
p3562
sS'hike27'
p3563
S'Granite Mountain Trail'
p3564
sS'hike26'
p3565
S'Mailbox Peak (New) Trail'
p3566
sS'hike233'
p3567
S'Carbon Glacier Trail'
p3568
sS'hike232'
p3569
S'Tumwater Falls Trail'
p3570
sS'hike231'
p3571
S'Siouxon Trail: Siouxon Trailhead'
p3572
sS'hike230'
p3573
S'Far Country Lookout and Longview Peak Cougar Mountain Loop Trail'
p3574
sS'hike237'
p3575
S'Wonderland Trail to Panhandle Gap'
p3576
sS'hike236'
p3577
S'Hardy Falls and Pool of the Winds Falls via Hamilton Mountain Trail'
p3578
sS'hike235'
p3579
S'The Quillayute Needles Second Beach Trail'
p3580
sS'hike234'
p3581
S'Glacier View Trail (#267)'
p3582
sS'hike570'
p3583
S'Hannegan Peak Trail'
p3584
sS'hike239'
p3585
S'Hummocks Trail'
p3586
sS'hike238'
p3587
S'Rachel Lake Trail'
p3588
sS'hike571'
p3589
S'Bagley Creek Loop Trail'
p3590
sS'hike699'
p3591
S'Snoquera Falls'
p3592
sS'hike698'
p3593
S'Mica Peak'
p3594
sS'hike169'
p3595
S'Dishman Hills Natural Area Trail'
p3596
sS'hike168'
p3597
S'Sourdough Mountain Trail'
p3598
sS'hike691'
p3599
S'The Labyrinth to Coyote Wall Loop'
p3600
sS'hike690'
p3601
S'Mount Baker Highway to Artist Point'
p3602
sS'hike161'
p3603
S'Packwood Lake Trail'
p3604
sS'hike160'
p3605
S'Nook Trail to West Tiger Three Trail'
p3606
sS'hike167'
p3607
S'Thunder Knob Trail'
p3608
sS'hike166'
p3609
S'Putvin Trail to Lake of the Angels'
p3610
sS'hike697'
p3611
S'Patterson Mountain Trail'
p3612
sS'hike696'
p3613
S'South Beach Trail'
p3614
sS'hike578'
p3615
S'Peabody Creek Trail'
p3616
sS'hike579'
p3617
S'Wapato Lake Trail'
p3618
sS'hike589'
p3619
S'Silver Peak via Cold Creek and Pacific Crest Trail'
p3620
sS'hike588'
p3621
S'Middle Tiger Trail'
p3622
sS'hike585'
p3623
S'O. O. Denny County Park Loop Trail'
p3624
sS'hike584'
p3625
S'North Creek Trail'
p3626
sS'hike587'
p3627
S'Gold Mine Trail'
p3628
sS'hike586'
p3629
S'Tonga Ridge and Mount Sawyer'
p3630
sS'hike581'
p3631
S'Deer Ridge Trail'
p3632
sS'hike580'
p3633
S'Back of Pinnacle Peak'
p3634
sS'hike583'
p3635
S'Steamboat Rock Trail'
p3636
sS'hike582'
p3637
S'Striped Peak Trail'
p3638
sS'hike765'
p3639
S'Cape Disappointment to Breakers Trail'
p3640
sS'hike764'
p3641
S'Oyster Dome Loop'
p3642
sS'hike767'
p3643
S'High Pass Trail'
p3644
sS'hike766'
p3645
S'Mt. Spokane State Park'
p3646
sS'hike761'
p3647
S'East Fork of the Lewis River Trail: Hantwick Road Trailhead'
p3648
sS'hike760'
p3649
S'Scott Paul Trail Loop'
p3650
sS'hike763'
p3651
S'Iverson Railroad and Northwest Timber Trails'
p3652
sS'hike762'
p3653
S'Manastash Lake Trail'
p3654
sS'hike769'
p3655
S'Lacamas Lake Heritage Trail'
p3656
sS'hike768'
p3657
S'South Bay Trail'
p3658
sS'hike567'
p3659
S'Lake Lenore Caves'
p3660
sS'hike566'
p3661
S'Skyline, Glacier Vista, Upper Skyline and Golden Gate Loop'
p3662
sS'hike1888'
p3663
S'Huckleberry Creek Trail'
p3664
sS'hike1889'
p3665
S'Fisher Pond'
p3666
sS'hike563'
p3667
S'Mount McCausland Trail'
p3668
sS'hike562'
p3669
S"Alta Mountain South Ridge Climber's Trail"
p3670
sS'hike561'
p3671
S'Elwha River Trail'
p3672
sS'hike560'
p3673
S'Crawford Oaks Trailhead'
p3674
sS'hike1882'
p3675
S'McAlester Lake Trail'
p3676
sS'hike1883'
p3677
S'Forbes Valley Trail'
p3678
sS'hike1880'
p3679
S'Wapaloosie Trail'
p3680
sS'hike1881'
p3681
S'Weather Beach Trail'
p3682
sS'hike1886'
p3683
S'Burke Gilman Trail: Lavilla to Bothell'
p3684
sS'hike1887'
p3685
S'Alaska Mountain and Central Alpine Lakes Trail'
p3686
sS'hike1884'
p3687
S'Mount Cleman via Waterworks Canyon Trail'
p3688
sS'hike1885'
p3689
S'30 Acre Lake Trail'
p3690
sS'hike1455'
p3691
S'Pacific Crest Trail: Chinook Pass to White Pass'
p3692
sS'hike1296'
p3693
S'Florence Peak Trail'
p3694
sS'hike2443'
p3695
S'Westcrest Park South Loop'
p3696
sS'hike2442'
p3697
S"South Connector, Down South and Taylor's Trail"
p3698
sS'hike1464'
p3699
S'Pine Lakes Loop Trail'
p3700
sS'hike1465'
p3701
S'Shinglemill Creek'
p3702
sS'hike1466'
p3703
S'River to Rock Trail'
p3704
sS'hike1467'
p3705
S'Miller Peak Trail '
p3706
sS'hike1460'
p3707
S'Beach Loop '
p3708
sS'hike1461'
p3709
S'Old Mount Si Trail to Teneriffe Trail to Kamikaze Trail Loop'
p3710
sS'hike1462'
p3711
S'Bell Point Loop Trail'
p3712
sS'hike1463'
p3713
S'Alta Lake Trail'
p3714
sS'hike1468'
p3715
S'White Bluffs South Slope Trail'
p3716
sS'hike1469'
p3717
S'Teneriffe to Talus to Mount Si to Lower Teneriffe Connector Loop'
p3718
sS'hike2449'
p3719
S'Vaughn Outer Loop Trail'
p3720
sS'hike1729'
p3721
S'Oldgrowth Loop Trail'
p3722
sS'hike1728'
p3723
S'Queets River Trail'
p3724
sS'hike1727'
p3725
S'Truman Trail'
p3726
sS'hike1726'
p3727
S'Deer Creek Falls to Owyhigh Lakes Trail'
p3728
sS'hike1725'
p3729
S'West Access and Chybinski Loop '
p3730
sS'hike933'
p3731
S'Wilderness Cliffs Trail via Squak Mountain Connector Trail'
p3732
sS'hike1723'
p3733
S'Elk Ridge and Carey Creek'
p3734
sS'hike1722'
p3735
S'Ross Lake East Bank Trail'
p3736
sS'hike1721'
p3737
S'Duwamish Trail'
p3738
sS'hike1720'
p3739
S'Coyote Creek Trail'
p3740
sS'hike2285'
p3741
S'Pacific Way Trail'
p3742
sS'hike2284'
p3743
S'Slough Trail'
p3744
sS'hike2287'
p3745
S'Grassy Top Trail'
p3746
sS'hike2286'
p3747
S'Mount Erie Rock Climbing Sunshine Wall'
p3748
sS'hike2281'
p3749
S'Mount Adams Short Loop'
p3750
sS'hike2280'
p3751
S'The Rendezvous Mountain - Heifer Hut Ski Tour'
p3752
sS'hike2283'
p3753
S'Blackhorse Lake Boardwalk'
p3754
sS'hike2282'
p3755
S'Grandy Lake and Logging Road Trail'
p3756
sS'hike2289'
p3757
S'Mathison Park Loop'
p3758
sS'hike2288'
p3759
S'Basin Lake via Norse Peak Trail, Goat Lake Trail, and PCT'
p3760
sS'hike2043'
p3761
S'Thorp Lake via Thorp Creek Trail'
p3762
sS'hike2042'
p3763
S'Newcastle Golf Course Trail'
p3764
sS'hike2041'
p3765
S'Copper Butte Trail'
p3766
sS'hike2040'
p3767
S'Tanner Trail'
p3768
sS'hike2047'
p3769
S'Ship Canal to Westlake Cycle Track'
p3770
sS'hike1090'
p3771
S'Whistle Lake from Mount Erie'
p3772
sS'hike2045'
p3773
S'Maynard Burn Way (historical)'
p3774
sS'hike2044'
p3775
S'Cedar Downs Park'
p3776
sS'hike2049'
p3777
S'Green Mountain from Deer Park Campground'
p3778
sS'hike2048'
p3779
S'Marmot Lake Trail via Tucquala Meadows'
p3780
sS'hike1099'
p3781
S'Everett: Spencer Island'
p3782
sS'hike1098'
p3783
S'Obstruction Point Road'
p3784
sS'hike1653'
p3785
S'Glacier Vista via Avalanche Lily, DeadHorse Creek and Skyline Trail '
p3786
sS'hike1652'
p3787
S'Royal Basin - Royal Lake'
p3788
sS'hike1651'
p3789
S'Marsh Interpretive Trail'
p3790
sS'hike1650'
p3791
S'Kiwa Trail'
p3792
sS'hike1657'
p3793
S'Fragrance Lake Two Dollar Trail Loop'
p3794
sS'hike1656'
p3795
S'River Loop to Sandifur Bridge'
p3796
sS'hike1655'
p3797
S'Beacon Hill Extended Loop via Esmeralda Trail'
p3798
sS'hike1654'
p3799
S'Government Meadow to Arch Rock'
p3800
sS'hike1659'
p3801
S'Press Expedition Traverse'
p3802
sS'hike1658'
p3803
S'Tree Frog Loop Trail'
p3804
sS'hike2319'
p3805
S'Gypsy Peak via Sullivan Creek Road'
p3806
sS'hike525'
p3807
S'Hansen Ridge Trail #1020 (Little Saint Helens)'
p3808
sS'hike1389'
p3809
S'McLellan Conservation Area'
p3810
sS'hike1388'
p3811
S'Swakane Wildlife Area'
p3812
sS'hike828'
p3813
S'Juniper Peak Summit Trail'
p3814
sS'hike829'
p3815
S'Carkeek Park via Pipers Creek Trail'
p3816
sS'hike1381'
p3817
S'Green River Trail'
p3818
sS'hike1380'
p3819
S'North Beach Park to Glass Beach'
p3820
sS'hike1383'
p3821
S'Sulphur Mountain Trail'
p3822
sS'hike1382'
p3823
S'Northern State Recreation Area Loop'
p3824
sS'hike1385'
p3825
S'Raven and Coyote Trail Loop'
p3826
sS'hike1384'
p3827
S'Hidden Lake Spur Via Palisades Lake Trail'
p3828
sS'hike1387'
p3829
S'Sherman Peak Loop Trail'
p3830
sS'hike1386'
p3831
S'Chetwoot Lake Trail via West Fork Foss Lakes Trail'
p3832
sS'hike524'
p3833
S'Juan De Fuca Marine Trail to Mystic Beach Outlook'
p3834
sS'hike967'
p3835
S'Lacamas Heritage Trail via Camas Heritage Park'
p3836
sS'hike916'
p3837
S'North Head Trail'
p3838
sS'hike917'
p3839
S'PCT: WA Section L - Rainy Pass to Manning Park, BC'
p3840
sS'hike914'
p3841
S'Kachess Ridge Trail'
p3842
sS'hike915'
p3843
S'Point Wilson Trail'
p3844
sS'hike2469'
p3845
S'Saint Martins Mineral Hot Springs [PRIVATE PROPERTY]'
p3846
sS'hike2468'
p3847
S'Imus Creek Trail'
p3848
sS'hike910'
p3849
S'Lakemont Trail'
p3850
sS'hike911'
p3851
S'Day Mountain and Mount Kit Carson Trail'
p3852
sS'hike2465'
p3853
S'Manastash OHV Loop'
p3854
sS'hike2464'
p3855
S'Samish Bay Mainline to Oldcamp Loop'
p3856
sS'hike2467'
p3857
S'Gravel Pit via Prairie Road'
p3858
sS'hike2466'
p3859
S'Shoestring And Upper Kaner Westbound OHV Trail'
p3860
sS'hike2461'
p3861
S'Manastash OHV Trail'
p3862
sS'hike2460'
p3863
S'Highlands Sno-Park Area Trails'
p3864
sS'hike2463'
p3865
S'Belfuk OHV Loop'
p3866
sS'hike2462'
p3867
S'Foggy Dew OHV Loop'
p3868
sS'hike2269'
p3869
S'Seaquest #1, #1A, #8 #2 Loop'
p3870
sS'hike2268'
p3871
S'Surprise Creek Trail'
p3872
sS'hike1279'
p3873
S'Mount Higgins'
p3874
sS'hike1278'
p3875
S'Redondo Beach Boardwalk'
p3876
sS'hike2263'
p3877
S'Crowell Ridge Trail #515'
p3878
sS'hike2262'
p3879
S'Lower River Run and Jacks Loop '
p3880
sS'hike2261'
p3881
S'Larch and Rock Candy Peaks'
p3882
sS'hike2260'
p3883
S'National Forest Development Road 3075'
p3884
sS'hike2267'
p3885
S'Ranch Trail'
p3886
sS'hike2266'
p3887
S'Big Tree Ridge Trail, Surprise Creek Trail, Shangri La Trail, and Military Ridge Trail Loop'
p3888
sS'hike2265'
p3889
S'Alpine Lookout via Merritt Lake Trail to Nason Ridge Trail'
p3890
sS'hike2264'
p3891
S'Roche Harbor Lake Loop'
p3892
sS'hike1079'
p3893
S'Evans Creek Preserve from Sahalee Way'
p3894
sS'hike1078'
p3895
S'Mount Si Loop'
p3896
sS'hike1073'
p3897
S'Shy Bear Trail'
p3898
sS'hike1072'
p3899
S'Hoodoo Canyon Trail'
p3900
sS'hike1071'
p3901
S'Necklace Valley and Tank Lakes'
p3902
sS'hike1070'
p3903
S'Tahuya Lookout OHV Loop '
p3904
sS'hike1077'
p3905
S'Iron Horse Trail: Washington Creek'
p3906
sS'hike1076'
p3907
S'Monte Cristo Trail to Gothic Basin Trail to Del Campo Peakh'
p3908
sS'hike1075'
p3909
S'Horseshoe Basin Via Boundary Trail'
p3910
sS'hike1074'
p3911
S'Lookout Mountain Trail'
p3912
sS'hike358'
p3913
S'Lost Valley Trail and McKenny Trail Loop'
p3914
sS'hike359'
p3915
S'Ashland Lakes Trail'
p3916
sS'hike354'
p3917
S"Pete's Creek Trail to Colonel Bob Peak Trail"
p3918
sS'hike355'
p3919
S"Putrid Pete's Peak Trail"
p3920
sS'hike356'
p3921
S'South Coldwater Trail to Lakes Trail Loop'
p3922
sS'hike357'
p3923
S'Weeks Falls Interpretive Trail'
p3924
sS'hike350'
p3925
S'Index Town Wall Trail'
p3926
sS'hike351'
p3927
S'Blackbird Island Trail'
p3928
sS'hike352'
p3929
S'Lookout Mountain Forest Preserve'
p3930
sS'hike353'
p3931
S'Talapus Lake Trail'
p3932
sS'hike14'
p3933
S'Mailbox Peak Trail Loop'
p3934
sS'hike15'
p3935
S'Hurricane Hill via Hurricane Ridge'
p3936
sS'hike16'
p3937
S'Annette Lake Trail '
p3938
sS'hike17'
p3939
S'Mount Ellinor Trail '
p3940
sS'hike10'
p3941
S'Heather Lake Trail'
p3942
sS'hike11'
p3943
S'Colchuck Lake Trail'
p3944
sS'hike12'
p3945
S'Mount Pilchuck Trail'
p3946
sS'hike13'
p3947
S'Franklin Falls Trail 1036'
p3948
sS'hike18'
p3949
S'Hamilton Mountain and Rodney Falls Trail'
p3950
sS'hike19'
p3951
S'Skyline Trail'
p3952
sS'hike220'
p3953
S'Pinnacle Peak Loop Trail'
p3954
sS'hike221'
p3955
S'Snow Lakes Trail'
p3956
sS'hike222'
p3957
S'Navaho Peak'
p3958
sS'hike223'
p3959
S'Catherine Creek Trail (021)'
p3960
sS'hike224'
p3961
S'Dog Mountain Long Loop Trail'
p3962
sS'hike225'
p3963
S'Coyote Loop Trail'
p3964
sS'hike226'
p3965
S'Lighthouse Point and Lottie Point via Rosario Head Trail'
p3966
sS'hike227'
p3967
S'Pine and Cedar Lakes Trail'
p3968
sS'hike228'
p3969
S'Sugarloaf Mountain and Mount Erie Loop Trail'
p3970
sS'hike229'
p3971
S'Lower Big Quilcene to Notch Pass Trail Junction'
p3972
sS'hike178'
p3973
S'Reflection Lake to Narada Falls'
p3974
sS'hike179'
p3975
S'Pratt Lake Trail'
p3976
sS'hike170'
p3977
S'Quinault Loop Trail'
p3978
sS'hike171'
p3979
S'Swan Creek Trail'
p3980
sS'hike172'
p3981
S'Vesper Peak Trail'
p3982
sS'hike173'
p3983
S'Gem Lake via Snow Lake and High Lakes Trail'
p3984
sS'hike174'
p3985
S'Snoquera Falls Loop Trail'
p3986
sS'hike175'
p3987
S'Dungeness Spit Trail'
p3988
sS'hike176'
p3989
S'Upper Big Creek Loop Trail'
p3990
sS'hike177'
p3991
S'Dickerson Falls'
p3992
sS'hike598'
p3993
S'Johnson Ridge Trail'
p3994
sS'hike599'
p3995
S'Tahoma Creek Suspension Bridge'
p3996
sS'hike592'
p3997
S'Burke-Gilman Trail: West Lake Washington'
p3998
sS'hike593'
p3999
S'Historic Columbia River Gorge Highway'
p4000
sS'hike590'
p4001
S'Horsethief Butte Trail'
p4002
sS'hike591'
p4003
S'Langus River Front Trail'
p4004
sS'hike596'
p4005
S'Glacier Vista Loop via Skyline Trail'
p4006
sS'hike597'
p4007
S'Twin Sisters Rock'
p4008
sS'hike594'
p4009
S'Mount Rainier Northern Loop Trail'
p4010
sS'hike595'
p4011
S'Rock Candy Mountain Trail'
p4012
sS'hike772'
p4013
S'Lummi Peak Trail'
p4014
sS'hike773'
p4015
S'Lost Lake Trail'
p4016
sS'hike770'
p4017
S'Lake Hills Lake to Lake Trail'
p4018
sS'hike771'
p4019
S'Gold Creek Trail to Joe Lake'
p4020
sS'hike776'
p4021
S'Tamanous Trail to PCT & Gillette Lake'
p4022
sS'hike777'
p4023
S'Salsbury Point Trail'
p4024
sS'hike774'
p4025
S'Port Gamble and Poulsbo'
p4026
sS'hike775'
p4027
S'Coal Mines Trail'
p4028
sS'hike778'
p4029
S'Woodland Plateau Trail to Lloyd Trail Loop'
p4030
sS'hike779'
p4031
S'Teanaway Ridge Trail (#1364)'
p4032
sS'hike574'
p4033
S"Devil's Spur"
p4034
sS'hike575'
p4035
S'Mowich Lake to Mystic Lake Trail'
p4036
sS'hike576'
p4037
S'Goat Peak'
p4038
sS'hike577'
p4039
S'Coal Creek Falls Trail'
p4040
sS'hike1899'
p4041
S'Sunrise Backcountry Camp Loop'
p4042
sS'hike1898'
p4043
S'Fullbright Park to Ahtanum Ridge'
p4044
sS'hike572'
p4045
S'Johnston Ridge Observatory Walk'
p4046
sS'hike573'
p4047
S'John Wayne Pioneer Trail: North Bend to Lake Easton'
p4048
sS'hike1895'
p4049
S'Ranger to The Hood to E.T. Loop'
p4050
sS'hike1894'
p4051
S'Flett Glacier Summer Ski Tour'
p4052
sS'hike1897'
p4053
S'Olympic Discovery Trail Adventure Route (OAT)'
p4054
sS'hike1896'
p4055
S'Baldy Trail (historical) Via Gray Wolf Trail'
p4056
sS'hike1891'
p4057
S'Elk Creek Conservation Trail'
p4058
sS'hike1890'
p4059
S'Paradise Point State Park Loop'
p4060
sS'hike1893'
p4061
S"Antoine's Summit Trail"
p4062
sS'hike1892'
p4063
S'Terrace Creek Park'
p4064
sS'hike686'
p4065
S'Badger Skyline Trail'
p4066
sS'hike687'
p4067
S'Seahurst Park Loop Trail'
p4068
sS'hike684'
p4069
S'Red Town Trail'
p4070
sS'hike685'
p4071
S'Sol Duc Falls Nature Trail to Appleton Pass Trail'
p4072
sS'hike682'
p4073
S'Cutthroat Lake Trail'
p4074
sS'hike683'
p4075
S'Discovery Historic Loop'
p4076
sS'hike680'
p4077
S'Grand Lake via Badger Valley Trail'
p4078
sS'hike681'
p4079
S'Pass Lake Loop Trail to Ginnet Trail Loop'
p4080
sS'hike985'
p4081
S'Pratt Lake Trail to Melakwa Lake Trail to Loop'
p4082
sS'hike688'
p4083
S'Turtle Rock and Bedrock Ridge Loop'
p4084
sS'hike689'
p4085
S'Mildred Lakes Trail'
p4086
sS'hike2086'
p4087
S'Sunrise Rock Trail'
p4088
sS'hike989'
p4089
S'Green Mountain via Gold Creek and Wildcat Trails'
p4090
sS'hike324'
p4091
S'Clear Creek Trail'
p4092
sS'hike1432'
p4093
S'Crystal Mountain Loop Trail'
p4094
sS'hike2080'
p4095
S'Fifes Ridge Trail'
p4096
sS'hike1828'
p4097
S'Mount Shuksan Sulphide Glacier'
p4098
sS'hike1829'
p4099
S'Trout Lake, Middle and Upper Copper Falls and Malachite Falls'
p4100
sS'hike1477'
p4101
S'Rainbow Loop Trail'
p4102
sS'hike1476'
p4103
S'Lake Lois Habitat Reserve'
p4104
sS'hike1475'
p4105
S'Spirit Lake Memorial Highway to Mount St. Helens'
p4106
sS'hike1474'
p4107
S'Freund Canyon Trail'
p4108
sS'hike1473'
p4109
S'Sandy Beach Trail'
p4110
sS'hike1472'
p4111
S'Hibox Mountain Via Rachel Lake Trail'
p4112
sS'hike1471'
p4113
S'Garfield Ravine Trail'
p4114
sS'hike1470'
p4115
S'Kopachuck State Park Trail'
p4116
sS'hike1479'
p4117
S'The Outback'
p4118
sS'hike1478'
p4119
S'Fort Ebey Loop'
p4120
sS'hike1820'
p4121
S'Possession Point State Park Loop'
p4122
sS'hike1821'
p4123
S'Port Angeles Waterfront'
p4124
sS'hike1712'
p4125
S'Lookout Loop'
p4126
sS'hike1713'
p4127
S'Burton Acres Loop'
p4128
sS'hike1710'
p4129
S'High School Trail to Chirico Trail Loop'
p4130
sS'hike1711'
p4131
S'Mount Baker via Easton Glacier'
p4132
sS'hike1716'
p4133
S'Edgar Rock from Lost Creek Road'
p4134
sS'hike1717'
p4135
S'Lake Susan Jane and Josephine Lake Trail'
p4136
sS'hike1714'
p4137
S'Sulphur Creek Trail'
p4138
sS'hike1715'
p4139
S'Wedding Rocks Trail'
p4140
sS'hike1718'
p4141
S'Marten Creek Trail'
p4142
sS'hike1719'
p4143
S'Whispering Firs, Cascara, Mainline and Lloyd Trail Detour Loop'
p4144
sS'hike2076'
p4145
S'Sword Fern and Highline Trail'
p4146
sS'hike2077'
p4147
S"Jack's Mountain via East Bank Trail "
p4148
sS'hike2074'
p4149
S'Rainier Trail'
p4150
sS'hike2075'
p4151
S'Shinglemill Creek Loop'
p4152
sS'hike2072'
p4153
S'Talapus, Olallie, and Island Lakes via Olallie Lake Trail and Island Rainbow Trail'
p4154
sS'hike2073'
p4155
S'Walk - N - Roll and Horse Trail Loop'
p4156
sS'hike2070'
p4157
S'Twin Bridges Trail '
p4158
sS'hike2071'
p4159
S'188, Grinder, Techmo and Landtrust Loop '
p4160
sS'hike555'
p4161
S'Shadow Lakes Trail'
p4162
sS'hike2078'
p4163
S'Tarbell and Thrillium'
p4164
sS'hike2079'
p4165
S'Master Link and Predator Loop'
p4166
sS'hike1666'
p4167
S'Tomyhoi Lake Trail'
p4168
sS'hike1667'
p4169
S'49 Degrees North Mountain Ski Resort'
p4170
sS'hike1664'
p4171
S'Chikamin Peak: South Slope'
p4172
sS'hike1665'
p4173
S'Anderson Butte Trail'
p4174
sS'hike1662'
p4175
S'Koppen Mountain Trail'
p4176
sS'hike1663'
p4177
S'Umatilla Rock Hike'
p4178
sS'hike1660'
p4179
S'Welcome Pass, Excelsior Peak, and Damfino Lakes from Forest Service Road 3060 via High Divide Trail'
p4180
sS'hike1661'
p4181
S'Sun Mountain via Sunnyside Trail'
p4182
sS'hike1668'
p4183
S'Old Butte via Jacobson Trail'
p4184
sS'hike1669'
p4185
S'Tracy Hill Loop'
p4186
sS'hike2388'
p4187
S'Filloon Trail'
p4188
sS'hike2389'
p4189
S'David Douglas Park Trail'
p4190
sS'hike2384'
p4191
S'Walker Valley Upper Mainland, WV-22, and Bear Creek OHV Loop'
p4192
sS'hike2385'
p4193
S'Dog Mountain [PRIVATE PROPERTY]'
p4194
sS'hike2386'
p4195
S'CCC Trail: North Section'
p4196
sS'hike2387'
p4197
S'Bygone Byways Interpretive Trail'
p4198
sS'hike2380'
p4199
S"Fenceline, River, Katie's, West Pond and Sewer Line Trail "
p4200
sS'hike2381'
p4201
S'Sloan Peak Trail'
p4202
sS'hike2382'
p4203
S'Cedar Lake Primitive Trail via Grey Wolf River'
p4204
sS'hike2383'
p4205
S'Kennedy Creek Summit Lake Loop'
p4206
sS'hike1759'
p4207
S'Foggy Dew Creek, Merchants Basin, and Sunrise Lake Loop Trail '
p4208
sS'hike2339'
p4209
S'Tibbetts Mountain via USFS 112 Road'
p4210
sS'hike1096'
p4211
S'Interurban Trail and Fragrance Lake'
p4212
sS'hike2338'
p4213
S'Thorp Lake and Thorp Mountain'
p4214
sS'hike963'
p4215
S'Useless Bay Tidelands'
p4216
sS'hike962'
p4217
S'Silver Forest Trail'
p4218
sS'hike2492'
p4219
S'McNeeley Summit Trail '
p4220
sS'hike960'
p4221
S'Weatherwax Trail'
p4222
sS'hike2494'
p4223
S'Balanced Rock Trail'
p4224
sS'hike966'
p4225
S'Kachess Beacon Trail'
p4226
sS'hike965'
p4227
S'Hangman Park Loop'
p4228
sS'hike2497'
p4229
S'Hyak Creek to Nordic Pass Trail'
p4230
sS'hike2498'
p4231
S'Pit Loop Trail'
p4232
sS'hike2499'
p4233
S'Chamna, Red Tail and River Trail Loop'
p4234
sS'hike969'
p4235
S'Dog Lake to Cramer Lake Trail'
p4236
sS'hike968'
p4237
S'Happy Panther Trail'
p4238
sS'hike1280'
p4239
S'Watmough Bay Trail'
p4240
sS'hike1281'
p4241
S'Chambers Creek Trail'
p4242
sS'hike1282'
p4243
S'Centennial Trail West'
p4244
sS'hike1283'
p4245
S'Mount Shuksan via the Fischer Chimneys Approach'
p4246
sS'hike1284'
p4247
S'Waterworks Canyon Trail'
p4248
sS'hike1285'
p4249
S'Iron Peak Trail #1399'
p4250
sS'hike1286'
p4251
S'Ridell Lake'
p4252
sS'hike1287'
p4253
S'Big Tree Ridge Trail: Short Version'
p4254
sS'hike1288'
p4255
S'Trout Lake and Copper Lake via West Fork Foss Lakes Trail'
p4256
sS'hike1289'
p4257
S'Dalles Falls Trail'
p4258
sS'hike2254'
p4259
S'Bluff Lake Trail'
p4260
sS'hike2255'
p4261
S'Wildhorse Creek Trail #1592'
p4262
sS'hike2252'
p4263
S'Jakles Lagoon '
p4264
sS'hike2253'
p4265
S'Trustland Trails'
p4266
sS'hike2250'
p4267
S"Dirty Harry's Trail [CLOSED]"
p4268
sS'hike2251'
p4269
S'Burch Mountain Trail'
p4270
sS'hike2333'
p4271
S'Little Wenatchee Trail'
p4272
sS'hike1048'
p4273
S'Winslow Pool'
p4274
sS'hike1049'
p4275
S'Azalea Way'
p4276
sS'hike1046'
p4277
S'Jefferson Ridge Trail # 808'
p4278
sS'hike1047'
p4279
S'Asahel Curtis Nature Trail'
p4280
sS'hike1044'
p4281
S'Riverside State Park: Military Cemetery/Equestrian Area Loop '
p4282
sS'hike2332'
p4283
S'Cowiche Mountain via William O Douglas Trail'
p4284
sS'hike1042'
p4285
S'Teeley Creek Trail #251 to Bertha May Lake'
p4286
sS'hike1043'
p4287
S'Interurban Trail'
p4288
sS'hike1040'
p4289
S'Barnes Creek Trail'
p4290
sS'hike1041'
p4291
S'Northwest Trek Wildlife Park Loop'
p4292
sS'hike369'
p4293
S'Squires Lake Trail'
p4294
sS'hike368'
p4295
S'Lake Whatcom Trail'
p4296
sS'hike361'
p4297
S'John Wayne Pioneer Trail (Snoqualmie Tunnel)'
p4298
sS'hike360'
p4299
S'Knothead Valley Loop'
p4300
sS'hike363'
p4301
S'Rocky Brook Falls'
p4302
sS'hike362'
p4303
S'Humpback Mountain Trail'
p4304
sS'hike365'
p4305
S'Umtanum Ridge Crest Trail'
p4306
sS'hike364'
p4307
S'Lake Fenwick'
p4308
sS'hike367'
p4309
S'Covel Creek Falls and Angel Falls Trail'
p4310
sS'hike366'
p4311
S'Old Pipeline Bed Trail'
p4312
sS'hike2272'
p4313
S'Gunn Ranch Trail'
p4314
sS'hike219'
p4315
S'Lake Valhalla Trail'
p4316
sS'hike218'
p4317
S'Teneriffe Falls via Mount Teneriffe Trail'
p4318
sS'hike215'
p4319
S"Stan's Overlook"
p4320
sS'hike214'
p4321
S'Ape Canyon Trail'
p4322
sS'hike217'
p4323
S'Crystal Lakes Trail to Sourdough Gap'
p4324
sS'hike216'
p4325
S'The Washington Park Arboretum'
p4326
sS'hike211'
p4327
S'Explorer Falls Trail'
p4328
sS'hike210'
p4329
S'Ira Spring Memorial Trail'
p4330
sS'hike213'
p4331
S'Burroughs Mountain Trail'
p4332
sS'hike212'
p4333
S'Mount Rainier Standard Summit Route'
p4334
sS'hike2274'
p4335
S'Excelsior Pass to Welcome Pass via High Divide Trail'
p4336
sS'hike789'
p4337
S'Licorice Fern to Far Country Falls'
p4338
sS'hike788'
p4339
S'Mount Teneriffe via Mount Teneriffe Trailhead'
p4340
sS'hike787'
p4341
S'Wright Mountain'
p4342
sS'hike786'
p4343
S'Victoria, Armstrong, & Pilchuck Trails'
p4344
sS'hike785'
p4345
S'Trillium Trail and Pipeline Regional Trail'
p4346
sS'hike784'
p4347
S'Loowit Falls from Johnston Ridge Observatory'
p4348
sS'hike783'
p4349
S'Stegosaurus Butte Trail'
p4350
sS'hike782'
p4351
S'Burnt Bridge Creek Trail'
p4352
sS'hike781'
p4353
S'Milton Interurban Trail'
p4354
sS'hike780'
p4355
S'Rock Trail to Lost Lake Loop'
p4356
sS'hike1860'
p4357
S'Rugged Ridge Trail'
p4358
sS'hike1861'
p4359
S'Rattlesnake Slope Trail'
p4360
sS'hike1862'
p4361
S'Sehome Hill Lookout Tower Loop'
p4362
sS'hike1863'
p4363
S'Badger Mountain CSS Loop'
p4364
sS'hike1864'
p4365
S'Lower Maynard Burn Way Trail'
p4366
sS'hike1865'
p4367
S'Washougal Waterfront Loop'
p4368
sS'hike1866'
p4369
S'Fallen Leaf Lake'
p4370
sS'hike1867'
p4371
S'Domke Lake Trail'
p4372
sS'hike1868'
p4373
S'Lighthouse Keepers Trail'
p4374
sS'hike1869'
p4375
S'Boot, Knee Knocker, and Sherwood Loop'
p4376
sS'hike540'
p4377
S'Owen Beach Trail'
p4378
sS'hike145'
p4379
S'Ancient Lakes Trail'
p4380
sS'hike144'
p4381
S'Soundview and Grandview Trail Loop'
p4382
sS'hike147'
p4383
S'Rattlesnake Mountain Trail to East Peak'
p4384
sS'hike146'
p4385
S'Nisqually Vista Trail'
p4386
sS'hike141'
p4387
S'Panther Creek Falls Trail 137'
p4388
sS'hike140'
p4389
S'Mount Rose Trail'
p4390
sS'hike143'
p4391
S'Hole-in-the-Wall Trail'
p4392
sS'hike142'
p4393
S'Green Lake Trail'
p4394
sS'hike543'
p4395
S'Spider Gap - Buck Creek Pass Loop'
p4396
sS'hike148'
p4397
S'Snowgrass Flats and Goat Lake Loop Trail'
p4398
sS'hike545'
p4399
S'Salmon-Morgan Creeks Trail'
p4400
sS'hike1918'
p4401
S'Boundary Trail to South Coldwater Trail'
p4402
sS'hike1919'
p4403
S'South Whidbey Community Park Loop'
p4404
sS'hike1448'
p4405
S'Woods Creek Watchable Wildlife Trail'
p4406
sS'hike1449'
p4407
S'Middle Trail and Beaver Ponds Trail Loop '
p4408
sS'hike544'
p4409
S'Turtleback Mountain South Trail '
p4410
sS'hike1910'
p4411
S'Wetland to Big Loop to North Loop'
p4412
sS'hike1911'
p4413
S'Klemgard County Park Loop'
p4414
sS'hike1912'
p4415
S'Nimbus Knob, Goldback and Pond Loop Trail'
p4416
sS'hike1913'
p4417
S'Hidden Cove Trail #4'
p4418
sS'hike1914'
p4419
S'Dusty and Ancient Lakes via Gorge Oasis '
p4420
sS'hike1915'
p4421
S'Snolqualmie Valley Trail'
p4422
sS'hike1916'
p4423
S'Pioneer Path Nature Trail'
p4424
sS'hike1917'
p4425
S'Laplash Falls Trail'
p4426
sS'hike1705'
p4427
S'Emmons Moraine Trail'
p4428
sS'hike1704'
p4429
S'Independence Pass Interpretive Trail'
p4430
sS'hike546'
p4431
S'Wonderland Trail Ipsut Creek Loop to Ipsut Pass and Mowich Lake'
p4432
sS'hike1706'
p4433
S'Guemes Channel Trail'
p4434
sS'hike1701'
p4435
S'Dry Gulch Loop'
p4436
sS'hike1700'
p4437
S'Muir Snowfield Ski Tour'
p4438
sS'hike1703'
p4439
S'Terrace Trail'
p4440
sS'hike1702'
p4441
S'Three Forks Trail'
p4442
sS'hike1058'
p4443
S'Hoypus Point Trail'
p4444
sS'hike1709'
p4445
S'The Yurt Trail'
p4446
sS'hike1708'
p4447
S'La Rush and Bear Lakes Trail'
p4448
sS'hike2069'
p4449
S'Mission Peak Via Marion Lake'
p4450
sS'hike2068'
p4451
S'Tribulation to Revival to Exodus Loop'
p4452
sS'hike2349'
p4453
S'Naches and Greenwater OHV Trail'
p4454
sS'hike2061'
p4455
S'Trail 25'
p4456
sS'hike2060'
p4457
S'Leech Lake to Tacoma Pass'
p4458
sS'hike2063'
p4459
S'Methow Valley Community Trail'
p4460
sS'hike2062'
p4461
S'Tahoma One Drop Monasteries'
p4462
sS'hike2065'
p4463
S'Squilchuck Trail'
p4464
sS'hike2064'
p4465
S'Tiger Middle Summit'
p4466
sS'hike2067'
p4467
S'High Divide Trail and Cat Basin Primitive Trail to Swimming Bear Lakeway Trail'
p4468
sS'hike2066'
p4469
S'Howard Lake via PCT'
p4470
sS'hike1679'
p4471
S'Coyote Trail'
p4472
sS'hike1678'
p4473
S'Elk Lake via Thomas Lake Trail'
p4474
sS'hike1671'
p4475
S'Lake Dorothy, Bear Lake, and Deer Lake'
p4476
sS'hike1670'
p4477
S'Taylor Mountain Loop'
p4478
sS'hike1673'
p4479
S'Cape Disappointment North Head Trail'
p4480
sS'hike1672'
p4481
S'Hamlin Park Loop'
p4482
sS'hike1675'
p4483
S'Whidbey Island Cliffside Trail'
p4484
sS'hike1674'
p4485
S'Spine Line, Ravine Run, Boundary Trails Loop'
p4486
sS'hike1677'
p4487
S'White Chuck Mountain Trail'
p4488
sS'hike1676'
p4489
S'Klickitat Rail Trail'
p4490
sS'hike2399'
p4491
S'Marco Polo Lake Trail'
p4492
sS'hike2398'
p4493
S'Gunsight Pass'
p4494
sS'hike2397'
p4495
S'Deer Fern to Rhodie Hill to Old Loop Road to Fire Loop'
p4496
sS'hike2396'
p4497
S'Sweetgrass Butte via Goat Creek OHV Road'
p4498
sS'hike2395'
p4499
S'Chief Timothy State Park Island Loop Trail'
p4500
sS'hike2394'
p4501
S'East Creek Trail to Mabee Pass and Horse Heaven Camp'
p4502
sS'hike2393'
p4503
S'Upward Mobility, Poppin Top, Flow State Loop'
p4504
sS'hike2392'
p4505
S'Westcrest Park North Loop'
p4506
sS'hike2391'
p4507
S'Extended Loop from Bracken Trailhead'
p4508
sS'hike2390'
p4509
S'Ericsons Bay Primitive Trail '
p4510
sS'hike1082'
p4511
S'Elk Mountain Trail Loop'
p4512
sS'hike1338'
p4513
S'Falls Creek and Quinault Loop Trail'
p4514
sS'hike1083'
p4515
S'Rasar State Park Loop'
p4516
sS'hike898'
p4517
S'Carbon River Rain Forest Nature Trail'
p4518
sS'hike2483'
p4519
S'kaniksu Road'
p4520
sS'hike2482'
p4521
S'Maple Leaf Resevoir Park'
p4522
sS'hike2481'
p4523
S'Lopez Hill Loop'
p4524
sS'hike2480'
p4525
S'Slick Ear Trail'
p4526
sS'hike2487'
p4527
S'Ludlow Falls [PRIVATE PROPERTY]'
p4528
sS'hike2486'
p4529
S'Griffins at Black Diamond Loop'
p4530
sS'hike2485'
p4531
S'Ross Lake'
p4532
sS'hike2484'
p4533
S'Lake to Lake, Oly II, Red Tape Loop'
p4534
sS'hike978'
p4535
S'Rock Mountain Trail'
p4536
sS'hike979'
p4537
S'Cave Hole Trail to Coal Creek Falls Trail'
p4538
sS'hike2489'
p4539
S'Broken Tree, Lost Lake, Sqebeqsed, Hatchery Trail'
p4540
sS'hike2488'
p4541
S'Darrington Access Road Trail'
p4542
sS'hike1332'
p4543
S'Dwights Way Trail'
p4544
sS'hike2241'
p4545
S'Quartz Creek'
p4546
sS'hike2240'
p4547
S'Putney Woods Loop'
p4548
sS'hike2243'
p4549
S'Skagit Riverwalk'
p4550
sS'hike2242'
p4551
S'Floyd M. Thornton Nature Trail'
p4552
sS'hike2245'
p4553
S'Olympic Traverse: North Fork to Hoh'
p4554
sS'hike2244'
p4555
S'Odessa Craters Trail'
p4556
sS'hike2247'
p4557
S'188th and Fir Hill Trail Loop'
p4558
sS'hike2246'
p4559
S'Butte Creek Sitka Spruce Grove Trail'
p4560
sS'hike2249'
p4561
S'Fire Trail'
p4562
sS'hike2248'
p4563
S'Mount Kit Carson Loop Road, Trail 140 and Trail 110 Loop'
p4564
sS'hike1299'
p4565
S'Lower Elkspur and Beaver Creek Loop'
p4566
sS'hike1298'
p4567
S'Burnt Mountain and Ironestone Mountain Trail'
p4568
sS'hike1081'
p4569
S'Fire and Ice Trail'
p4570
sS'hike1956'
p4571
S'Cowiche Canyon Wine Trail'
p4572
sS'hike1335'
p4573
S'Kamiak Butte Primative Trail'
p4574
sS'hike1051'
p4575
S'Snoquera Falls and Moss Lake Loop Trail'
p4576
sS'hike1050'
p4577
S'Upper Maynard Burn Way Trail'
p4578
sS'hike1053'
p4579
S'Birds Nest and Lookout Beach'
p4580
sS'hike1957'
p4581
S'Pioneer Square Walking Tour'
p4582
sS'hike1055'
p4583
S'Primrose Trail via Coal Creek Trail'
p4584
sS'hike1054'
p4585
S'Lost Lake and Ridge Trail Loop'
p4586
sS'hike1057'
p4587
S'Wildwood Park Loop'
p4588
sS'hike1056'
p4589
S'Baring Mountain Trail'
p4590
sS'hike1059'
p4591
S'Big Rock Trail'
p4592
sS'hike1950'
p4593
S'Cook Hill Loop'
p4594
sS'hike1337'
p4595
S'Beach 1 Nature Trail'
p4596
sS'hike1951'
p4597
S'Tower Mountain Forest Loop via Iller Creek Trailhead'
p4598
sS'hike2277'
p4599
S'Goose Prairie Trail'
p4600
sS'hike1952'
p4601
S'Lake Meridian via Soos Creek Trail'
p4602
sS'hike1953'
p4603
S'Rugged Ridge to Indian Pass Trail'
p4604
sS'hike1087'
p4605
S'Railroad Trail'
p4606
sS'hike208'
p4607
S'Lake Ann'
p4608
sS'hike209'
p4609
S'Otter and Big Creek Falls Via Taylor River Trail'
p4610
sS'hike202'
p4611
S'Sky Country (Cougar Mountain) Trail'
p4612
sS'hike203'
p4613
S'Watershed Park Trail'
p4614
sS'hike200'
p4615
S'Sunrise Rim Trail'
p4616
sS'hike201'
p4617
S'Black Diamond Coal Mine Trail'
p4618
sS'hike206'
p4619
S'Shangrila, Anti-Aircraft Ridge Loop Trail'
p4620
sS'hike207'
p4621
S'Anderson and Watson Lakes Trail'
p4622
sS'hike204'
p4623
S'Royal Basin Trail'
p4624
sS'hike205'
p4625
S"Sawmill, Margaret's, Beach House, and Stump House Loop"
p4626
sS'hike414'
p4627
S'Palisades Lakes Trail'
p4628
sS'hike2495'
p4629
S'Wenas OHV Loop'
p4630
sS'hike1835'
p4631
S'Tucannon River Trail'
p4632
sS'hike2525'
p4633
S'Oxbow Trail [CLOSED]'
p4634
sS'hike377'
p4635
S'Big Heart Lake via West Fork Foss Lakes Trail'
p4636
sS'hike374'
p4637
S'Duckabush River Trail to Five Mile Camp'
p4638
sS'hike375'
p4639
S'Olympic National Park Switchback Trail'
p4640
sS'hike372'
p4641
S'Margaret Lake Trail'
p4642
sS'hike373'
p4643
S'Lincoln Park Trail'
p4644
sS'hike370'
p4645
S'Sahale Arm Trail to Quien Sabe Glacier'
p4646
sS'hike371'
p4647
S'Soaring Eagle Park Trail'
p4648
sS'hike378'
p4649
S'Alta Vista Trail'
p4650
sS'hike379'
p4651
S'Pyramid Mountain Trail'
p4652
sS'hike798'
p4653
S'Beaver Falls'
p4654
sS'hike799'
p4655
S'Soda Peaks Lake Trail'
p4656
sS'hike794'
p4657
S'Evergreen Trail'
p4658
sS'hike795'
p4659
S'Walt Bailey Trail'
p4660
sS'hike796'
p4661
S'Capitol Peak OHV Trail'
p4662
sS'hike797'
p4663
S'Mount Adams: South Spur and Mazama Glacier'
p4664
sS'hike790'
p4665
S'Mountain Home Ridge'
p4666
sS'hike791'
p4667
S'Chelan Lakeshore Trail'
p4668
sS'hike792'
p4669
S'Talapus Lake Trail to Mason Lake'
p4670
sS'hike793'
p4671
S'Slab Camp Trail'
p4672
sS'hike1873'
p4673
S'Alaska Lake via Gold Creek Trail '
p4674
sS'hike2524'
p4675
S'Summit Lake and Grace Lakes Trail [CLOSED]'
p4676
sS'hike1871'
p4677
S'Yakima Wine and Fruit Challenge'
p4678
sS'hike1870'
p4679
S'Lost Pass Primitive Trail'
p4680
sS'hike1877'
p4681
S'Rainbow Town and Red Town Loop Trail'
p4682
sS'hike1876'
p4683
S'Olympic National Park Foothills Trail'
p4684
sS'hike1875'
p4685
S'Skyline Ridge Trail'
p4686
sS'hike1874'
p4687
S'Myrtle Lake via Entiat River and Cow Creek Trail'
p4688
sS'hike556'
p4689
S'Wagonwheel Lake Trail'
p4690
sS'hike557'
p4691
S'Meet Cutter to River Trail Loop'
p4692
sS'hike1879'
p4693
S'Fern Lake Trail'
p4694
sS'hike1878'
p4695
S'Mount Madron'
p4696
sS'hike552'
p4697
S'Norse Peak Trail'
p4698
sS'hike392'
p4699
S'Cowiche Canyon Uplands'
p4700
sS'hike550'
p4701
S'Frozen Lake'
p4702
sS'hike551'
p4703
S'Magnuson Park Waterfront Trail'
p4704
sS'hike2527'
p4705
S'Waterside Path  [CLOSED]'
p4706
sS'hike2520'
p4707
S'Lava Canyon Loop and FR 83 Extension Trail Loop [CLOSED]'
p4708
sS'hike2521'
p4709
S'Loch Eileen Trail [CLOSED]'
p4710
sS'hike152'
p4711
S'Cedar Butte Trail'
p4712
sS'hike153'
p4713
S'Monte Cristo Trail'
p4714
sS'hike150'
p4715
S'Moulton Falls - East Fork of the Lewis River Trail'
p4716
sS'hike151'
p4717
S'Lake Angeles Trail'
p4718
sS'hike156'
p4719
S'Main Trail and Temple Pond Loop Trail'
p4720
sS'hike157'
p4721
S'Klahhane Ridge Trail to Lake Angeles'
p4722
sS'hike154'
p4723
S'Rachel and Rampart Lakes Trail'
p4724
sS'hike155'
p4725
S'Rampart Ridge Loop Trail'
p4726
sS'hike158'
p4727
S'Shi Shi Beach Trail'
p4728
sS'hike159'
p4729
S'Glacier Basin Trail'
p4730
sS'hike1707'
p4731
S'Hidden Lakes Trail'
p4732
sS'hike2522'
p4733
S'Cowboy Mountain [CLOSED]'
p4734
sS'hike1909'
p4735
S'Bear Creek Trail'
p4736
sS'hike1908'
p4737
S'Sunrise Nature Trail'
p4738
sS'hike1459'
p4739
S'Steam Hoist Trail'
p4740
sS'hike1458'
p4741
S'Sunrise Mine Trail'
p4742
sS'hike1903'
p4743
S'Oil City Trail'
p4744
sS'hike1902'
p4745
S'Foothills Trail: Fairfax Bridge to Carbonado'
p4746
sS'hike1901'
p4747
S'McTavish Trail '
p4748
sS'hike1900'
p4749
S'WA 520 Trail'
p4750
sS'hike1907'
p4751
S'Rattlesnake Hill'
p4752
sS'hike1906'
p4753
S'O. O. Denny Park, Big Finn Hill Park and Saint Edward State Park'
p4754
sS'hike1905'
p4755
S'Emmons Glacier Summit via Glacier Basin Trail'
p4756
sS'hike1904'
p4757
S'Point Defiance Park Inner Loop'
p4758
sS'hike2'
p4759
S'Mount Si Trail'
p4760
sS'hike2523'
p4761
S'Off The Grid Cahill  [PRIVATE PROPERTY]'
p4762
sS'hike3'
p4763
S'Wallace Falls Trail'
p4764
sS'hike0'
p4765
S'Rattlesnake Ledge Trail '
p4766
sS'hike1'
p4767
S'Lake 22 Trail'
p4768
sS'hike6'
p4769
S'Lake Serene Trail and Bridal Veil Falls'
p4770
sS'hike7'
p4771
S'Poo Poo Point Trail'
p4772
sS'hike4'
p4773
S'Twin Falls Trail'
p4774
sS'hike5'
p4775
S'Snow Lake Trail'
p4776
sS'hike8'
p4777
S'Little Si Trail'
p4778
sS'hike9'
p4779
S'Tolmie Peak Trail'
p4780
sS'hike134'
p4781
S'Yellow Aster Butte Trail'
p4782
sS'hike2018'
p4783
S'South Asotin Trail'
p4784
sS'hike2019'
p4785
S'Dry Gulch Short Route'
p4786
sS'hike135'
p4787
S'Murhut Falls Trail'
p4788
sS'hike2014'
p4789
S'Welcome Pass from Damfino Lakes via High Divide Trail'
p4790
sS'hike2015'
p4791
S'Paris Creek Trail'
p4792
sS'hike2016'
p4793
S'Rotary Bark Park Off-Leash Trail'
p4794
sS'hike2017'
p4795
S'Main Tiger Mountain Road, OTG, Fully Rigid, Joy Ride and Northwest Timber Loop'
p4796
sS'hike2010'
p4797
S'Copper Creek Hut via Rainier Vista Trail '
p4798
sS'hike2011'
p4799
S'False Summit, Lookout Tower, and Mountain Lake Loop'
p4800
sS'hike2012'
p4801
S'Boulder Lake Trail'
p4802
sS'hike2013'
p4803
S'Bench Lake '
p4804
sS'hike137'
p4805
S"Ebey's Landing Trail"
p4806
sS'hike1608'
p4807
S'Red Town Trail to Wildside Trail'
p4808
sS'hike1609'
p4809
S'Sunburst and Porpoise Point Loop'
p4810
sS'hike1604'
p4811
S'Lost Creek Ridge Trail'
p4812
sS'hike1605'
p4813
S'Purcell Mountain Trail'
p4814
sS'hike1606'
p4815
S'Stinger, Once Upon a Time and Rabbit Role'
p4816
sS'hike1607'
p4817
S'Bowl and Pitcher Viewpoint and Trail 100'
p4818
sS'hike1600'
p4819
S'Waterworks Gardens Trail'
p4820
sS'hike1601'
p4821
S'Manchester State Park Loop'
p4822
sS'hike1602'
p4823
S'Horseshoe Ridge Trail'
p4824
sS'hike1603'
p4825
S'Jolly Mountain Lookout Trail #1307'
p4826
sS'hike132'
p4827
S'Heliotrope Ridge Trail'
p4828
sS'hike133'
p4829
S'McClellan Butte Trail'
p4830
sS'hike2120'
p4831
S'The East Wing'
p4832
sS'hike2121'
p4833
S'Centennial Walk'
p4834
sS'hike2122'
p4835
S'River View Quarry Road Loop '
p4836
sS'hike2123'
p4837
S'Crescent Beach Trail'
p4838
sS'hike2124'
p4839
S'Coyote Wall Long Loop'
p4840
sS'hike2125'
p4841
S'Mounument Creek Trail from Lost River to Pistol Pass'
p4842
sS'hike2126'
p4843
S'Perimeter, Holton Wetland and Ravine Drop Off Trail '
p4844
sS'hike2127'
p4845
S'Louis Lake'
p4846
sS'hike2128'
p4847
S'134, 118, 10, 123 and 108 Trail Loop '
p4848
sS'hike2129'
p4849
S'Ridge Loop to Old Indian Loop'
p4850
sS'hike1110'
p4851
S'Waptus Lake via Waptus River Trail'
p4852
sS'hike1111'
p4853
S'East Bank and Desolation Trail '
p4854
sS'hike1112'
p4855
S'Scenic Beach State Park'
p4856
sS'hike1113'
p4857
S'Mine Road Trail'
p4858
sS'hike1114'
p4859
S'Bald Knob - CCC Cabin Trail'
p4860
sS'hike1115'
p4861
S'Bear Gap to Bullion Basin'
p4862
sS'hike1116'
p4863
S'Mount St. Helens Loop Trail from Windy Ridge'
p4864
sS'hike1117'
p4865
S'Shadow of the Sentinels Trail'
p4866
sS'hike1118'
p4867
S'Big Lava Bed Trail via PCT'
p4868
sS'hike1119'
p4869
S'Preston-Snoqualmie Trail'
p4870
sS'hike529'
p4871
S'Gray Wolf Trail'
p4872
sS'hike528'
p4873
S'Paradise Inn to Panorama Point-Snow Hike'
p4874
sS'hike949'
p4875
S'Blue Mountain Logging Road - South'
p4876
sS'hike948'
p4877
S'North Fork Sauk Falls Trail'
p4878
sS'hike522'
p4879
S'Trail of the Shadows Trail'
p4880
sS'hike945'
p4881
S'Stagman Ridge Trail'
p4882
sS'hike944'
p4883
S'Olympic Discovery Trail'
p4884
sS'hike947'
p4885
S'Thomas Lake Trail'
p4886
sS'hike946'
p4887
S'Salmo-Priest Loop'
p4888
sS'hike941'
p4889
S'Mount Zion'
p4890
sS'hike940'
p4891
S'Vancouver Lake'
p4892
sS'hike943'
p4893
S'State Capitol and Central Olympia'
p4894
sS'hike942'
p4895
S'Aldrich Butte Trail Via Pacific Crest Trail'
p4896
sS'hike2234'
p4897
S'Sentinel Mountain OHV Loop'
p4898
sS'hike2235'
p4899
S'Mount Baldy Ski Tour'
p4900
sS'hike2236'
p4901
S'Old School to Jackleg to Mainline Loop'
p4902
sS'hike2237'
p4903
S'Beach Walk and Frog Pond Trail'
p4904
sS'hike2230'
p4905
S'Marcus Peak Trail'
p4906
sS'hike2231'
p4907
S'Bird Mountain Trail'
p4908
sS'hike2232'
p4909
S'Canal Lake'
p4910
sS'hike2233'
p4911
S'Vance Creek Bridge [PRIVATE PROPERTY]'
p4912
sS'hike2238'
p4913
S'Silent Creek Trail and Deep Creek Trail'
p4914
sS'hike2239'
p4915
S'Pompey Peak via Forest Road #2304'
p4916
sS'hike1024'
p4917
S'Squak Mountain East Ridge'
p4918
sS'hike1025'
p4919
S'Winter Block via Birdhouse Trail'
p4920
sS'hike1026'
p4921
S'Toutle River Trail'
p4922
sS'hike1027'
p4923
S'East Lake Sammamish Trail'
p4924
sS'hike1020'
p4925
S'Trillium Trail'
p4926
sS'hike1021'
p4927
S'Lake Elizabeth Trail'
p4928
sS'hike1022'
p4929
S'Foothills Trail: South Prairie to Puyallup'
p4930
sS'hike1023'
p4931
S'Deceiver Trail'
p4932
sS'hike1849'
p4933
S'Damfino Lakes Trail to Excelsior Peak'
p4934
sS'hike1028'
p4935
S'Baldy Mountain'
p4936
sS'hike1029'
p4937
S'Monogram Lake Trail'
p4938
sS'hike1442'
p4939
S'Junction Lake via East Crater Trail'
p4940
sS'hike2348'
p4941
S'Loon Lake Mountain'
p4942
sS'hike2490'
p4943
S'Observation Peak and Dry Creek Loop'
p4944
sS'hike2491'
p4945
S'Canyon Lake Trail [PRIVATE PROPERTY]'
p4946
sS'hike2340'
p4947
S'Elk Mountain from Deer Pass Campground'
p4948
sS'hike2341'
p4949
S'Napol Cabin Trail'
p4950
sS'hike2342'
p4951
S'Tiger Mountain and Cable Line Trail'
p4952
sS'hike2343'
p4953
S'Kangaroo Temple '
p4954
sS'hike2344'
p4955
S'East Fork Satsop River Loop'
p4956
sS'hike961'
p4957
S'Spanaway Lake Trail'
p4958
sS'hike2346'
p4959
S'Mirabeau Point Loop'
p4960
sS'hike2347'
p4961
S'Tonga Ridge OHV Trail'
p4962
sS'hike128'
p4963
S'Sauk Mountain Trail'
p4964
sS'hike1339'
p4965
S'Cougar Mountain Loop Trail'
p4966
sS'hike899'
p4967
S'White Pass Pilot Ridge Loop Trail'
p4968
sS'hike2493'
p4969
S'Rock Candy Mountain and Wet Cap Forest OHV Loop'
p4970
sS'hike1330'
p4971
S'Glacier Peak'
p4972
sS'hike892'
p4973
S'Coal Creek Falls '
p4974
sS'hike891'
p4975
S'Candy Mountain'
p4976
sS'hike890'
p4977
S'Bothell Landing Trail'
p4978
sS'hike897'
p4979
S'Tinkham Peak (Tinkham East Boot) Trail'
p4980
sS'hike896'
p4981
S'Gibbs Lake Trail'
p4982
sS'hike895'
p4983
S'Vista Ridge Trail'
p4984
sS'hike894'
p4985
S'Dead Horse Creek Trail'
p4986
sS'hike2496'
p4987
S'Gold Creek Extension Trail'
p4988
sS'hike419'
p4989
S'Foothills Trail: Puyallup to South Prairie'
p4990
sS'hike418'
p4991
S'Glenrose Cliff Trails '
p4992
sS'hike417'
p4993
S'Nolte State Park Deep Lake'
p4994
sS'hike416'
p4995
S'Mount Zion Trail'
p4996
sS'hike415'
p4997
S'Battle Ground Lake Loop Trail'
p4998
sS'hike964'
p4999
S"West View Trail to Devil's Butte"
p5000
sS'hike413'
p5001
S'Josephine Lake View Trail'
p5002
sS'hike412'
p5003
S'PCT: WA Section J - Snoqualmie Pass to Stevens Pass'
p5004
sS'hike411'
p5005
S'Lake Isabel Trail'
p5006
sS'hike410'
p5007
S'Ingalls Creek Trail to Lake Ingalls'
p5008
sS'hike303'
p5009
S'Stimpson Nature Preserve'
p5010
sS'hike302'
p5011
S'Lake Constance Trail'
p5012
sS'hike301'
p5013
S'Flapjack Lakes Trail'
p5014
sS'hike300'
p5015
S'Starvation Ridge and Warren Lake Trail '
p5016
sS'hike307'
p5017
S'Normandy Beach Trail'
p5018
sS'hike306'
p5019
S'High Lakes Loop Trail'
p5020
sS'hike305'
p5021
S'Thornton Lakes Trail'
p5022
sS'hike304'
p5023
S'Kamiak Butte Trail'
p5024
sS'hike2046'
p5025
S'Kulshan Trail'
p5026
sS'hike308'
p5027
S'Spectacle Lake'
p5028
sS'hike1846'
p5029
S'Cyrus Gates Overlook to Lost Lake Trail via Ridge Trail'
p5030
sS'hike1847'
p5031
S'The Winthrop Trail'
p5032
sS'hike1844'
p5033
S'Quartz Creek Trail #5 and #5b'
p5034
sS'hike1845'
p5035
S'Stevens Pass Scenic Byway'
p5036
sS'hike1842'
p5037
S'Fay Peak Trail'
p5038
sS'hike1843'
p5039
S'Ravensdale'
p5040
sS'hike1840'
p5041
S'Nannie Peak Trail'
p5042
sS'hike1841'
p5043
S'Tumwater Hill Park Trail '
p5044
sS'hike523'
p5045
S'Twanoh Trail'
p5046
sS'hike848'
p5047
S'Squak Mountain Road to Bullitt Gorge Trail Loop'
p5048
sS'hike521'
p5049
S'Indian Heavan Trail to Lake Wapiki'
p5050
sS'hike520'
p5051
S'Easton Glacier via Railroad Grade Trail'
p5052
sS'hike527'
p5053
S'Millersylvania Northwest Loop'
p5054
sS'hike526'
p5055
S'Grassy Knoll Trail'
p5056
sS'hike1848'
p5057
S'Buck Mountain Loop Trail'
p5058
sS'hike849'
p5059
S'Rocky Brook Falls Trail'
p5060
sS'hike2258'
p5061
S'Rock Hill Loop'
p5062
sS'hike2259'
p5063
S'Mission Peak Loop'
p5064
sS'hike2256'
p5065
S'Ridgefield National Wildlife Refuge [CLOSED]'
p5066
sS'hike2257'
p5067
S'May Creek, De Leo, and China Creek Loop'
p5068
s.